000000000007793c t __GLOBAL__sub_I_class_db.cpp
000000000001ad20 t __GLOBAL__sub_I_doc_data.gen.cpp
0000000000058280 t __GLOBAL__sub_I_doc_data.gen.cpp
000000000005ff64 t __GLOBAL__sub_I_editor_plugin_registration.cpp
000000000005c4c8 t __GLOBAL__sub_I_godot.cpp
00000000000602b0 t __GLOBAL__sub_I_memory.cpp
000000000005e05c t __GLOBAL__sub_I_wrapped.cpp
0000000000000a3c t __Z28initialize_gdextension_typesN5godot25ModuleInitializationLevelE
0000000000000ab4 t __Z30uninitialize_gdextension_typesN5godot25ModuleInitializationLevelE
00000000000b5dd0 t __Z3absB8nn190102d
00000000000b5db8 t __Z3absB8nn190102f
00000000001d02c8 d __ZGVN5godot10BaseButton37_gde_engine_class_registration_helperE
00000000001d02a8 d __ZGVN5godot10CanvasItem37_gde_engine_class_registration_helperE
00000000001d04e8 d __ZGVN5godot10FileAccess37_gde_engine_class_registration_helperE
00000000001d0728 d __ZGVN5godot10InputEvent37_gde_engine_class_registration_helperE
00000000001d0218 d __ZGVN5godot10RefCounted37_gde_engine_class_registration_helperE
00000000001d0e00 d __ZGVN5godot10SceneState37_gde_engine_class_registration_helperE
00000000001d0278 d __ZGVN5godot10TextServer37_gde_engine_class_registration_helperE
00000000001d0690 d __ZGVN5godot11ButtonGroup37_gde_engine_class_registration_helperE
00000000001d0708 d __ZGVN5godot11CanvasLayer37_gde_engine_class_registration_helperE
00000000001d0d30 d __ZGVN5godot11Node3DGizmo37_gde_engine_class_registration_helperE
00000000001d0498 d __ZGVN5godot11PackedScene37_gde_engine_class_registration_helperE
00000000001d0448 d __ZGVN5godot11SurfaceTool37_gde_engine_class_registration_helperE
00000000001d0b58 d __ZGVN5godot12TriangleMesh37_gde_engine_class_registration_helperE
00000000001d08f0 d __ZGVN5godot13DisplayServer37_gde_engine_class_registration_helperE
00000000001d04c8 d __ZGVN5godot13FastNoiseLite37_gde_engine_class_registration_helperE
00000000001d04f8 d __ZGVN5godot13PrimitiveMesh37_gde_engine_class_registration_helperE
00000000001d0bc8 d __ZGVN5godot13SkinReference37_gde_engine_class_registration_helperE
00000000001d0488 d __ZGVN5godot14MeshInstance3D37_gde_engine_class_registration_helperE
00000000001d0c10 d __ZGVN5godot14MultiplayerAPI37_gde_engine_class_registration_helperE
00000000001d04a8 d __ZGVN5godot14ResourceLoader37_gde_engine_class_registration_helperE
00000000001d09f8 d __ZGVN5godot14ScriptLanguage37_gde_engine_class_registration_helperE
00000000001d04d8 d __ZGVN5godot14ShaderMaterial37_gde_engine_class_registration_helperE
00000000001d0208 d __ZGVN5godot16ClassDBSingleton37_gde_engine_class_registration_helperE
00000000001d0458 d __ZGVN5godot16VisualInstance3D37_gde_engine_class_registration_helperE
00000000001d0468 d __ZGVN5godot18GeometryInstance3D37_gde_engine_class_registration_helperE
00000000001d0b48 d __ZGVN5godot20ConvexPolygonShape3D37_gde_engine_class_registration_helperE
00000000001d0e58 d __ZGVN5godot20ResourceFormatLoader37_gde_engine_class_registration_helperE
00000000001d0b38 d __ZGVN5godot21ConcavePolygonShape3D37_gde_engine_class_registration_helperE
00000000001d0478 d __ZGVN5godot31MeshConvexDecompositionSettings37_gde_engine_class_registration_helperE
00000000001d0718 d __ZGVN5godot4Font37_gde_engine_class_registration_helperE
00000000001d0428 d __ZGVN5godot4Mesh37_gde_engine_class_registration_helperE
00000000001d0258 d __ZGVN5godot4Node37_gde_engine_class_registration_helperE
00000000001d0bb8 d __ZGVN5godot4Skin37_gde_engine_class_registration_helperE
00000000001d0900 d __ZGVN5godot5Image37_gde_engine_class_registration_helperE
00000000001d0418 d __ZGVN5godot5Input37_gde_engine_class_registration_helperE
00000000001d04b8 d __ZGVN5godot5Noise37_gde_engine_class_registration_helperE
00000000001d0848 d __ZGVN5godot5Theme37_gde_engine_class_registration_helperE
00000000001d0c30 d __ZGVN5godot5Tween37_gde_engine_class_registration_helperE
00000000001d02d8 d __ZGVN5godot6Button37_gde_engine_class_registration_helperE
00000000001d0408 d __ZGVN5godot6Engine37_gde_engine_class_registration_helperE
00000000001d0268 d __ZGVN5godot6Node3D37_gde_engine_class_registration_helperE
00000000001d01f8 d __ZGVN5godot6Object37_gde_engine_class_registration_helperE
00000000001d0238 d __ZGVN5godot6Shader37_gde_engine_class_registration_helperE
00000000001d0c50 d __ZGVN5godot6Window37_gde_engine_class_registration_helperE
00000000001d0508 d __ZGVN5godot7BoxMesh37_gde_engine_class_registration_helperE
00000000001d02b8 d __ZGVN5godot7Control37_gde_engine_class_registration_helperE
00000000001d0b28 d __ZGVN5godot7Shape3D37_gde_engine_class_registration_helperE
00000000001d0288 d __ZGVN5godot7Texture37_gde_engine_class_registration_helperE
00000000001d0758 d __ZGVN5godot7World2D37_gde_engine_class_registration_helperE
00000000001d0d40 d __ZGVN5godot7World3D37_gde_engine_class_registration_helperE
00000000001d09e8 d __ZGVN5godot8MainLoop37_gde_engine_class_registration_helperE
00000000001d0248 d __ZGVN5godot8Material37_gde_engine_class_registration_helperE
00000000001d0228 d __ZGVN5godot8Resource37_gde_engine_class_registration_helperE
00000000001d06a0 d __ZGVN5godot8Shortcut37_gde_engine_class_registration_helperE
00000000001d0748 d __ZGVN5godot8StyleBox37_gde_engine_class_registration_helperE
00000000001d0c40 d __ZGVN5godot8Viewport37_gde_engine_class_registration_helperE
00000000001d0438 d __ZGVN5godot9ArrayMesh37_gde_engine_class_registration_helperE
00000000001d0738 d __ZGVN5godot9MultiMesh37_gde_engine_class_registration_helperE
00000000001d0c20 d __ZGVN5godot9SceneTree37_gde_engine_class_registration_helperE
00000000001d0298 d __ZGVN5godot9Texture2D37_gde_engine_class_registration_helperE
00000000001d03d8 d __ZGVZN13MinecraftNode16get_class_staticEvE11string_name
00000000001d11c0 b __ZGVZN5godot10BaseButton11set_pressedEbE16_gde_method_bind
00000000001d1240 b __ZGVZN5godot10BaseButton12set_disabledEbE16_gde_method_bind
00000000001d12f0 b __ZGVZN5godot10BaseButton12set_shortcutERKNS_3RefINS_8ShortcutEEEE16_gde_method_bind
00000000001d1260 b __ZGVZN5godot10BaseButton15set_action_modeENS0_10ActionModeEE16_gde_method_bind
00000000001d1280 b __ZGVZN5godot10BaseButton15set_button_maskENS_8BitFieldINS_15MouseButtonMaskEEEE16_gde_method_bind
00000000001d1200 b __ZGVZN5godot10BaseButton15set_toggle_modeEbE16_gde_method_bind
00000000001d03b8 d __ZGVZN5godot10BaseButton16get_class_staticEvE11string_name
00000000001d1310 b __ZGVZN5godot10BaseButton16set_button_groupERKNS_3RefINS_11ButtonGroupEEEE16_gde_method_bind
00000000001d11e0 b __ZGVZN5godot10BaseButton21set_pressed_no_signalEbE16_gde_method_bind
00000000001d12d0 b __ZGVZN5godot10BaseButton21set_shortcut_feedbackEbE16_gde_method_bind
00000000001d1220 b __ZGVZN5godot10BaseButton23set_shortcut_in_tooltipEbE16_gde_method_bind
00000000001d12b0 b __ZGVZN5godot10BaseButton24set_keep_pressed_outsideEbE16_gde_method_bind
00000000001d1730 b __ZGVZN5godot10CanvasItem11draw_circleERKNS_7Vector2EfRKNS_5ColorEbfbE16_gde_method_bind
00000000001d1540 b __ZGVZN5godot10CanvasItem11set_visibleEbE16_gde_method_bind
00000000001d1630 b __ZGVZN5godot10CanvasItem11set_z_indexEiE16_gde_method_bind
00000000001d17b0 b __ZGVZN5godot10CanvasItem12draw_polygonERKNS_18PackedVector2ArrayERKNS_16PackedColorArrayES3_RKNS_3RefINS_9Texture2DEEEE16_gde_method_bind
00000000001d1740 b __ZGVZN5godot10CanvasItem12draw_textureERKNS_3RefINS_9Texture2DEEERKNS_7Vector2ERKNS_5ColorEE16_gde_method_bind
00000000001d1590 b __ZGVZN5godot10CanvasItem12queue_redrawEvE16_gde_method_bind
00000000001d1950 b __ZGVZN5godot10CanvasItem12set_materialERKNS_3RefINS_8MaterialEEEE16_gde_method_bind
00000000001d15f0 b __ZGVZN5godot10CanvasItem12set_modulateERKNS_5ColorEE16_gde_method_bind
00000000001d16d0 b __ZGVZN5godot10CanvasItem13draw_polylineERKNS_18PackedVector2ArrayERKNS_5ColorEfbE16_gde_method_bind
00000000001d15a0 b __ZGVZN5godot10CanvasItem13move_to_frontEvE16_gde_method_bind
00000000001d1700 b __ZGVZN5godot10CanvasItem14draw_multilineERKNS_18PackedVector2ArrayERKNS_5ColorEfbE16_gde_method_bind
00000000001d1840 b __ZGVZN5godot10CanvasItem14draw_multimeshERKNS_3RefINS_9MultiMeshEEERKNS1_INS_9Texture2DEEEE16_gde_method_bind
00000000001d17a0 b __ZGVZN5godot10CanvasItem14draw_primitiveERKNS_18PackedVector2ArrayERKNS_16PackedColorArrayES3_RKNS_3RefINS_9Texture2DEEEE16_gde_method_bind
00000000001d1790 b __ZGVZN5godot10CanvasItem14draw_style_boxERKNS_3RefINS_8StyleBoxEEERKNS_5Rect2EE16_gde_method_bind
00000000001d15d0 b __ZGVZN5godot10CanvasItem14set_light_maskEiE16_gde_method_bind
00000000001d16c0 b __ZGVZN5godot10CanvasItem16draw_dashed_lineERKNS_7Vector2ES3_RKNS_5ColorEffbbE16_gde_method_bind
00000000001d0398 d __ZGVZN5godot10CanvasItem16get_class_staticEvE11string_name
00000000001d15b0 b __ZGVZN5godot10CanvasItem16set_as_top_levelEbE16_gde_method_bind
00000000001d1750 b __ZGVZN5godot10CanvasItem17draw_texture_rectERKNS_3RefINS_9Texture2DEEERKNS_5Rect2EbRKNS_5ColorEbE16_gde_method_bind
00000000001d1610 b __ZGVZN5godot10CanvasItem17set_self_modulateERKNS_5ColorEE16_gde_method_bind
00000000001d1650 b __ZGVZN5godot10CanvasItem17set_z_as_relativeEbE16_gde_method_bind
00000000001d1880 b __ZGVZN5godot10CanvasItem18draw_end_animationEvE16_gde_method_bind
00000000001d1850 b __ZGVZN5godot10CanvasItem18draw_set_transformERKNS_7Vector2EfS3_E16_gde_method_bind
00000000001d1a60 b __ZGVZN5godot10CanvasItem18set_texture_filterENS0_13TextureFilterEE16_gde_method_bind
00000000001d1a80 b __ZGVZN5godot10CanvasItem18set_texture_repeatENS0_13TextureRepeatEE16_gde_method_bind
00000000001d1670 b __ZGVZN5godot10CanvasItem18set_y_sort_enabledEbE16_gde_method_bind
00000000001d1870 b __ZGVZN5godot10CanvasItem20draw_animation_sliceEddddE16_gde_method_bind
00000000001d17c0 b __ZGVZN5godot10CanvasItem20draw_colored_polygonERKNS_18PackedVector2ArrayERKNS_5ColorES3_RKNS_3RefINS_9Texture2DEEEE16_gde_method_bind
00000000001d16e0 b __ZGVZN5godot10CanvasItem20draw_polyline_colorsERKNS_18PackedVector2ArrayERKNS_16PackedColorArrayEfbE16_gde_method_bind
00000000001d19d0 b __ZGVZN5godot10CanvasItem20set_notify_transformEbE16_gde_method_bind
00000000001d1a20 b __ZGVZN5godot10CanvasItem20set_visibility_layerEjE16_gde_method_bind
00000000001d1710 b __ZGVZN5godot10CanvasItem21draw_multiline_colorsERKNS_18PackedVector2ArrayERKNS_16PackedColorArrayEfbE16_gde_method_bind
00000000001d19f0 b __ZGVZN5godot10CanvasItem22force_update_transformEvE16_gde_method_bind
00000000001d1aa0 b __ZGVZN5godot10CanvasItem22set_clip_children_modeENS0_16ClipChildrenModeEE16_gde_method_bind
00000000001d1690 b __ZGVZN5godot10CanvasItem22set_draw_behind_parentEbE16_gde_method_bind
00000000001d1990 b __ZGVZN5godot10CanvasItem23set_use_parent_materialEbE16_gde_method_bind
00000000001d1760 b __ZGVZN5godot10CanvasItem24draw_texture_rect_regionERKNS_3RefINS_9Texture2DEEERKNS_5Rect2ES8_RKNS_5ColorEbbE16_gde_method_bind
00000000001d1a40 b __ZGVZN5godot10CanvasItem24set_visibility_layer_bitEjbE16_gde_method_bind
00000000001d1860 b __ZGVZN5godot10CanvasItem25draw_set_transform_matrixERKNS_11Transform2DEE16_gde_method_bind
00000000001d19b0 b __ZGVZN5godot10CanvasItem26set_notify_local_transformEbE16_gde_method_bind
00000000001d1780 b __ZGVZN5godot10CanvasItem28draw_lcd_texture_rect_regionERKNS_3RefINS_9Texture2DEEERKNS_5Rect2ES8_RKNS_5ColorEE16_gde_method_bind
00000000001d1770 b __ZGVZN5godot10CanvasItem29draw_msdf_texture_rect_regionERKNS_3RefINS_9Texture2DEEERKNS_5Rect2ES8_RKNS_5ColorEdddE16_gde_method_bind
00000000001d1970 b __ZGVZN5godot10CanvasItem29set_instance_shader_parameterERKNS_10StringNameERKNS_7VariantEE16_gde_method_bind
00000000001d1580 b __ZGVZN5godot10CanvasItem4hideEvE16_gde_method_bind
00000000001d1570 b __ZGVZN5godot10CanvasItem4showEvE16_gde_method_bind
00000000001d16f0 b __ZGVZN5godot10CanvasItem8draw_arcERKNS_7Vector2EfffiRKNS_5ColorEfbE16_gde_method_bind
00000000001d16b0 b __ZGVZN5godot10CanvasItem9draw_lineERKNS_7Vector2ES3_RKNS_5ColorEfbE16_gde_method_bind
00000000001d1830 b __ZGVZN5godot10CanvasItem9draw_meshERKNS_3RefINS_4MeshEEERKNS1_INS_9Texture2DEEERKNS_11Transform2DERKNS_5ColorEE16_gde_method_bind
00000000001d1720 b __ZGVZN5godot10CanvasItem9draw_rectERKNS_5Rect2ERKNS_5ColorEbfbE16_gde_method_bind
00000000001d37b0 b __ZGVZN5godot10FileAccess10get_sha256ERKNS_6StringEE16_gde_method_bind
00000000001d3840 b __ZGVZN5godot10FileAccess10store_halfEfE16_gde_method_bind
00000000001d3890 b __ZGVZN5godot10FileAccess10store_lineERKNS_6StringEE16_gde_method_bind
00000000001d3870 b __ZGVZN5godot10FileAccess10store_realEfE16_gde_method_bind
00000000001d3610 b __ZGVZN5godot10FileAccess11create_tempEiRKNS_6StringES3_bE16_gde_method_bind
00000000001d3900 b __ZGVZN5godot10FileAccess11file_existsERKNS_6StringEE16_gde_method_bind
00000000001d3850 b __ZGVZN5godot10FileAccess11store_floatEfE16_gde_method_bind
00000000001d3880 b __ZGVZN5godot10FileAccess12store_bufferERKNS_15PackedByteArrayEE16_gde_method_bind
00000000001d3860 b __ZGVZN5godot10FileAccess12store_doubleEdE16_gde_method_bind
00000000001d38b0 b __ZGVZN5godot10FileAccess12store_stringERKNS_6StringEE16_gde_method_bind
00000000001d3600 b __ZGVZN5godot10FileAccess14get_open_errorEvE16_gde_method_bind
00000000001d35d0 b __ZGVZN5godot10FileAccess14open_encryptedERKNS_6StringENS0_9ModeFlagsERKNS_15PackedByteArrayES7_E16_gde_method_bind
00000000001d37d0 b __ZGVZN5godot10FileAccess14set_big_endianEbE16_gde_method_bind
00000000001d38a0 b __ZGVZN5godot10FileAccess14store_csv_lineERKNS_17PackedStringArrayERKNS_6StringEE16_gde_method_bind
00000000001d35f0 b __ZGVZN5godot10FileAccess15open_compressedERKNS_6StringENS0_9ModeFlagsENS0_15CompressionModeEE16_gde_method_bind
00000000001d05f8 d __ZGVZN5godot10FileAccess16get_class_staticEvE11string_name
00000000001d3620 b __ZGVZN5godot10FileAccess17get_file_as_bytesERKNS_6StringEE16_gde_method_bind
00000000001d3910 b __ZGVZN5godot10FileAccess17get_modified_timeERKNS_6StringEE16_gde_method_bind
00000000001d38e0 b __ZGVZN5godot10FileAccess17get_pascal_stringEvE16_gde_method_bind
00000000001d3630 b __ZGVZN5godot10FileAccess18get_file_as_stringERKNS_6StringEE16_gde_method_bind
00000000001d38d0 b __ZGVZN5godot10FileAccess19store_pascal_stringERKNS_6StringEE16_gde_method_bind
00000000001d3940 b __ZGVZN5godot10FileAccess20get_hidden_attributeERKNS_6StringEE16_gde_method_bind
00000000001d3920 b __ZGVZN5godot10FileAccess20get_unix_permissionsERKNS_6StringEE16_gde_method_bind
00000000001d3950 b __ZGVZN5godot10FileAccess20set_hidden_attributeERKNS_6StringEbE16_gde_method_bind
00000000001d3930 b __ZGVZN5godot10FileAccess20set_unix_permissionsERKNS_6StringENS_8BitFieldINS0_19UnixPermissionFlagsEEEE16_gde_method_bind
00000000001d3970 b __ZGVZN5godot10FileAccess23get_read_only_attributeERKNS_6StringEE16_gde_method_bind
00000000001d3960 b __ZGVZN5godot10FileAccess23set_read_only_attributeERKNS_6StringEbE16_gde_method_bind
00000000001d35e0 b __ZGVZN5godot10FileAccess24open_encrypted_with_passERKNS_6StringENS0_9ModeFlagsES3_E16_gde_method_bind
00000000001d35c0 b __ZGVZN5godot10FileAccess4openERKNS_6StringENS0_9ModeFlagsEE16_gde_method_bind
00000000001d3690 b __ZGVZN5godot10FileAccess4seekEyE16_gde_method_bind
00000000001d38f0 b __ZGVZN5godot10FileAccess5closeEvE16_gde_method_bind
00000000001d3650 b __ZGVZN5godot10FileAccess5flushEvE16_gde_method_bind
00000000001d3640 b __ZGVZN5godot10FileAccess6resizeExE16_gde_method_bind
00000000001d37a0 b __ZGVZN5godot10FileAccess7get_md5ERKNS_6StringEE16_gde_method_bind
00000000001d3800 b __ZGVZN5godot10FileAccess7store_8EhE16_gde_method_bind
00000000001d36a0 b __ZGVZN5godot10FileAccess8seek_endExE16_gde_method_bind
00000000001d3810 b __ZGVZN5godot10FileAccess8store_16EtE16_gde_method_bind
00000000001d3820 b __ZGVZN5godot10FileAccess8store_32EjE16_gde_method_bind
00000000001d3830 b __ZGVZN5godot10FileAccess8store_64EyE16_gde_method_bind
00000000001d38c0 b __ZGVZN5godot10FileAccess9store_varERKNS_7VariantEbE16_gde_method_bind
00000000001d07e8 d __ZGVZN5godot10InputEvent16get_class_staticEvE11string_name
00000000001d5210 b __ZGVZN5godot10RefCounted11unreferenceEvE16_gde_method_bind
00000000001d0308 d __ZGVZN5godot10RefCounted16get_class_staticEvE11string_name
00000000001d51f0 b __ZGVZN5godot10RefCounted8init_refEvE16_gde_method_bind
00000000001d5200 b __ZGVZN5godot10RefCounted9referenceEvE16_gde_method_bind
00000000001d0e18 d __ZGVZN5godot10SceneState16get_class_staticEvE11string_name
00000000001d0368 d __ZGVZN5godot10TextServer16get_class_staticEvE11string_name
00000000001d06c8 d __ZGVZN5godot11ButtonGroup16get_class_staticEvE11string_name
00000000001d07c8 d __ZGVZN5godot11CanvasLayer16get_class_staticEvE11string_name
00000000001d0d98 d __ZGVZN5godot11Node3DGizmo16get_class_staticEvE11string_name
00000000001d05a8 d __ZGVZN5godot11PackedScene16get_class_staticEvE11string_name
00000000001d50f0 b __ZGVZN5godot11PackedScene4packEPNS_4NodeEE16_gde_method_bind
00000000001d0558 d __ZGVZN5godot11SurfaceTool16get_class_staticEvE11string_name
00000000001d0ba8 d __ZGVZN5godot12TriangleMesh16get_class_staticEvE11string_name
00000000001d2860 b __ZGVZN5godot13DisplayServer10tts_resumeEvE16_gde_method_bind
00000000001d2900 b __ZGVZN5godot13DisplayServer10warp_mouseERKNS_8Vector2iEE16_gde_method_bind
00000000001d2ea0 b __ZGVZN5godot13DisplayServer11dialog_showERKNS_6StringES3_RKNS_17PackedStringArrayERKNS_8CallableEE16_gde_method_bind
00000000001d2930 b __ZGVZN5godot13DisplayServer13clipboard_setERKNS_6StringEE16_gde_method_bind
00000000001d28e0 b __ZGVZN5godot13DisplayServer14mouse_set_modeENS0_9MouseModeEE16_gde_method_bind
00000000001d2f70 b __ZGVZN5godot13DisplayServer14process_eventsEvE16_gde_method_bind
00000000001d2f90 b __ZGVZN5godot13DisplayServer15set_native_iconERKNS_6StringEE16_gde_method_bind
00000000001d2cc0 b __ZGVZN5godot13DisplayServer15window_set_flagENS0_11WindowFlagsEbiE16_gde_method_bind
00000000001d2cb0 b __ZGVZN5godot13DisplayServer15window_set_modeENS0_10WindowModeEiE16_gde_method_bind
00000000001d2be0 b __ZGVZN5godot13DisplayServer15window_set_sizeERKNS_8Vector2iEiE16_gde_method_bind
00000000001d2e50 b __ZGVZN5godot13DisplayServer16cursor_set_shapeENS0_11CursorShapeEE16_gde_method_bind
00000000001d2ec0 b __ZGVZN5godot13DisplayServer16file_dialog_showERKNS_6StringES3_S3_bNS0_14FileDialogModeERKNS_17PackedStringArrayERKNS_8CallableEE16_gde_method_bind
00000000001d09c8 d __ZGVZN5godot13DisplayServer16get_class_staticEvE11string_name
00000000001d2b50 b __ZGVZN5godot13DisplayServer16window_set_titleERKNS_6StringEiE16_gde_method_bind
00000000001d2eb0 b __ZGVZN5godot13DisplayServer17dialog_input_textERKNS_6StringES3_S3_RKNS_8CallableEE16_gde_method_bind
00000000001d27e0 b __ZGVZN5godot13DisplayServer17global_menu_clearERKNS_6StringEE16_gde_method_bind
00000000001d2dd0 b __ZGVZN5godot13DisplayServer17window_start_dragEiE16_gde_method_bind
00000000001d2e80 b __ZGVZN5godot13DisplayServer18get_swap_cancel_okEvE16_gde_method_bind
00000000001d2ad0 b __ZGVZN5godot13DisplayServer18screen_set_keep_onEbE16_gde_method_bind
00000000001d2c60 b __ZGVZN5godot13DisplayServer19window_set_max_sizeERKNS_8Vector2iEiE16_gde_method_bind
00000000001d2c80 b __ZGVZN5godot13DisplayServer19window_set_min_sizeERKNS_8Vector2iEiE16_gde_method_bind
00000000001d2bc0 b __ZGVZN5godot13DisplayServer19window_set_positionERKNS_8Vector2iEiE16_gde_method_bind
00000000001d2de0 b __ZGVZN5godot13DisplayServer19window_start_resizeENS0_16WindowResizeEdgeEiE16_gde_method_bind
00000000001d2510 b __ZGVZN5godot13DisplayServer20global_menu_add_itemERKNS_6StringES3_RKNS_8CallableES6_RKNS_7VariantENS_3KeyEiE16_gde_method_bind
00000000001d2d50 b __ZGVZN5godot13DisplayServer20window_set_exclusiveEibE16_gde_method_bind
00000000001d2d40 b __ZGVZN5godot13DisplayServer20window_set_transientEiiE16_gde_method_bind
00000000001d2980 b __ZGVZN5godot13DisplayServer21clipboard_set_primaryERKNS_6StringEE16_gde_method_bind
00000000001d2e20 b __ZGVZN5godot13DisplayServer21virtual_keyboard_hideEvE16_gde_method_bind
00000000001d2e10 b __ZGVZN5godot13DisplayServer21virtual_keyboard_showERKNS_6StringERKNS_5Rect2ENS0_19VirtualKeyboardTypeEiiiE16_gde_method_bind
00000000001d2d60 b __ZGVZN5godot13DisplayServer21window_set_ime_activeEbiE16_gde_method_bind
00000000001d2d80 b __ZGVZN5godot13DisplayServer21window_set_vsync_modeENS0_9VSyncModeEiE16_gde_method_bind
00000000001d2ab0 b __ZGVZN5godot13DisplayServer22screen_set_orientationENS0_17ScreenOrientationEiE16_gde_method_bind
00000000001d2fb0 b __ZGVZN5godot13DisplayServer23create_status_indicatorERKNS_3RefINS_9Texture2DEEERKNS_6StringERKNS_8CallableEE16_gde_method_bind
00000000001d2e70 b __ZGVZN5godot13DisplayServer23cursor_set_custom_imageERKNS_3RefINS_8ResourceEEENS0_11CursorShapeERKNS_7Vector2EE16_gde_method_bind
00000000001d3010 b __ZGVZN5godot13DisplayServer23delete_status_indicatorEiE16_gde_method_bind
00000000001d27d0 b __ZGVZN5godot13DisplayServer23global_menu_remove_itemERKNS_6StringEiE16_gde_method_bind
00000000001d2d70 b __ZGVZN5godot13DisplayServer23window_set_ime_positionERKNS_8Vector2iEiE16_gde_method_bind
00000000001d2710 b __ZGVZN5godot13DisplayServer24global_menu_set_item_tagERKNS_6StringEiRKNS_7VariantEE16_gde_method_bind
00000000001d2d00 b __ZGVZN5godot13DisplayServer24window_request_attentionEiE16_gde_method_bind
00000000001d2e90 b __ZGVZN5godot13DisplayServer25enable_for_stealing_focusExE16_gde_method_bind
00000000001d2530 b __ZGVZN5godot13DisplayServer25global_menu_add_icon_itemERKNS_6StringERKNS_3RefINS_9Texture2DEEES3_RKNS_8CallableESB_RKNS_7VariantENS_3KeyEiE16_gde_method_bind
00000000001d2580 b __ZGVZN5godot13DisplayServer25global_menu_add_separatorERKNS_6StringEiE16_gde_method_bind
00000000001d27a0 b __ZGVZN5godot13DisplayServer25global_menu_set_item_iconERKNS_6StringEiRKNS_3RefINS_9Texture2DEEEE16_gde_method_bind
00000000001d2720 b __ZGVZN5godot13DisplayServer25global_menu_set_item_textERKNS_6StringEiS3_E16_gde_method_bind
00000000001d24e0 b __ZGVZN5godot13DisplayServer25help_set_search_callbacksERKNS_8CallableES3_E16_gde_method_bind
00000000001d2fc0 b __ZGVZN5godot13DisplayServer25status_indicator_set_iconEiRKNS_3RefINS_9Texture2DEEEE16_gde_method_bind
00000000001d2fe0 b __ZGVZN5godot13DisplayServer25status_indicator_set_menuEiRKNS_3RIDEE16_gde_method_bind
00000000001d3050 b __ZGVZN5godot13DisplayServer25tablet_set_current_driverERKNS_6StringEE16_gde_method_bind
00000000001d2d10 b __ZGVZN5godot13DisplayServer25window_move_to_foregroundEiE16_gde_method_bind
00000000001d2b90 b __ZGVZN5godot13DisplayServer25window_set_current_screenEiiE16_gde_method_bind
00000000001d2520 b __ZGVZN5godot13DisplayServer26global_menu_add_check_itemERKNS_6StringES3_RKNS_8CallableES6_RKNS_7VariantENS_3KeyEiE16_gde_method_bind
00000000001d2780 b __ZGVZN5godot13DisplayServer26global_menu_set_item_stateERKNS_6StringEiiE16_gde_method_bind
00000000001d3070 b __ZGVZN5godot13DisplayServer26register_additional_outputEPNS_6ObjectEE16_gde_method_bind
00000000001d2880 b __ZGVZN5godot13DisplayServer26tts_set_utterance_callbackENS0_17TTSUtteranceEventERKNS_8CallableEE16_gde_method_bind
00000000001d2b30 b __ZGVZN5godot13DisplayServer26window_set_popup_safe_rectEiRKNS_6Rect2iEE16_gde_method_bind
00000000001d2760 b __ZGVZN5godot13DisplayServer27global_menu_set_item_hiddenERKNS_6StringEibE16_gde_method_bind
00000000001d2f10 b __ZGVZN5godot13DisplayServer27keyboard_set_current_layoutEiE16_gde_method_bind
00000000001d2500 b __ZGVZN5godot13DisplayServer28global_menu_add_submenu_itemERKNS_6StringES3_S3_iE16_gde_method_bind
00000000001d26b0 b __ZGVZN5godot13DisplayServer28global_menu_set_item_checkedERKNS_6StringEibE16_gde_method_bind
00000000001d2730 b __ZGVZN5godot13DisplayServer28global_menu_set_item_submenuERKNS_6StringEiS3_E16_gde_method_bind
00000000001d2770 b __ZGVZN5godot13DisplayServer28global_menu_set_item_tooltipERKNS_6StringEiS3_E16_gde_method_bind
00000000001d2fd0 b __ZGVZN5godot13DisplayServer28status_indicator_set_tooltipEiRKNS_6StringEE16_gde_method_bind
00000000001d3080 b __ZGVZN5godot13DisplayServer28unregister_additional_outputEPNS_6ObjectEE16_gde_method_bind
00000000001d2b70 b __ZGVZN5godot13DisplayServer28window_set_mouse_passthroughERKNS_18PackedVector2ArrayEiE16_gde_method_bind
00000000001d2ed0 b __ZGVZN5godot13DisplayServer29file_dialog_with_options_showERKNS_6StringES3_S3_S3_bNS0_14FileDialogModeERKNS_17PackedStringArrayERKNS_10TypedArrayINS_10DictionaryEEERKNS_8CallableEE16_gde_method_bind
00000000001d2f80 b __ZGVZN5godot13DisplayServer29force_process_and_drop_eventsEvE16_gde_method_bind
00000000001d26e0 b __ZGVZN5godot13DisplayServer29global_menu_set_item_callbackERKNS_6StringEiRKNS_8CallableEE16_gde_method_bind
00000000001d2750 b __ZGVZN5godot13DisplayServer29global_menu_set_item_disabledERKNS_6StringEibE16_gde_method_bind
00000000001d2ff0 b __ZGVZN5godot13DisplayServer29status_indicator_set_callbackEiRKNS_8CallableEE16_gde_method_bind
00000000001d26c0 b __ZGVZN5godot13DisplayServer30global_menu_set_item_checkableERKNS_6StringEibE16_gde_method_bind
00000000001d2c30 b __ZGVZN5godot13DisplayServer30window_set_drop_files_callbackERKNS_8CallableEiE16_gde_method_bind
00000000001d2c20 b __ZGVZN5godot13DisplayServer30window_set_input_text_callbackERKNS_8CallableEiE16_gde_method_bind
00000000001d2540 b __ZGVZN5godot13DisplayServer31global_menu_add_icon_check_itemERKNS_6StringERKNS_3RefINS_9Texture2DEEES3_RKNS_8CallableESB_RKNS_7VariantENS_3KeyEiE16_gde_method_bind
00000000001d2570 b __ZGVZN5godot13DisplayServer31global_menu_add_multistate_itemERKNS_6StringES3_iiRKNS_8CallableES6_RKNS_7VariantENS_3KeyEiE16_gde_method_bind
00000000001d2790 b __ZGVZN5godot13DisplayServer31global_menu_set_item_max_statesERKNS_6StringEiiE16_gde_method_bind
00000000001d24f0 b __ZGVZN5godot13DisplayServer31global_menu_set_popup_callbacksERKNS_6StringERKNS_8CallableES6_E16_gde_method_bind
00000000001d2c10 b __ZGVZN5godot13DisplayServer31window_set_input_event_callbackERKNS_8CallableEiE16_gde_method_bind
00000000001d2550 b __ZGVZN5godot13DisplayServer32global_menu_add_radio_check_itemERKNS_6StringES3_RKNS_8CallableES6_RKNS_7VariantENS_3KeyEiE16_gde_method_bind
00000000001d2740 b __ZGVZN5godot13DisplayServer32global_menu_set_item_acceleratorERKNS_6StringEiNS_3KeyEE16_gde_method_bind
00000000001d28d0 b __ZGVZN5godot13DisplayServer32set_system_theme_change_callbackERKNS_8CallableEE16_gde_method_bind
00000000001d2bf0 b __ZGVZN5godot13DisplayServer32window_set_rect_changed_callbackERKNS_8CallableEiE16_gde_method_bind
00000000001d2ce0 b __ZGVZN5godot13DisplayServer32window_set_window_buttons_offsetERKNS_8Vector2iEiE16_gde_method_bind
00000000001d2c00 b __ZGVZN5godot13DisplayServer32window_set_window_event_callbackERKNS_8CallableEiE16_gde_method_bind
00000000001d2700 b __ZGVZN5godot13DisplayServer33global_menu_set_item_key_callbackERKNS_6StringEiRKNS_8CallableEE16_gde_method_bind
00000000001d26f0 b __ZGVZN5godot13DisplayServer36global_menu_set_item_hover_callbacksERKNS_6StringEiRKNS_8CallableEE16_gde_method_bind
00000000001d26d0 b __ZGVZN5godot13DisplayServer36global_menu_set_item_radio_checkableERKNS_6StringEibE16_gde_method_bind
00000000001d2560 b __ZGVZN5godot13DisplayServer37global_menu_add_icon_radio_check_itemERKNS_6StringERKNS_3RefINS_9Texture2DEEES3_RKNS_8CallableESB_RKNS_7VariantENS_3KeyEiE16_gde_method_bind
00000000001d27b0 b __ZGVZN5godot13DisplayServer38global_menu_set_item_indentation_levelERKNS_6StringEiiE16_gde_method_bind
00000000001d2fa0 b __ZGVZN5godot13DisplayServer8set_iconERKNS_3RefINS_5ImageEEEE16_gde_method_bind
00000000001d2870 b __ZGVZN5godot13DisplayServer8tts_stopEvE16_gde_method_bind
00000000001d2850 b __ZGVZN5godot13DisplayServer9tts_pauseEvE16_gde_method_bind
00000000001d2840 b __ZGVZN5godot13DisplayServer9tts_speakERKNS_6StringES3_iffibE16_gde_method_bind
00000000001d3380 b __ZGVZN5godot13FastNoiseLite10set_offsetERKNS_7Vector3EE16_gde_method_bind
00000000001d3360 b __ZGVZN5godot13FastNoiseLite13set_frequencyEfE16_gde_method_bind
00000000001d3320 b __ZGVZN5godot13FastNoiseLite14set_noise_typeENS0_9NoiseTypeEE16_gde_method_bind
00000000001d05d8 d __ZGVZN5godot13FastNoiseLite16get_class_staticEvE11string_name
00000000001d3400 b __ZGVZN5godot13FastNoiseLite16set_fractal_gainEfE16_gde_method_bind
00000000001d33a0 b __ZGVZN5godot13FastNoiseLite16set_fractal_typeENS0_11FractalTypeEE16_gde_method_bind
00000000001d3480 b __ZGVZN5godot13FastNoiseLite19set_cellular_jitterEfE16_gde_method_bind
00000000001d33c0 b __ZGVZN5godot13FastNoiseLite19set_fractal_octavesEiE16_gde_method_bind
00000000001d34e0 b __ZGVZN5godot13FastNoiseLite20set_domain_warp_typeENS0_14DomainWarpTypeEE16_gde_method_bind
00000000001d33e0 b __ZGVZN5godot13FastNoiseLite22set_fractal_lacunarityEfE16_gde_method_bind
00000000001d34c0 b __ZGVZN5godot13FastNoiseLite23set_domain_warp_enabledEbE16_gde_method_bind
00000000001d34a0 b __ZGVZN5godot13FastNoiseLite24set_cellular_return_typeENS0_18CellularReturnTypeEE16_gde_method_bind
00000000001d3500 b __ZGVZN5godot13FastNoiseLite25set_domain_warp_amplitudeEfE16_gde_method_bind
00000000001d3520 b __ZGVZN5godot13FastNoiseLite25set_domain_warp_frequencyEfE16_gde_method_bind
00000000001d35a0 b __ZGVZN5godot13FastNoiseLite28set_domain_warp_fractal_gainEfE16_gde_method_bind
00000000001d3540 b __ZGVZN5godot13FastNoiseLite28set_domain_warp_fractal_typeENS0_21DomainWarpFractalTypeEE16_gde_method_bind
00000000001d3420 b __ZGVZN5godot13FastNoiseLite29set_fractal_weighted_strengthEfE16_gde_method_bind
00000000001d3460 b __ZGVZN5godot13FastNoiseLite30set_cellular_distance_functionENS0_24CellularDistanceFunctionEE16_gde_method_bind
00000000001d3440 b __ZGVZN5godot13FastNoiseLite30set_fractal_ping_pong_strengthEfE16_gde_method_bind
00000000001d3560 b __ZGVZN5godot13FastNoiseLite31set_domain_warp_fractal_octavesEiE16_gde_method_bind
00000000001d3580 b __ZGVZN5godot13FastNoiseLite34set_domain_warp_fractal_lacunarityEfE16_gde_method_bind
00000000001d3340 b __ZGVZN5godot13FastNoiseLite8set_seedEiE16_gde_method_bind
00000000001d51a0 b __ZGVZN5godot13PrimitiveMesh11set_add_uv2EbE16_gde_method_bind
00000000001d5130 b __ZGVZN5godot13PrimitiveMesh12set_materialERKNS_3RefINS_8MaterialEEEE16_gde_method_bind
00000000001d51e0 b __ZGVZN5godot13PrimitiveMesh14request_updateEvE16_gde_method_bind
00000000001d5180 b __ZGVZN5godot13PrimitiveMesh14set_flip_facesEbE16_gde_method_bind
00000000001d5160 b __ZGVZN5godot13PrimitiveMesh15set_custom_aabbERKNS_4AABBEE16_gde_method_bind
00000000001d51c0 b __ZGVZN5godot13PrimitiveMesh15set_uv2_paddingEfE16_gde_method_bind
00000000001d0608 d __ZGVZN5godot13PrimitiveMesh16get_class_staticEvE11string_name
00000000001d0c00 d __ZGVZN5godot13SkinReference16get_class_staticEvE11string_name
00000000001d0598 d __ZGVZN5godot14MeshInstance3D16get_class_staticEvE11string_name
00000000001d4070 b __ZGVZN5godot14MeshInstance3D17get_skeleton_pathEvE16_gde_method_bind
00000000001d4060 b __ZGVZN5godot14MeshInstance3D17set_skeleton_pathERKNS_8NodePathEE16_gde_method_bind
00000000001d4160 b __ZGVZN5godot14MeshInstance3D21create_debug_tangentsEvE16_gde_method_bind
00000000001d4150 b __ZGVZN5godot14MeshInstance3D21set_blend_shape_valueEifE16_gde_method_bind
00000000001d4100 b __ZGVZN5godot14MeshInstance3D23create_convex_collisionEbbE16_gde_method_bind
00000000001d40f0 b __ZGVZN5godot14MeshInstance3D24create_trimesh_collisionEvE16_gde_method_bind
00000000001d4130 b __ZGVZN5godot14MeshInstance3D24find_blend_shape_by_nameERKNS_10StringNameEE16_gde_method_bind
00000000001d40c0 b __ZGVZN5godot14MeshInstance3D29set_surface_override_materialEiRKNS_3RefINS_8MaterialEEEE16_gde_method_bind
00000000001d4110 b __ZGVZN5godot14MeshInstance3D33create_multiple_convex_collisionsERKNS_3RefINS_31MeshConvexDecompositionSettingsEEEE16_gde_method_bind
00000000001d4180 b __ZGVZN5godot14MeshInstance3D36bake_mesh_from_current_skeleton_poseERKNS_3RefINS_9ArrayMeshEEEE16_gde_method_bind
00000000001d4170 b __ZGVZN5godot14MeshInstance3D38bake_mesh_from_current_blend_shape_mixERKNS_3RefINS_9ArrayMeshEEEE16_gde_method_bind
00000000001d4040 b __ZGVZN5godot14MeshInstance3D8set_meshERKNS_3RefINS_4MeshEEEE16_gde_method_bind
00000000001d4080 b __ZGVZN5godot14MeshInstance3D8set_skinERKNS_3RefINS_4SkinEEEE16_gde_method_bind
00000000001d0cd8 d __ZGVZN5godot14MultiplayerAPI16get_class_staticEvE11string_name
00000000001d5400 b __ZGVZN5godot14ResourceLoader10has_cachedERKNS_6StringEE16_gde_method_bind
00000000001d5410 b __ZGVZN5godot14ResourceLoader14get_cached_refERKNS_6StringEE16_gde_method_bind
00000000001d5440 b __ZGVZN5godot14ResourceLoader14list_directoryERKNS_6StringEE16_gde_method_bind
00000000001d05b8 d __ZGVZN5godot14ResourceLoader16get_class_staticEvE11string_name
00000000001d53f0 b __ZGVZN5godot14ResourceLoader16get_dependenciesERKNS_6StringEE16_gde_method_bind
00000000001d5430 b __ZGVZN5godot14ResourceLoader16get_resource_uidERKNS_6StringEE16_gde_method_bind
00000000001d5390 b __ZGVZN5godot14ResourceLoader17load_threaded_getERKNS_6StringEE16_gde_method_bind
00000000001d5370 b __ZGVZN5godot14ResourceLoader21load_threaded_requestERKNS_6StringES3_bNS0_9CacheModeEE16_gde_method_bind
00000000001d5380 b __ZGVZN5godot14ResourceLoader24load_threaded_get_statusERKNS_6StringERKNS_5ArrayEE16_gde_method_bind
00000000001d53c0 b __ZGVZN5godot14ResourceLoader26add_resource_format_loaderERKNS_3RefINS_20ResourceFormatLoaderEEEbE16_gde_method_bind
00000000001d53d0 b __ZGVZN5godot14ResourceLoader29remove_resource_format_loaderERKNS_3RefINS_20ResourceFormatLoaderEEEE16_gde_method_bind
00000000001d53e0 b __ZGVZN5godot14ResourceLoader30set_abort_on_missing_resourcesEbE16_gde_method_bind
00000000001d53b0 b __ZGVZN5godot14ResourceLoader34get_recognized_extensions_for_typeERKNS_6StringEE16_gde_method_bind
00000000001d53a0 b __ZGVZN5godot14ResourceLoader4loadERKNS_6StringES3_NS0_9CacheModeEE16_gde_method_bind
00000000001d5420 b __ZGVZN5godot14ResourceLoader6existsERKNS_6StringES3_E16_gde_method_bind
00000000001d0a40 d __ZGVZN5godot14ScriptLanguage16get_class_staticEvE11string_name
00000000001d05e8 d __ZGVZN5godot14ShaderMaterial16get_class_staticEvE11string_name
00000000001d02f8 d __ZGVZN5godot16ClassDBSingleton16get_class_staticEvE11string_name
00000000001d1b80 b __ZGVZN5godot16ClassDBSingleton25class_get_property_getterERKNS_10StringNameES3_E16_gde_method_bind
00000000001d1b90 b __ZGVZN5godot16ClassDBSingleton25class_get_property_setterERKNS_10StringNameES3_E16_gde_method_bind
00000000001d1c00 b __ZGVZN5godot16ClassDBSingleton26class_call_static_internalEPPKNS_7VariantExE16_gde_method_bind
00000000001d6180 b __ZGVZN5godot16UtilityFunctions10deg_to_radEdE13_gde_function
00000000001d6120 b __ZGVZN5godot16UtilityFunctions10lerp_angleEdddE13_gde_function
00000000001d6190 b __ZGVZN5godot16UtilityFunctions10rad_to_degEdE13_gde_function
00000000001d6150 b __ZGVZN5godot16UtilityFunctions10smoothstepEdddE13_gde_function
00000000001d6420 b __ZGVZN5godot16UtilityFunctions10str_to_varERKNS_6StringEE13_gde_function
00000000001d6410 b __ZGVZN5godot16UtilityFunctions10var_to_strERKNS_7VariantEE13_gde_function
00000000001d6160 b __ZGVZN5godot16UtilityFunctions11move_towardEdddE13_gde_function
00000000001d6280 b __ZGVZN5godot16UtilityFunctions11nearest_po2ExE13_gde_function
00000000001d62e0 b __ZGVZN5godot16UtilityFunctions11randf_rangeEddE13_gde_function
00000000001d62d0 b __ZGVZN5godot16UtilityFunctions11randi_rangeExxE13_gde_function
00000000001d6370 b __ZGVZN5godot16UtilityFunctions11type_stringExE13_gde_function
00000000001d6440 b __ZGVZN5godot16UtilityFunctions12bytes_to_varERKNS_15PackedByteArrayEE13_gde_function
00000000001d61b0 b __ZGVZN5godot16UtilityFunctions12db_to_linearEdE13_gde_function
00000000001d6360 b __ZGVZN5godot16UtilityFunctions12error_stringExE13_gde_function
00000000001d6130 b __ZGVZN5godot16UtilityFunctions12inverse_lerpEdddE13_gde_function
00000000001d61a0 b __ZGVZN5godot16UtilityFunctions12linear_to_dbEdE13_gde_function
00000000001d61f0 b __ZGVZN5godot16UtilityFunctions12max_internalEPPKNS_7VariantExE13_gde_function
00000000001d6220 b __ZGVZN5godot16UtilityFunctions12min_internalEPPKNS_7VariantExE13_gde_function
00000000001d6350 b __ZGVZN5godot16UtilityFunctions12str_internalEPPKNS_7VariantExE13_gde_function
00000000001d6340 b __ZGVZN5godot16UtilityFunctions12type_convertERKNS_7VariantExE13_gde_function
00000000001d6430 b __ZGVZN5godot16UtilityFunctions12var_to_bytesERKNS_7VariantEE13_gde_function
00000000001d6170 b __ZGVZN5godot16UtilityFunctions13rotate_towardEdddE13_gde_function
00000000001d6080 b __ZGVZN5godot16UtilityFunctions13step_decimalsEdE13_gde_function
00000000001d6050 b __ZGVZN5godot16UtilityFunctions14is_zero_approxEdE13_gde_function
00000000001d6380 b __ZGVZN5godot16UtilityFunctions14print_internalEPPKNS_7VariantExE13_gde_function
00000000001d6310 b __ZGVZN5godot16UtilityFunctions14rand_from_seedExE13_gde_function
00000000001d64b0 b __ZGVZN5godot16UtilityFunctions14rid_from_int64ExE13_gde_function
00000000001d6040 b __ZGVZN5godot16UtilityFunctions15is_equal_approxEddE13_gde_function
00000000001d63c0 b __ZGVZN5godot16UtilityFunctions15prints_internalEPPKNS_7VariantExE13_gde_function
00000000001d63b0 b __ZGVZN5godot16UtilityFunctions15printt_internalEPPKNS_7VariantExE13_gde_function
00000000001d64a0 b __ZGVZN5godot16UtilityFunctions15rid_allocate_idEvE13_gde_function
00000000001d6110 b __ZGVZN5godot16UtilityFunctions16angle_differenceEddE13_gde_function
00000000001d6480 b __ZGVZN5godot16UtilityFunctions16instance_from_idExE13_gde_function
00000000001d6100 b __ZGVZN5godot16UtilityFunctions17bezier_derivativeEdddddE13_gde_function
00000000001d60b0 b __ZGVZN5godot16UtilityFunctions17cubic_interpolateEdddddE13_gde_function
00000000001d63a0 b __ZGVZN5godot16UtilityFunctions17printerr_internalEPPKNS_7VariantExE13_gde_function
00000000001d63d0 b __ZGVZN5godot16UtilityFunctions17printraw_internalEPPKNS_7VariantExE13_gde_function
00000000001d60f0 b __ZGVZN5godot16UtilityFunctions18bezier_interpolateEdddddE13_gde_function
00000000001d6390 b __ZGVZN5godot16UtilityFunctions19print_rich_internalEPPKNS_7VariantExE13_gde_function
00000000001d63f0 b __ZGVZN5godot16UtilityFunctions19push_error_internalEPPKNS_7VariantExE13_gde_function
00000000001d6490 b __ZGVZN5godot16UtilityFunctions20is_instance_id_validExE13_gde_function
00000000001d6400 b __ZGVZN5godot16UtilityFunctions21push_warning_internalEPPKNS_7VariantExE13_gde_function
00000000001d63e0 b __ZGVZN5godot16UtilityFunctions22print_verbose_internalEPPKNS_7VariantExE13_gde_function
00000000001d60c0 b __ZGVZN5godot16UtilityFunctions23cubic_interpolate_angleEdddddE13_gde_function
00000000001d6460 b __ZGVZN5godot16UtilityFunctions25bytes_to_var_with_objectsERKNS_15PackedByteArrayEE13_gde_function
00000000001d60d0 b __ZGVZN5godot16UtilityFunctions25cubic_interpolate_in_timeEddddddddE13_gde_function
00000000001d6450 b __ZGVZN5godot16UtilityFunctions25var_to_bytes_with_objectsERKNS_7VariantEE13_gde_function
00000000001d60e0 b __ZGVZN5godot16UtilityFunctions31cubic_interpolate_angle_in_timeEddddddddE13_gde_function
00000000001d5f60 b __ZGVZN5godot16UtilityFunctions3absERKNS_7VariantEE13_gde_function
00000000001d5dd0 b __ZGVZN5godot16UtilityFunctions3cosEdE13_gde_function
00000000001d6010 b __ZGVZN5godot16UtilityFunctions3expEdE13_gde_function
00000000001d6000 b __ZGVZN5godot16UtilityFunctions3logEdE13_gde_function
00000000001d5ff0 b __ZGVZN5godot16UtilityFunctions3powEddE13_gde_function
00000000001d5dc0 b __ZGVZN5godot16UtilityFunctions3sinEdE13_gde_function
00000000001d5de0 b __ZGVZN5godot16UtilityFunctions3tanEdE13_gde_function
00000000001d5f70 b __ZGVZN5godot16UtilityFunctions4absfEdE13_gde_function
00000000001d5f80 b __ZGVZN5godot16UtilityFunctions4absiExE13_gde_function
00000000001d5e30 b __ZGVZN5godot16UtilityFunctions4acosEdE13_gde_function
00000000001d5e20 b __ZGVZN5godot16UtilityFunctions4asinEdE13_gde_function
00000000001d5e40 b __ZGVZN5godot16UtilityFunctions4atanEdE13_gde_function
00000000001d5f00 b __ZGVZN5godot16UtilityFunctions4ceilERKNS_7VariantEE13_gde_function
00000000001d5e00 b __ZGVZN5godot16UtilityFunctions4coshEdE13_gde_function
00000000001d6070 b __ZGVZN5godot16UtilityFunctions4easeEddE13_gde_function
00000000001d5ea0 b __ZGVZN5godot16UtilityFunctions4fmodEddE13_gde_function
00000000001d6470 b __ZGVZN5godot16UtilityFunctions4hashERKNS_7VariantEE13_gde_function
00000000001d6090 b __ZGVZN5godot16UtilityFunctions4lerpERKNS_7VariantES3_S3_E13_gde_function
00000000001d6210 b __ZGVZN5godot16UtilityFunctions4maxfEddE13_gde_function
00000000001d6200 b __ZGVZN5godot16UtilityFunctions4maxiExxE13_gde_function
00000000001d6240 b __ZGVZN5godot16UtilityFunctions4minfEddE13_gde_function
00000000001d6230 b __ZGVZN5godot16UtilityFunctions4miniExxE13_gde_function
00000000001d6300 b __ZGVZN5godot16UtilityFunctions4seedExE13_gde_function
00000000001d5f90 b __ZGVZN5godot16UtilityFunctions4signERKNS_7VariantEE13_gde_function
00000000001d5df0 b __ZGVZN5godot16UtilityFunctions4sinhEdE13_gde_function
00000000001d5e90 b __ZGVZN5godot16UtilityFunctions4sqrtEdE13_gde_function
00000000001d5e10 b __ZGVZN5godot16UtilityFunctions4tanhEdE13_gde_function
00000000001d61c0 b __ZGVZN5godot16UtilityFunctions4wrapERKNS_7VariantES3_S3_E13_gde_function
00000000001d5e70 b __ZGVZN5godot16UtilityFunctions5acoshEdE13_gde_function
00000000001d5e60 b __ZGVZN5godot16UtilityFunctions5asinhEdE13_gde_function
00000000001d5e50 b __ZGVZN5godot16UtilityFunctions5atan2EddE13_gde_function
00000000001d5e80 b __ZGVZN5godot16UtilityFunctions5atanhEdE13_gde_function
00000000001d5f10 b __ZGVZN5godot16UtilityFunctions5ceilfEdE13_gde_function
00000000001d5f20 b __ZGVZN5godot16UtilityFunctions5ceiliEdE13_gde_function
00000000001d6250 b __ZGVZN5godot16UtilityFunctions5clampERKNS_7VariantES3_S3_E13_gde_function
00000000001d5ed0 b __ZGVZN5godot16UtilityFunctions5floorERKNS_7VariantEE13_gde_function
00000000001d60a0 b __ZGVZN5godot16UtilityFunctions5lerpfEdddE13_gde_function
00000000001d62c0 b __ZGVZN5godot16UtilityFunctions5randfEvE13_gde_function
00000000001d62b0 b __ZGVZN5godot16UtilityFunctions5randiEvE13_gde_function
00000000001d6140 b __ZGVZN5godot16UtilityFunctions5remapEdddddE13_gde_function
00000000001d5f30 b __ZGVZN5godot16UtilityFunctions5roundERKNS_7VariantEE13_gde_function
00000000001d5fa0 b __ZGVZN5godot16UtilityFunctions5signfEdE13_gde_function
00000000001d5fb0 b __ZGVZN5godot16UtilityFunctions5signiExE13_gde_function
00000000001d61e0 b __ZGVZN5godot16UtilityFunctions5wrapfEdddE13_gde_function
00000000001d61d0 b __ZGVZN5godot16UtilityFunctions5wrapiExxxE13_gde_function
00000000001d6270 b __ZGVZN5godot16UtilityFunctions6clampfEdddE13_gde_function
00000000001d6260 b __ZGVZN5godot16UtilityFunctions6clampiExxxE13_gde_function
00000000001d5ee0 b __ZGVZN5godot16UtilityFunctions6floorfEdE13_gde_function
00000000001d5ef0 b __ZGVZN5godot16UtilityFunctions6flooriEdE13_gde_function
00000000001d6030 b __ZGVZN5godot16UtilityFunctions6is_infEdE13_gde_function
00000000001d6020 b __ZGVZN5godot16UtilityFunctions6is_nanEdE13_gde_function
00000000001d5ec0 b __ZGVZN5godot16UtilityFunctions6posmodExxE13_gde_function
00000000001d62f0 b __ZGVZN5godot16UtilityFunctions6randfnEddE13_gde_function
00000000001d5f40 b __ZGVZN5godot16UtilityFunctions6roundfEdE13_gde_function
00000000001d5f50 b __ZGVZN5godot16UtilityFunctions6roundiEdE13_gde_function
00000000001d5eb0 b __ZGVZN5godot16UtilityFunctions7fposmodEddE13_gde_function
00000000001d64c0 b __ZGVZN5godot16UtilityFunctions7is_sameERKNS_7VariantES3_E13_gde_function
00000000001d5fc0 b __ZGVZN5godot16UtilityFunctions7snappedERKNS_7VariantES3_E13_gde_function
00000000001d6330 b __ZGVZN5godot16UtilityFunctions7type_ofERKNS_7VariantEE13_gde_function
00000000001d6320 b __ZGVZN5godot16UtilityFunctions7weakrefERKNS_7VariantEE13_gde_function
00000000001d6290 b __ZGVZN5godot16UtilityFunctions8pingpongEddE13_gde_function
00000000001d5fd0 b __ZGVZN5godot16UtilityFunctions8snappedfEddE13_gde_function
00000000001d5fe0 b __ZGVZN5godot16UtilityFunctions8snappediEdxE13_gde_function
00000000001d6060 b __ZGVZN5godot16UtilityFunctions9is_finiteEdE13_gde_function
00000000001d62a0 b __ZGVZN5godot16UtilityFunctions9randomizeEvE13_gde_function
00000000001d55a0 b __ZGVZN5godot16VisualInstance3D14set_layer_maskEjE16_gde_method_bind
00000000001d0568 d __ZGVZN5godot16VisualInstance3D16get_class_staticEvE11string_name
00000000001d55e0 b __ZGVZN5godot16VisualInstance3D18set_sorting_offsetEfE16_gde_method_bind
00000000001d55c0 b __ZGVZN5godot16VisualInstance3D20set_layer_mask_valueEibE16_gde_method_bind
00000000001d5600 b __ZGVZN5godot16VisualInstance3D27set_sorting_use_aabb_centerEbE16_gde_method_bind
00000000001d5570 b __ZGVZN5godot16VisualInstance3D8set_baseERKNS_3RIDEE16_gde_method_bind
00000000001d3b40 b __ZGVZN5godot18GeometryInstance3D11set_gi_modeENS0_6GIModeEE16_gde_method_bind
00000000001d39e0 b __ZGVZN5godot18GeometryInstance3D12set_lod_biasEfE16_gde_method_bind
00000000001d3b80 b __ZGVZN5godot18GeometryInstance3D15set_custom_aabbERKNS_4AABBEE16_gde_method_bind
00000000001d0578 d __ZGVZN5godot18GeometryInstance3D16get_class_staticEvE11string_name
00000000001d3a00 b __ZGVZN5godot18GeometryInstance3D16set_transparencyEfE16_gde_method_bind
00000000001d3b20 b __ZGVZN5godot18GeometryInstance3D18set_lightmap_scaleENS0_13LightmapScaleEE16_gde_method_bind
00000000001d39a0 b __ZGVZN5godot18GeometryInstance3D20set_material_overlayERKNS_3RefINS_8MaterialEEEE16_gde_method_bind
00000000001d3ae0 b __ZGVZN5godot18GeometryInstance3D21set_extra_cull_marginEfE16_gde_method_bind
00000000001d3980 b __ZGVZN5godot18GeometryInstance3D21set_material_overrideERKNS_3RefINS_8MaterialEEEE16_gde_method_bind
00000000001d39c0 b __ZGVZN5godot18GeometryInstance3D24set_cast_shadows_settingENS0_20ShadowCastingSettingEE16_gde_method_bind
00000000001d3b00 b __ZGVZN5godot18GeometryInstance3D24set_lightmap_texel_scaleEfE16_gde_method_bind
00000000001d3a40 b __ZGVZN5godot18GeometryInstance3D24set_visibility_range_endEfE16_gde_method_bind
00000000001d3a80 b __ZGVZN5godot18GeometryInstance3D26set_visibility_range_beginEfE16_gde_method_bind
00000000001d3b60 b __ZGVZN5godot18GeometryInstance3D28set_ignore_occlusion_cullingEbE16_gde_method_bind
00000000001d3b70 b __ZGVZN5godot18GeometryInstance3D29is_ignoring_occlusion_cullingEvE16_gde_method_bind
00000000001d3ac0 b __ZGVZN5godot18GeometryInstance3D29set_instance_shader_parameterERKNS_10StringNameERKNS_7VariantEE16_gde_method_bind
00000000001d3aa0 b __ZGVZN5godot18GeometryInstance3D30set_visibility_range_fade_modeENS0_23VisibilityRangeFadeModeEE16_gde_method_bind
00000000001d3a20 b __ZGVZN5godot18GeometryInstance3D31set_visibility_range_end_marginEfE16_gde_method_bind
00000000001d3a60 b __ZGVZN5godot18GeometryInstance3D33set_visibility_range_begin_marginEfE16_gde_method_bind
00000000001d0b98 d __ZGVZN5godot20ConvexPolygonShape3D16get_class_staticEvE11string_name
00000000001d0e68 d __ZGVZN5godot20ResourceFormatLoader16get_class_staticEvE11string_name
00000000001d0b88 d __ZGVZN5godot21ConcavePolygonShape3D16get_class_staticEvE11string_name
00000000001d0588 d __ZGVZN5godot31MeshConvexDecompositionSettings16get_class_staticEvE11string_name
00000000001d07d8 d __ZGVZN5godot4Font16get_class_staticEvE11string_name
00000000001d0538 d __ZGVZN5godot4Mesh16get_class_staticEvE11string_name
00000000001d3fd0 b __ZGVZN5godot4Mesh20surface_set_materialEiRKNS_3RefINS_8MaterialEEEE16_gde_method_bind
00000000001d3f60 b __ZGVZN5godot4Mesh22set_lightmap_size_hintERKNS_8Vector2iEE16_gde_method_bind
00000000001d4350 b __ZGVZN5godot4Node10move_childEPS0_iE16_gde_method_bind
00000000001d43a0 b __ZGVZN5godot4Node10print_treeEvE16_gde_method_bind
00000000001d4760 b __ZGVZN5godot4Node10queue_freeEvE16_gde_method_bind
00000000001d4700 b __ZGVZN5godot4Node10replace_byEPS0_bE16_gde_method_bind
00000000001d47d0 b __ZGVZN5godot4Node10rpc_configERKNS_10StringNameERKNS_7VariantEE16_gde_method_bind
00000000001d41a0 b __ZGVZN5godot4Node11add_siblingEPS0_bE16_gde_method_bind
00000000001d4460 b __ZGVZN5godot4Node11set_processEbE16_gde_method_bind
00000000001d4320 b __ZGVZN5godot4Node12add_to_groupERKNS_10StringNameEbE16_gde_method_bind
00000000001d46e0 b __ZGVZN5godot4Node12create_tweenEvE16_gde_method_bind
00000000001d41e0 b __ZGVZN5godot4Node12remove_childEPS0_E16_gde_method_bind
00000000001d4850 b __ZGVZN5godot4Node12rpc_internalEPPKNS_7VariantExE16_gde_method_bind
00000000001d4770 b __ZGVZN5godot4Node13request_readyEvE16_gde_method_bind
00000000001d4410 b __ZGVZN5godot4Node14propagate_callERKNS_10StringNameERKNS_5ArrayEbE16_gde_method_bind
00000000001d43c0 b __ZGVZN5godot4Node15get_tree_stringEvE16_gde_method_bind
00000000001d4860 b __ZGVZN5godot4Node15rpc_id_internalEPPKNS_7VariantExE16_gde_method_bind
00000000001d48c0 b __ZGVZN5godot4Node15set_thread_safeERKNS_10StringNameERKNS_7VariantEE16_gde_method_bind
00000000001d0348 d __ZGVZN5godot4Node16get_class_staticEvE11string_name
00000000001d4540 b __ZGVZN5godot4Node16set_process_modeENS0_11ProcessModeEE16_gde_method_bind
00000000001d43b0 b __ZGVZN5godot4Node17print_tree_prettyEvE16_gde_method_bind
00000000001d4330 b __ZGVZN5godot4Node17remove_from_groupERKNS_10StringNameEE16_gde_method_bind
00000000001d44c0 b __ZGVZN5godot4Node17set_process_inputEbE16_gde_method_bind
00000000001d48d0 b __ZGVZN5godot4Node18notify_thread_safeEiE16_gde_method_bind
00000000001d4190 b __ZGVZN5godot4Node18print_orphan_nodesEvE16_gde_method_bind
00000000001d45d0 b __ZGVZN5godot4Node18set_display_foldedEbE16_gde_method_bind
00000000001d4420 b __ZGVZN5godot4Node19set_physics_processEbE16_gde_method_bind
00000000001d43e0 b __ZGVZN5godot4Node19set_scene_file_pathERKNS_6StringEE16_gde_method_bind
00000000001d45f0 b __ZGVZN5godot4Node20set_process_internalEbE16_gde_method_bind
00000000001d4470 b __ZGVZN5godot4Node20set_process_priorityEiE16_gde_method_bind
00000000001d42b0 b __ZGVZN5godot4Node21get_node_and_resourceERKNS_8NodePathEE16_gde_method_bind
00000000001d4730 b __ZGVZN5godot4Node21set_editable_instanceEPS0_bE16_gde_method_bind
00000000001d43d0 b __ZGVZN5godot4Node22get_tree_string_prettyEvE16_gde_method_bind
00000000001d4400 b __ZGVZN5godot4Node22propagate_notificationEiE16_gde_method_bind
00000000001d47f0 b __ZGVZN5godot4Node22set_editor_descriptionERKNS_6StringEE16_gde_method_bind
00000000001d4680 b __ZGVZN5godot4Node23set_auto_translate_modeENS0_17AutoTranslateModeEE16_gde_method_bind
00000000001d4570 b __ZGVZN5godot4Node24set_process_thread_groupENS0_18ProcessThreadGroupEE16_gde_method_bind
00000000001d4810 b __ZGVZN5godot4Node24set_unique_name_in_ownerEbE16_gde_method_bind
00000000001d48b0 b __ZGVZN5godot4Node25call_thread_safe_internalEPPKNS_7VariantExE16_gde_method_bind
00000000001d4890 b __ZGVZN5godot4Node25set_deferred_thread_groupERKNS_10StringNameERKNS_7VariantEE16_gde_method_bind
00000000001d4790 b __ZGVZN5godot4Node25set_multiplayer_authorityEibE16_gde_method_bind
00000000001d44e0 b __ZGVZN5godot4Node26set_process_shortcut_inputEbE16_gde_method_bind
00000000001d4670 b __ZGVZN5godot4Node27reset_physics_interpolationEvE16_gde_method_bind
00000000001d4590 b __ZGVZN5godot4Node27set_process_thread_messagesENS_8BitFieldINS0_21ProcessThreadMessagesEEEE16_gde_method_bind
00000000001d4500 b __ZGVZN5godot4Node27set_process_unhandled_inputEbE16_gde_method_bind
00000000001d48a0 b __ZGVZN5godot4Node28notify_deferred_thread_groupEiE16_gde_method_bind
00000000001d4610 b __ZGVZN5godot4Node28set_physics_process_internalEbE16_gde_method_bind
00000000001d4490 b __ZGVZN5godot4Node28set_physics_process_priorityEiE16_gde_method_bind
00000000001d4870 b __ZGVZN5godot4Node29update_configuration_warningsEvE16_gde_method_bind
00000000001d4630 b __ZGVZN5godot4Node30set_physics_interpolation_modeENS0_24PhysicsInterpolationModeEE16_gde_method_bind
00000000001d45b0 b __ZGVZN5godot4Node30set_process_thread_group_orderEiE16_gde_method_bind
00000000001d4520 b __ZGVZN5godot4Node31set_process_unhandled_key_inputEbE16_gde_method_bind
00000000001d46a0 b __ZGVZN5godot4Node32set_translation_domain_inheritedEvE16_gde_method_bind
00000000001d4880 b __ZGVZN5godot4Node35call_deferred_thread_group_internalEPPKNS_7VariantExE16_gde_method_bind
00000000001d4710 b __ZGVZN5godot4Node35set_scene_instance_load_placeholderEbE16_gde_method_bind
00000000001d41f0 b __ZGVZN5godot4Node8reparentEPS0_bE16_gde_method_bind
00000000001d41b0 b __ZGVZN5godot4Node8set_nameERKNS_6StringEE16_gde_method_bind
00000000001d41d0 b __ZGVZN5godot4Node9add_childEPS0_bNS0_12InternalModeEE16_gde_method_bind
00000000001d4370 b __ZGVZN5godot4Node9set_ownerEPS0_E16_gde_method_bind
00000000001d0bf0 d __ZGVZN5godot4Skin16get_class_staticEvE11string_name
00000000001d09d8 d __ZGVZN5godot5Image16get_class_staticEvE11string_name
00000000001d3e20 b __ZGVZN5godot5Input10warp_mouseERKNS_7Vector2EE16_gde_method_bind
00000000001d3d90 b __ZGVZN5godot5Input11set_gravityERKNS_7Vector3EE16_gde_method_bind
00000000001d3e30 b __ZGVZN5godot5Input12action_pressERKNS_10StringNameEfE16_gde_method_bind
00000000001d3cb0 b __ZGVZN5godot5Input12get_joy_nameEiE16_gde_method_bind
00000000001d3c90 b __ZGVZN5godot5Input12is_joy_knownEiE16_gde_method_bind
00000000001d3dc0 b __ZGVZN5godot5Input13set_gyroscopeERKNS_7Vector3EE16_gde_method_bind
00000000001d3e40 b __ZGVZN5godot5Input14action_releaseERKNS_10StringNameEE16_gde_method_bind
00000000001d3e00 b __ZGVZN5godot5Input14set_mouse_modeENS0_9MouseModeEE16_gde_method_bind
00000000001d3c70 b __ZGVZN5godot5Input15add_joy_mappingERKNS_6StringEbE16_gde_method_bind
00000000001d0528 d __ZGVZN5godot5Input16get_class_staticEvE11string_name
00000000001d3db0 b __ZGVZN5godot5Input16set_magnetometerERKNS_7Vector3EE16_gde_method_bind
00000000001d3d40 b __ZGVZN5godot5Input16vibrate_handheldEifE16_gde_method_bind
00000000001d3e80 b __ZGVZN5godot5Input17parse_input_eventERKNS_3RefINS_10InputEventEEEE16_gde_method_bind
00000000001d3da0 b __ZGVZN5godot5Input17set_accelerometerERKNS_7Vector3EE16_gde_method_bind
00000000001d3c80 b __ZGVZN5godot5Input18remove_joy_mappingERKNS_6StringEE16_gde_method_bind
00000000001d3d30 b __ZGVZN5godot5Input18stop_joy_vibrationEiE16_gde_method_bind
00000000001d3d20 b __ZGVZN5godot5Input19start_joy_vibrationEifffE16_gde_method_bind
00000000001d3eb0 b __ZGVZN5godot5Input21flush_buffered_eventsEvE16_gde_method_bind
00000000001d3cf0 b __ZGVZN5godot5Input21get_connected_joypadsEvE16_gde_method_bind
00000000001d3dd0 b __ZGVZN5godot5Input23get_last_mouse_velocityEvE16_gde_method_bind
00000000001d3e70 b __ZGVZN5godot5Input23set_custom_mouse_cursorERKNS_3RefINS_8ResourceEEENS0_11CursorShapeERKNS_7Vector2EE16_gde_method_bind
00000000001d3e50 b __ZGVZN5godot5Input24set_default_cursor_shapeENS0_11CursorShapeEE16_gde_method_bind
00000000001d3e90 b __ZGVZN5godot5Input25set_use_accumulated_inputEbE16_gde_method_bind
00000000001d3d10 b __ZGVZN5godot5Input26get_joy_vibration_durationEiE16_gde_method_bind
00000000001d3d00 b __ZGVZN5godot5Input26get_joy_vibration_strengthEiE16_gde_method_bind
00000000001d3ea0 b __ZGVZN5godot5Input26is_using_accumulated_inputEvE16_gde_method_bind
00000000001d3ec0 b __ZGVZN5godot5Input28set_emulate_mouse_from_touchEbE16_gde_method_bind
00000000001d3ee0 b __ZGVZN5godot5Input28set_emulate_touch_from_mouseEbE16_gde_method_bind
00000000001d3de0 b __ZGVZN5godot5Input30get_last_mouse_screen_velocityEvE16_gde_method_bind
00000000001d05c8 d __ZGVZN5godot5Noise16get_class_staticEvE11string_name
00000000001d08e0 d __ZGVZN5godot5Theme16get_class_staticEvE11string_name
00000000001d0cf8 d __ZGVZN5godot5Tween16get_class_staticEvE11string_name
00000000001d1430 b __ZGVZN5godot6Button12set_languageERKNS_6StringEE16_gde_method_bind
00000000001d1490 b __ZGVZN5godot6Button13set_clip_textEbE16_gde_method_bind
00000000001d1450 b __ZGVZN5godot6Button15set_button_iconERKNS_3RefINS_9Texture2DEEEE16_gde_method_bind
00000000001d1510 b __ZGVZN5godot6Button15set_expand_iconEbE16_gde_method_bind
00000000001d03c8 d __ZGVZN5godot6Button16get_class_staticEvE11string_name
00000000001d13f0 b __ZGVZN5godot6Button17set_autowrap_modeENS_10TextServer12AutowrapModeEE16_gde_method_bind
00000000001d14d0 b __ZGVZN5godot6Button18set_icon_alignmentENS_19HorizontalAlignmentEE16_gde_method_bind
00000000001d14b0 b __ZGVZN5godot6Button18set_text_alignmentENS_19HorizontalAlignmentEE16_gde_method_bind
00000000001d1410 b __ZGVZN5godot6Button18set_text_directionENS_7Control13TextDirectionEE16_gde_method_bind
00000000001d13d0 b __ZGVZN5godot6Button25set_text_overrun_behaviorENS_10TextServer15OverrunBehaviorEE16_gde_method_bind
00000000001d14f0 b __ZGVZN5godot6Button27set_vertical_icon_alignmentENS_17VerticalAlignmentEE16_gde_method_bind
00000000001d1470 b __ZGVZN5godot6Button8set_flatEbE16_gde_method_bind
00000000001d13b0 b __ZGVZN5godot6Button8set_textERKNS_6StringEE16_gde_method_bind
00000000001d3110 b __ZGVZN5godot6Engine11set_max_fpsEiE16_gde_method_bind
00000000001d3140 b __ZGVZN5godot6Engine14get_time_scaleEvE16_gde_method_bind
00000000001d3130 b __ZGVZN5godot6Engine14set_time_scaleEdE16_gde_method_bind
00000000001d0518 d __ZGVZN5godot6Engine16get_class_staticEvE11string_name
00000000001d3150 b __ZGVZN5godot6Engine16get_frames_drawnEvE16_gde_method_bind
00000000001d3240 b __ZGVZN5godot6Engine18register_singletonERKNS_10StringNameEPNS_6ObjectEE16_gde_method_bind
00000000001d32e0 b __ZGVZN5godot6Engine19set_print_to_stdoutEbE16_gde_method_bind
00000000001d3250 b __ZGVZN5godot6Engine20unregister_singletonERKNS_10StringNameEE16_gde_method_bind
00000000001d30e0 b __ZGVZN5godot6Engine22set_physics_jitter_fixEdE16_gde_method_bind
00000000001d3270 b __ZGVZN5godot6Engine24register_script_languageEPNS_14ScriptLanguageEE16_gde_method_bind
00000000001d3300 b __ZGVZN5godot6Engine24set_print_error_messagesEbE16_gde_method_bind
00000000001d3290 b __ZGVZN5godot6Engine25get_script_language_countEvE16_gde_method_bind
00000000001d3280 b __ZGVZN5godot6Engine26unregister_script_languageEPNS_14ScriptLanguageEE16_gde_method_bind
00000000001d30a0 b __ZGVZN5godot6Engine28set_physics_ticks_per_secondEiE16_gde_method_bind
00000000001d30c0 b __ZGVZN5godot6Engine31set_max_physics_steps_per_frameEiE16_gde_method_bind
00000000001d4bb0 b __ZGVZN5godot6Node3D11set_visibleEbE16_gde_method_bind
00000000001d4b80 b __ZGVZN5godot6Node3D12clear_gizmosEvE16_gde_method_bind
00000000001d4c60 b __ZGVZN5godot6Node3D12global_scaleERKNS_7Vector3EE16_gde_method_bind
00000000001d4d00 b __ZGVZN5godot6Node3D12set_identityEvE16_gde_method_bind
00000000001d4900 b __ZGVZN5godot6Node3D12set_positionERKNS_7Vector3EE16_gde_method_bind
00000000001d4920 b __ZGVZN5godot6Node3D12set_rotationERKNS_7Vector3EE16_gde_method_bind
00000000001d4c50 b __ZGVZN5godot6Node3D13global_rotateERKNS_7Vector3EfE16_gde_method_bind
00000000001d48e0 b __ZGVZN5godot6Node3D13set_transformERKNS_11Transform3DEE16_gde_method_bind
00000000001d4b50 b __ZGVZN5godot6Node3D13update_gizmosEvE16_gde_method_bind
00000000001d4cf0 b __ZGVZN5godot6Node3D14orthonormalizeEvE16_gde_method_bind
00000000001d49c0 b __ZGVZN5godot6Node3D14set_quaternionERKNS_10QuaternionEE16_gde_method_bind
00000000001d0358 d __ZGVZN5godot6Node3D16get_class_staticEvE11string_name
00000000001d4c70 b __ZGVZN5godot6Node3D16global_translateERKNS_7Vector3EE16_gde_method_bind
00000000001d4ad0 b __ZGVZN5godot6Node3D16set_as_top_levelEbE16_gde_method_bind
00000000001d4a50 b __ZGVZN5godot6Node3D16set_global_basisERKNS_5BasisEE16_gde_method_bind
00000000001d4af0 b __ZGVZN5godot6Node3D17set_disable_scaleEbE16_gde_method_bind
00000000001d4c90 b __ZGVZN5godot6Node3D18scale_object_localERKNS_7Vector3EE16_gde_method_bind
00000000001d4960 b __ZGVZN5godot6Node3D18set_rotation_orderENS_10EulerOrderEE16_gde_method_bind
00000000001d4c80 b __ZGVZN5godot6Node3D19rotate_object_localERKNS_7Vector3EfE16_gde_method_bind
00000000001d4a30 b __ZGVZN5godot6Node3D19set_global_positionERKNS_7Vector3EE16_gde_method_bind
00000000001d4a70 b __ZGVZN5godot6Node3D19set_global_rotationERKNS_7Vector3EE16_gde_method_bind
00000000001d4a00 b __ZGVZN5godot6Node3D20set_global_transformERKNS_11Transform3DEE16_gde_method_bind
00000000001d4c20 b __ZGVZN5godot6Node3D20set_notify_transformEbE16_gde_method_bind
00000000001d4940 b __ZGVZN5godot6Node3D20set_rotation_degreesERKNS_7Vector3EE16_gde_method_bind
00000000001d4d20 b __ZGVZN5godot6Node3D21look_at_from_positionERKNS_7Vector3ES3_S3_bE16_gde_method_bind
00000000001d4b30 b __ZGVZN5godot6Node3D21set_visibility_parentERKNS_8NodePathEE16_gde_method_bind
00000000001d4b20 b __ZGVZN5godot6Node3D22force_update_transformEvE16_gde_method_bind
00000000001d4980 b __ZGVZN5godot6Node3D22set_rotation_edit_modeENS0_16RotationEditModeEE16_gde_method_bind
00000000001d4b90 b __ZGVZN5godot6Node3D22set_subgizmo_selectionERKNS_3RefINS_11Node3DGizmoEEEiRKNS_11Transform3DEE16_gde_method_bind
00000000001d4ca0 b __ZGVZN5godot6Node3D22translate_object_localERKNS_7Vector3EE16_gde_method_bind
00000000001d4ba0 b __ZGVZN5godot6Node3D24clear_subgizmo_selectionEvE16_gde_method_bind
00000000001d4c00 b __ZGVZN5godot6Node3D26set_notify_local_transformEbE16_gde_method_bind
00000000001d4a90 b __ZGVZN5godot6Node3D27set_global_rotation_degreesERKNS_7Vector3EE16_gde_method_bind
00000000001d4a20 b __ZGVZN5godot6Node3D33get_global_transform_interpolatedEvE16_gde_method_bind
00000000001d4ac0 b __ZGVZN5godot6Node3D33set_ignore_transform_notificationEbE16_gde_method_bind
00000000001d4bf0 b __ZGVZN5godot6Node3D4hideEvE16_gde_method_bind
00000000001d4be0 b __ZGVZN5godot6Node3D4showEvE16_gde_method_bind
00000000001d4c40 b __ZGVZN5godot6Node3D6rotateERKNS_7Vector3EfE16_gde_method_bind
00000000001d4d10 b __ZGVZN5godot6Node3D7look_atERKNS_7Vector3ES3_bE16_gde_method_bind
00000000001d4cb0 b __ZGVZN5godot6Node3D8rotate_xEfE16_gde_method_bind
00000000001d4cc0 b __ZGVZN5godot6Node3D8rotate_yEfE16_gde_method_bind
00000000001d4cd0 b __ZGVZN5godot6Node3D8rotate_zEfE16_gde_method_bind
00000000001d4b60 b __ZGVZN5godot6Node3D9add_gizmoERKNS_3RefINS_11Node3DGizmoEEEE16_gde_method_bind
00000000001d49e0 b __ZGVZN5godot6Node3D9set_basisERKNS_5BasisEE16_gde_method_bind
00000000001d49a0 b __ZGVZN5godot6Node3D9set_scaleERKNS_7Vector3EE16_gde_method_bind
00000000001d4ce0 b __ZGVZN5godot6Node3D9translateERKNS_7Vector3EE16_gde_method_bind
00000000001d5010 b __ZGVZN5godot6Object10disconnectERKNS_10StringNameERKNS_8CallableEE16_gde_method_bind
00000000001d4eb0 b __ZGVZN5godot6Object10set_scriptERKNS_7VariantEE16_gde_method_bind
00000000001d50e0 b __ZGVZN5godot6Object11cancel_freeEvE16_gde_method_bind
00000000001d4ee0 b __ZGVZN5godot6Object11remove_metaERKNS_10StringNameEE16_gde_method_bind
00000000001d4e20 b __ZGVZN5godot6Object11set_indexedERKNS_8NodePathERKNS_7VariantEE16_gde_method_bind
00000000001d4e80 b __ZGVZN5godot6Object12notificationEibE16_gde_method_bind
00000000001d4f80 b __ZGVZN5godot6Object12set_deferredERKNS_10StringNameERKNS_7VariantEE16_gde_method_bind
00000000001d4f60 b __ZGVZN5godot6Object13call_internalEPPKNS_7VariantExE16_gde_method_bind
00000000001d4f20 b __ZGVZN5godot6Object15add_user_signalERKNS_6StringERKNS_5ArrayEE16_gde_method_bind
00000000001d02e8 d __ZGVZN5godot6Object16get_class_staticEvE11string_name
00000000001d5040 b __ZGVZN5godot6Object17set_block_signalsEbE16_gde_method_bind
00000000001d4f40 b __ZGVZN5godot6Object18remove_user_signalERKNS_10StringNameEE16_gde_method_bind
00000000001d4f50 b __ZGVZN5godot6Object20emit_signal_internalEPPKNS_7VariantExE16_gde_method_bind
00000000001d4f70 b __ZGVZN5godot6Object22call_deferred_internalEPPKNS_7VariantExE16_gde_method_bind
00000000001d50c0 b __ZGVZN5godot6Object22set_translation_domainERKNS_10StringNameEE16_gde_method_bind
00000000001d5070 b __ZGVZN5godot6Object23set_message_translationEbE16_gde_method_bind
00000000001d5060 b __ZGVZN5godot6Object28notify_property_list_changedEvE16_gde_method_bind
00000000001d4e00 b __ZGVZN5godot6Object3setERKNS_10StringNameERKNS_7VariantEE16_gde_method_bind
00000000001d4f90 b __ZGVZN5godot6Object5callvERKNS_10StringNameERKNS_5ArrayEE16_gde_method_bind
00000000001d5000 b __ZGVZN5godot6Object7connectERKNS_10StringNameERKNS_8CallableEjE16_gde_method_bind
00000000001d4ed0 b __ZGVZN5godot6Object8set_metaERKNS_10StringNameERKNS_7VariantEE16_gde_method_bind
00000000001d4e90 b __ZGVZN5godot6Object9to_stringEvE16_gde_method_bind
00000000001d0328 d __ZGVZN5godot6Shader16get_class_staticEvE11string_name
00000000001d58a0 b __ZGVZN5godot6Window10grab_focusEvE16_gde_method_bind
00000000001d56f0 b __ZGVZN5godot6Window10reset_sizeEvE16_gde_method_bind
00000000001d58b0 b __ZGVZN5godot6Window10start_dragEvE16_gde_method_bind
00000000001d57d0 b __ZGVZN5godot6Window11set_visibleEbE16_gde_method_bind
00000000001d5720 b __ZGVZN5godot6Window12set_max_sizeERKNS_8Vector2iEE16_gde_method_bind
00000000001d5740 b __ZGVZN5godot6Window12set_min_sizeERKNS_8Vector2iEE16_gde_method_bind
00000000001d56a0 b __ZGVZN5godot6Window12set_positionERKNS_8Vector2iEE16_gde_method_bind
00000000001d58c0 b __ZGVZN5godot6Window12start_resizeENS_13DisplayServer16WindowResizeEdgeEE16_gde_method_bind
00000000001d5850 b __ZGVZN5godot6Window13set_exclusiveEbE16_gde_method_bind
00000000001d5810 b __ZGVZN5godot6Window13set_transientEbE16_gde_method_bind
00000000001d56c0 b __ZGVZN5godot6Window14move_to_centerEvE16_gde_method_bind
00000000001d5d40 b __ZGVZN5godot6Window14popup_centeredERKNS_8Vector2iEE16_gde_method_bind
00000000001d58d0 b __ZGVZN5godot6Window14set_ime_activeEbE16_gde_method_bind
00000000001d5d70 b __ZGVZN5godot6Window15popup_exclusiveEPNS_4NodeERKNS_6Rect2iEE16_gde_method_bind
00000000001d5d30 b __ZGVZN5godot6Window15popup_on_parentERKNS_6Rect2iEE16_gde_method_bind
00000000001d0d20 d __ZGVZN5godot6Window16get_class_staticEvE11string_name
00000000001d5910 b __ZGVZN5godot6Window16set_force_nativeEbE16_gde_method_bind
00000000001d58e0 b __ZGVZN5godot6Window16set_ime_positionERKNS_8Vector2iEE16_gde_method_bind
00000000001d57b0 b __ZGVZN5godot6Window17request_attentionEvE16_gde_method_bind
00000000001d5a30 b __ZGVZN5godot6Window17set_wrap_controlsEbE16_gde_method_bind
00000000001d57c0 b __ZGVZN5godot6Window18move_to_foregroundEvE16_gde_method_bind
00000000001d5d00 b __ZGVZN5godot6Window18set_auto_translateEbE16_gde_method_bind
00000000001d5680 b __ZGVZN5godot6Window18set_current_screenEiE16_gde_method_bind
00000000001d5d50 b __ZGVZN5godot6Window20popup_centered_ratioEfE16_gde_method_bind
00000000001d5660 b __ZGVZN5godot6Window20set_initial_positionENS0_21WindowInitialPositionEE16_gde_method_bind
00000000001d5cd0 b __ZGVZN5godot6Window20set_layout_directionENS0_15LayoutDirectionEE16_gde_method_bind
00000000001d5a50 b __ZGVZN5godot6Window22child_controls_changedEvE16_gde_method_bind
00000000001d5d60 b __ZGVZN5godot6Window22popup_centered_clampedERKNS_8Vector2iEfE16_gde_method_bind
00000000001d5950 b __ZGVZN5godot6Window22set_content_scale_modeENS0_16ContentScaleModeEE16_gde_method_bind
00000000001d5930 b __ZGVZN5godot6Window22set_content_scale_sizeERKNS_8Vector2iEE16_gde_method_bind
00000000001d59b0 b __ZGVZN5godot6Window22set_keep_title_visibleEbE16_gde_method_bind
00000000001d5ae0 b __ZGVZN5godot6Window23add_theme_font_overrideERKNS_10StringNameERKNS_3RefINS_4FontEEEE16_gde_method_bind
00000000001d5ac0 b __ZGVZN5godot6Window23add_theme_icon_overrideERKNS_10StringNameERKNS_3RefINS_9Texture2DEEEE16_gde_method_bind
00000000001d5ab0 b __ZGVZN5godot6Window23end_bulk_theme_overrideEvE16_gde_method_bind
00000000001d5b00 b __ZGVZN5godot6Window24add_theme_color_overrideERKNS_10StringNameERKNS_5ColorEE16_gde_method_bind
00000000001d5d90 b __ZGVZN5godot6Window24popup_exclusive_centeredEPNS_4NodeERKNS_8Vector2iEE16_gde_method_bind
00000000001d5970 b __ZGVZN5godot6Window24set_content_scale_aspectENS0_18ContentScaleAspectEE16_gde_method_bind
00000000001d59d0 b __ZGVZN5godot6Window24set_content_scale_factorEfE16_gde_method_bind
00000000001d5a80 b __ZGVZN5godot6Window24set_theme_type_variationERKNS_10StringNameEE16_gde_method_bind
00000000001d5830 b __ZGVZN5godot6Window24set_transient_to_focusedEbE16_gde_method_bind
00000000001d5aa0 b __ZGVZN5godot6Window25begin_bulk_theme_overrideEvE16_gde_method_bind
00000000001d5d80 b __ZGVZN5godot6Window25popup_exclusive_on_parentEPNS_4NodeERKNS_6Rect2iEE16_gde_method_bind
00000000001d5990 b __ZGVZN5godot6Window25set_content_scale_stretchENS0_19ContentScaleStretchEE16_gde_method_bind
00000000001d59f0 b __ZGVZN5godot6Window25set_use_font_oversamplingEbE16_gde_method_bind
00000000001d5b40 b __ZGVZN5godot6Window26remove_theme_font_overrideERKNS_10StringNameEE16_gde_method_bind
00000000001d5b20 b __ZGVZN5godot6Window26remove_theme_icon_overrideERKNS_10StringNameEE16_gde_method_bind
00000000001d5b10 b __ZGVZN5godot6Window27add_theme_constant_overrideERKNS_10StringNameEiE16_gde_method_bind
00000000001d5ad0 b __ZGVZN5godot6Window27add_theme_stylebox_overrideERKNS_10StringNameERKNS_3RefINS_8StyleBoxEEEE16_gde_method_bind
00000000001d5b60 b __ZGVZN5godot6Window27remove_theme_color_overrideERKNS_10StringNameEE16_gde_method_bind
00000000001d5870 b __ZGVZN5godot6Window27set_unparent_when_invisibleEbE16_gde_method_bind
00000000001d5af0 b __ZGVZN5godot6Window28add_theme_font_size_overrideERKNS_10StringNameEiE16_gde_method_bind
00000000001d5a10 b __ZGVZN5godot6Window29set_mouse_passthrough_polygonERKNS_18PackedVector2ArrayEE16_gde_method_bind
00000000001d5da0 b __ZGVZN5godot6Window30popup_exclusive_centered_ratioEPNS_4NodeEfE16_gde_method_bind
00000000001d5b70 b __ZGVZN5godot6Window30remove_theme_constant_overrideERKNS_10StringNameEE16_gde_method_bind
00000000001d5b30 b __ZGVZN5godot6Window30remove_theme_stylebox_overrideERKNS_10StringNameEE16_gde_method_bind
00000000001d5b50 b __ZGVZN5godot6Window31remove_theme_font_size_overrideERKNS_10StringNameEE16_gde_method_bind
00000000001d5db0 b __ZGVZN5godot6Window32popup_exclusive_centered_clampedEPNS_4NodeERKNS_8Vector2iEfE16_gde_method_bind
00000000001d57f0 b __ZGVZN5godot6Window4hideEvE16_gde_method_bind
00000000001d5800 b __ZGVZN5godot6Window4showEvE16_gde_method_bind
00000000001d5d20 b __ZGVZN5godot6Window5popupERKNS_6Rect2iEE16_gde_method_bind
00000000001d5780 b __ZGVZN5godot6Window8set_flagENS0_5FlagsEbE16_gde_method_bind
00000000001d5760 b __ZGVZN5godot6Window8set_modeENS0_4ModeEE16_gde_method_bind
00000000001d56d0 b __ZGVZN5godot6Window8set_sizeERKNS_8Vector2iEE16_gde_method_bind
00000000001d5a60 b __ZGVZN5godot6Window9set_themeERKNS_3RefINS_5ThemeEEEE16_gde_method_bind
00000000001d5630 b __ZGVZN5godot6Window9set_titleERKNS_6StringEE16_gde_method_bind
00000000001d0618 d __ZGVZN5godot7BoxMesh16get_class_staticEvE11string_name
00000000001d1390 b __ZGVZN5godot7BoxMesh19set_subdivide_depthEiE16_gde_method_bind
00000000001d1350 b __ZGVZN5godot7BoxMesh19set_subdivide_widthEiE16_gde_method_bind
00000000001d1370 b __ZGVZN5godot7BoxMesh20set_subdivide_heightEiE16_gde_method_bind
00000000001d1330 b __ZGVZN5godot7BoxMesh8set_sizeERKNS_7Vector3EE16_gde_method_bind
00000000001d2360 b __ZGVZN5godot7Control10force_dragERKNS_7VariantEPS0_E16_gde_method_bind
00000000001d1f10 b __ZGVZN5godot7Control10grab_focusEvE16_gde_method_bind
00000000001d1d90 b __ZGVZN5godot7Control10reset_sizeEvE16_gde_method_bind
00000000001d1d00 b __ZGVZN5godot7Control10set_anchorENS_4SideEfbbE16_gde_method_bind
00000000001d1d20 b __ZGVZN5godot7Control10set_offsetENS_4SideEfE16_gde_method_bind
00000000001d2410 b __ZGVZN5godot7Control10warp_mouseERKNS_7Vector2EE16_gde_method_bind
00000000001d1ca0 b __ZGVZN5godot7Control12accept_eventEvE16_gde_method_bind
00000000001d1d70 b __ZGVZN5godot7Control12set_positionERKNS_7Vector2EbE16_gde_method_bind
00000000001d1dc0 b __ZGVZN5godot7Control12set_rotationEfE16_gde_method_bind
00000000001d1f20 b __ZGVZN5godot7Control13release_focusEvE16_gde_method_bind
00000000001d1ee0 b __ZGVZN5godot7Control14set_focus_modeENS0_9FocusModeEE16_gde_method_bind
00000000001d2320 b __ZGVZN5godot7Control14set_focus_nextERKNS_8NodePathEE16_gde_method_bind
00000000001d03a8 d __ZGVZN5godot7Control16get_class_staticEvE11string_name
00000000001d23d0 b __ZGVZN5godot7Control16grab_click_focusEvE16_gde_method_bind
00000000001d23f0 b __ZGVZN5godot7Control16set_drag_previewEPS0_E16_gde_method_bind
00000000001d1f60 b __ZGVZN5godot7Control16set_h_size_flagsENS_8BitFieldINS0_9SizeFlagsEEEE16_gde_method_bind
00000000001d2370 b __ZGVZN5godot7Control16set_mouse_filterENS0_11MouseFilterEE16_gde_method_bind
00000000001d1df0 b __ZGVZN5godot7Control16set_pivot_offsetERKNS_7Vector2EE16_gde_method_bind
00000000001d22a0 b __ZGVZN5godot7Control16set_tooltip_textERKNS_6StringEE16_gde_method_bind
00000000001d1fa0 b __ZGVZN5godot7Control16set_v_size_flagsENS_8BitFieldINS0_9SizeFlagsEEEE16_gde_method_bind
00000000001d23b0 b __ZGVZN5godot7Control17set_clip_contentsEbE16_gde_method_bind
00000000001d1f80 b __ZGVZN5godot7Control17set_stretch_ratioEfE16_gde_method_bind
00000000001d1cd0 b __ZGVZN5godot7Control18set_anchors_presetENS0_12LayoutPresetEbE16_gde_method_bind
00000000001d2480 b __ZGVZN5godot7Control18set_auto_translateEbE16_gde_method_bind
00000000001d2300 b __ZGVZN5godot7Control18set_focus_neighborENS_4SideERKNS_8NodePathEE16_gde_method_bind
00000000001d2340 b __ZGVZN5godot7Control18set_focus_previousERKNS_8NodePathEE16_gde_method_bind
00000000001d1ce0 b __ZGVZN5godot7Control18set_offsets_presetENS0_12LayoutPresetENS0_16LayoutPresetModeEiE16_gde_method_bind
00000000001d23e0 b __ZGVZN5godot7Control19set_drag_forwardingERKNS_8CallableES3_S3_E16_gde_method_bind
00000000001d1db0 b __ZGVZN5godot7Control19set_global_positionERKNS_7Vector2EbE16_gde_method_bind
00000000001d2440 b __ZGVZN5godot7Control19update_minimum_sizeEvE16_gde_method_bind
00000000001d23c0 b __ZGVZN5godot7Control20is_clipping_contentsEvE16_gde_method_bind
00000000001d2240 b __ZGVZN5godot7Control20set_h_grow_directionENS0_13GrowDirectionEE16_gde_method_bind
00000000001d2450 b __ZGVZN5godot7Control20set_layout_directionENS0_15LayoutDirectionEE16_gde_method_bind
00000000001d1dd0 b __ZGVZN5godot7Control20set_rotation_degreesEfE16_gde_method_bind
00000000001d2420 b __ZGVZN5godot7Control20set_shortcut_contextEPNS_4NodeEE16_gde_method_bind
00000000001d2260 b __ZGVZN5godot7Control20set_v_grow_directionENS0_13GrowDirectionEE16_gde_method_bind
00000000001d1d40 b __ZGVZN5godot7Control21set_anchor_and_offsetENS_4SideEffbE16_gde_method_bind
00000000001d2040 b __ZGVZN5godot7Control23add_theme_font_overrideERKNS_10StringNameERKNS_3RefINS_4FontEEEE16_gde_method_bind
00000000001d2020 b __ZGVZN5godot7Control23add_theme_icon_overrideERKNS_10StringNameERKNS_3RefINS_9Texture2DEEEE16_gde_method_bind
00000000001d2010 b __ZGVZN5godot7Control23end_bulk_theme_overrideEvE16_gde_method_bind
00000000001d1da0 b __ZGVZN5godot7Control23set_custom_minimum_sizeERKNS_7Vector2EE16_gde_method_bind
00000000001d2060 b __ZGVZN5godot7Control24add_theme_color_overrideERKNS_10StringNameERKNS_5ColorEE16_gde_method_bind
00000000001d22d0 b __ZGVZN5godot7Control24set_default_cursor_shapeENS0_11CursorShapeEE16_gde_method_bind
00000000001d1fe0 b __ZGVZN5godot7Control24set_theme_type_variationERKNS_10StringNameEE16_gde_method_bind
00000000001d2000 b __ZGVZN5godot7Control25begin_bulk_theme_overrideEvE16_gde_method_bind
00000000001d20a0 b __ZGVZN5godot7Control26remove_theme_font_overrideERKNS_10StringNameEE16_gde_method_bind
00000000001d2080 b __ZGVZN5godot7Control26remove_theme_icon_overrideERKNS_10StringNameEE16_gde_method_bind
00000000001d2070 b __ZGVZN5godot7Control27add_theme_constant_overrideERKNS_10StringNameEiE16_gde_method_bind
00000000001d2030 b __ZGVZN5godot7Control27add_theme_stylebox_overrideERKNS_10StringNameERKNS_3RefINS_8StyleBoxEEEE16_gde_method_bind
00000000001d20c0 b __ZGVZN5godot7Control27remove_theme_color_overrideERKNS_10StringNameEE16_gde_method_bind
00000000001d24a0 b __ZGVZN5godot7Control27set_localize_numeral_systemEbE16_gde_method_bind
00000000001d2050 b __ZGVZN5godot7Control28add_theme_font_size_overrideERKNS_10StringNameEiE16_gde_method_bind
00000000001d2390 b __ZGVZN5godot7Control28set_force_pass_scroll_eventsEbE16_gde_method_bind
00000000001d20d0 b __ZGVZN5godot7Control30remove_theme_constant_overrideERKNS_10StringNameEE16_gde_method_bind
00000000001d2090 b __ZGVZN5godot7Control30remove_theme_stylebox_overrideERKNS_10StringNameEE16_gde_method_bind
00000000001d1cf0 b __ZGVZN5godot7Control30set_anchors_and_offsets_presetENS0_12LayoutPresetENS0_16LayoutPresetModeEiE16_gde_method_bind
00000000001d20b0 b __ZGVZN5godot7Control31remove_theme_font_size_overrideERKNS_10StringNameEE16_gde_method_bind
00000000001d2280 b __ZGVZN5godot7Control31set_tooltip_auto_translate_modeENS_4Node17AutoTranslateModeEE16_gde_method_bind
00000000001d1d60 b __ZGVZN5godot7Control7set_endERKNS_7Vector2EE16_gde_method_bind
00000000001d1d80 b __ZGVZN5godot7Control8set_sizeERKNS_7Vector2EbE16_gde_method_bind
00000000001d1d50 b __ZGVZN5godot7Control9set_beginERKNS_7Vector2EE16_gde_method_bind
00000000001d1de0 b __ZGVZN5godot7Control9set_scaleERKNS_7Vector2EE16_gde_method_bind
00000000001d1fc0 b __ZGVZN5godot7Control9set_themeERKNS_3RefINS_5ThemeEEEE16_gde_method_bind
00000000001d0b78 d __ZGVZN5godot7Shape3D16get_class_staticEvE11string_name
00000000001d0378 d __ZGVZN5godot7Texture16get_class_staticEvE11string_name
00000000001d0818 d __ZGVZN5godot7World2D16get_class_staticEvE11string_name
00000000001d0da8 d __ZGVZN5godot7World3D16get_class_staticEvE11string_name
00000000001d03e8 d __ZGVZN5godot7Wrapped16get_class_staticEvE11string_name
00000000001d0a30 d __ZGVZN5godot8MainLoop16get_class_staticEvE11string_name
00000000001d3f00 b __ZGVZN5godot8Material13set_next_passERKNS_3RefIS0_EEE16_gde_method_bind
00000000001d0338 d __ZGVZN5godot8Material16get_class_staticEvE11string_name
00000000001d3f20 b __ZGVZN5godot8Material19set_render_priorityEiE16_gde_method_bind
00000000001d3f40 b __ZGVZN5godot8Material26inspect_native_shader_codeEvE16_gde_method_bind
00000000001d52e0 b __ZGVZN5godot8Resource11reset_stateEvE16_gde_method_bind
00000000001d5350 b __ZGVZN5godot8Resource12emit_changedEvE16_gde_method_bind
00000000001d5260 b __ZGVZN5godot8Resource14set_path_cacheERKNS_6StringEE16_gde_method_bind
00000000001d5240 b __ZGVZN5godot8Resource14take_over_pathERKNS_6StringEE16_gde_method_bind
00000000001d52f0 b __ZGVZN5godot8Resource15set_id_for_pathERKNS_6StringES3_E16_gde_method_bind
00000000001d0318 d __ZGVZN5godot8Resource16get_class_staticEvE11string_name
00000000001d52a0 b __ZGVZN5godot8Resource18set_local_to_sceneEbE16_gde_method_bind
00000000001d5330 b __ZGVZN5godot8Resource19set_scene_unique_idERKNS_6StringEE16_gde_method_bind
00000000001d52d0 b __ZGVZN5godot8Resource20setup_local_to_sceneEvE16_gde_method_bind
00000000001d5320 b __ZGVZN5godot8Resource24generate_scene_unique_idEvE16_gde_method_bind
00000000001d5270 b __ZGVZN5godot8Resource8set_nameERKNS_6StringEE16_gde_method_bind
00000000001d5230 b __ZGVZN5godot8Resource8set_pathERKNS_6StringEE16_gde_method_bind
00000000001d06d8 d __ZGVZN5godot8Shortcut16get_class_staticEvE11string_name
00000000001d0808 d __ZGVZN5godot8StyleBox16get_class_staticEvE11string_name
00000000001d5460 b __ZGVZN5godot8StyleBox18set_content_marginENS_4SideEfE16_gde_method_bind
00000000001d5470 b __ZGVZN5godot8StyleBox22set_content_margin_allEfE16_gde_method_bind
00000000001d0d08 d __ZGVZN5godot8Viewport16get_class_staticEvE11string_name
00000000001d0fe0 b __ZGVZN5godot8internal39get_engine_class_registration_callbacksEvE35engine_class_registration_callbacks
00000000001d10a0 b __ZGVZN5godot9ArrayMesh14clear_surfacesEvE16_gde_method_bind
00000000001d10b0 b __ZGVZN5godot9ArrayMesh14surface_removeEiE16_gde_method_bind
00000000001d1020 b __ZGVZN5godot9ArrayMesh15add_blend_shapeERKNS_10StringNameEE16_gde_method_bind
00000000001d1170 b __ZGVZN5godot9ArrayMesh15lightmap_unwrapERKNS_11Transform3DEfE16_gde_method_bind
00000000001d1180 b __ZGVZN5godot9ArrayMesh15set_custom_aabbERKNS_4AABBEE16_gde_method_bind
00000000001d11a0 b __ZGVZN5godot9ArrayMesh15set_shadow_meshERKNS_3RefIS0_EEE16_gde_method_bind
00000000001d0548 d __ZGVZN5godot9ArrayMesh16get_class_staticEvE11string_name
00000000001d1140 b __ZGVZN5godot9ArrayMesh16surface_set_nameEiRKNS_6StringEE16_gde_method_bind
00000000001d1160 b __ZGVZN5godot9ArrayMesh17regen_normal_mapsEvE16_gde_method_bind
00000000001d1060 b __ZGVZN5godot9ArrayMesh18clear_blend_shapesEvE16_gde_method_bind
00000000001d1070 b __ZGVZN5godot9ArrayMesh20set_blend_shape_modeENS_4Mesh14BlendShapeModeEE16_gde_method_bind
00000000001d1050 b __ZGVZN5godot9ArrayMesh20set_blend_shape_nameEiRKNS_10StringNameEE16_gde_method_bind
00000000001d1090 b __ZGVZN5godot9ArrayMesh23add_surface_from_arraysENS_4Mesh13PrimitiveTypeERKNS_5ArrayERKNS_10TypedArrayIS3_EERKNS_10DictionaryENS_8BitFieldINS1_11ArrayFormatEEEE16_gde_method_bind
00000000001d10e0 b __ZGVZN5godot9ArrayMesh26surface_update_skin_regionEiiRKNS_15PackedByteArrayEE16_gde_method_bind
00000000001d10c0 b __ZGVZN5godot9ArrayMesh28surface_update_vertex_regionEiiRKNS_15PackedByteArrayEE16_gde_method_bind
00000000001d10d0 b __ZGVZN5godot9ArrayMesh31surface_update_attribute_regionEiiRKNS_15PackedByteArrayEE16_gde_method_bind
00000000001d07f8 d __ZGVZN5godot9MultiMesh16get_class_staticEvE11string_name
00000000001d0ce8 d __ZGVZN5godot9SceneTree16get_class_staticEvE11string_name
00000000001d0388 d __ZGVZN5godot9Texture2D16get_class_staticEvE11string_name
00000000001d11f0 b __ZGVZNK5godot10BaseButton10is_hoveredEvE16_gde_method_bind
00000000001d11d0 b __ZGVZNK5godot10BaseButton10is_pressedEvE16_gde_method_bind
00000000001d1250 b __ZGVZNK5godot10BaseButton11is_disabledEvE16_gde_method_bind
00000000001d1300 b __ZGVZNK5godot10BaseButton12get_shortcutEvE16_gde_method_bind
00000000001d12a0 b __ZGVZNK5godot10BaseButton13get_draw_modeEvE16_gde_method_bind
00000000001d1210 b __ZGVZNK5godot10BaseButton14is_toggle_modeEvE16_gde_method_bind
00000000001d1270 b __ZGVZNK5godot10BaseButton15get_action_modeEvE16_gde_method_bind
00000000001d1290 b __ZGVZNK5godot10BaseButton15get_button_maskEvE16_gde_method_bind
00000000001d1320 b __ZGVZNK5godot10BaseButton16get_button_groupEvE16_gde_method_bind
00000000001d12e0 b __ZGVZNK5godot10BaseButton20is_shortcut_feedbackEvE16_gde_method_bind
00000000001d12c0 b __ZGVZNK5godot10BaseButton23is_keep_pressed_outsideEvE16_gde_method_bind
00000000001d1230 b __ZGVZNK5godot10BaseButton30is_shortcut_in_tooltip_enabledEvE16_gde_method_bind
00000000001d1920 b __ZGVZNK5godot10CanvasItem10get_canvasEvE16_gde_method_bind
00000000001d1550 b __ZGVZNK5godot10CanvasItem10is_visibleEvE16_gde_method_bind
00000000001d17d0 b __ZGVZNK5godot10CanvasItem11draw_stringERKNS_3RefINS_4FontEEERKNS_7Vector2ERKNS_6StringENS_19HorizontalAlignmentEfiRKNS_5ColorENS_8BitFieldINS_10TextServer17JustificationFlagEEENSH_9DirectionENSH_11OrientationEE16_gde_method_bind
00000000001d1640 b __ZGVZNK5godot10CanvasItem11get_z_indexEvE16_gde_method_bind
00000000001d1960 b __ZGVZNK5godot10CanvasItem12get_materialEvE16_gde_method_bind
00000000001d1600 b __ZGVZNK5godot10CanvasItem12get_modulateEvE16_gde_method_bind
00000000001d1940 b __ZGVZNK5godot10CanvasItem12get_world_2dEvE16_gde_method_bind
00000000001d1890 b __ZGVZNK5godot10CanvasItem13get_transformEvE16_gde_method_bind
00000000001d1660 b __ZGVZNK5godot10CanvasItem13is_z_relativeEvE16_gde_method_bind
00000000001d15e0 b __ZGVZNK5godot10CanvasItem14get_light_maskEvE16_gde_method_bind
00000000001d1530 b __ZGVZNK5godot10CanvasItem15get_canvas_itemEvE16_gde_method_bind
00000000001d1a10 b __ZGVZNK5godot10CanvasItem16make_input_localERKNS_3RefINS_10InputEventEEEE16_gde_method_bind
00000000001d1820 b __ZGVZNK5godot10CanvasItem17draw_char_outlineERKNS_3RefINS_4FontEEERKNS_7Vector2ERKNS_6StringEiiRKNS_5ColorEE16_gde_method_bind
00000000001d1620 b __ZGVZNK5godot10CanvasItem17get_self_modulateEvE16_gde_method_bind
00000000001d18d0 b __ZGVZNK5godot10CanvasItem17get_viewport_rectEvE16_gde_method_bind
00000000001d1680 b __ZGVZNK5godot10CanvasItem17is_y_sort_enabledEvE16_gde_method_bind
00000000001d1a70 b __ZGVZNK5godot10CanvasItem18get_texture_filterEvE16_gde_method_bind
00000000001d1a90 b __ZGVZNK5godot10CanvasItem18get_texture_repeatEvE16_gde_method_bind
00000000001d1560 b __ZGVZNK5godot10CanvasItem18is_visible_in_treeEvE16_gde_method_bind
00000000001d17f0 b __ZGVZNK5godot10CanvasItem19draw_string_outlineERKNS_3RefINS_4FontEEERKNS_7Vector2ERKNS_6StringENS_19HorizontalAlignmentEfiiRKNS_5ColorENS_8BitFieldINS_10TextServer17JustificationFlagEEENSH_9DirectionENSH_11OrientationEE16_gde_method_bind
00000000001d15c0 b __ZGVZNK5godot10CanvasItem19is_set_as_top_levelEvE16_gde_method_bind
00000000001d18e0 b __ZGVZNK5godot10CanvasItem20get_canvas_transformEvE16_gde_method_bind
00000000001d18a0 b __ZGVZNK5godot10CanvasItem20get_global_transformEvE16_gde_method_bind
00000000001d18f0 b __ZGVZNK5godot10CanvasItem20get_screen_transformEvE16_gde_method_bind
00000000001d1a30 b __ZGVZNK5godot10CanvasItem20get_visibility_layerEvE16_gde_method_bind
00000000001d17e0 b __ZGVZNK5godot10CanvasItem21draw_multiline_stringERKNS_3RefINS_4FontEEERKNS_7Vector2ERKNS_6StringENS_19HorizontalAlignmentEfiiRKNS_5ColorENS_8BitFieldINS_10TextServer13LineBreakFlagEEENSG_INSH_17JustificationFlagEEENSH_9DirectionENSH_11OrientationEE16_gde_method_bind
00000000001d1930 b __ZGVZNK5godot10CanvasItem21get_canvas_layer_nodeEvE16_gde_method_bind
00000000001d1ab0 b __ZGVZNK5godot10CanvasItem22get_clip_children_modeEvE16_gde_method_bind
00000000001d18c0 b __ZGVZNK5godot10CanvasItem22get_viewport_transformEvE16_gde_method_bind
00000000001d19a0 b __ZGVZNK5godot10CanvasItem23get_use_parent_materialEvE16_gde_method_bind
00000000001d1900 b __ZGVZNK5godot10CanvasItem24get_local_mouse_positionEvE16_gde_method_bind
00000000001d1a50 b __ZGVZNK5godot10CanvasItem24get_visibility_layer_bitEjE16_gde_method_bind
00000000001d1910 b __ZGVZNK5godot10CanvasItem25get_global_mouse_positionEvE16_gde_method_bind
00000000001d1a00 b __ZGVZNK5godot10CanvasItem26make_canvas_position_localERKNS_7Vector2EE16_gde_method_bind
00000000001d1800 b __ZGVZNK5godot10CanvasItem29draw_multiline_string_outlineERKNS_3RefINS_4FontEEERKNS_7Vector2ERKNS_6StringENS_19HorizontalAlignmentEfiiiRKNS_5ColorENS_8BitFieldINS_10TextServer13LineBreakFlagEEENSG_INSH_17JustificationFlagEEENSH_9DirectionENSH_11OrientationEE16_gde_method_bind
00000000001d1980 b __ZGVZNK5godot10CanvasItem29get_instance_shader_parameterERKNS_10StringNameEE16_gde_method_bind
00000000001d16a0 b __ZGVZNK5godot10CanvasItem29is_draw_behind_parent_enabledEvE16_gde_method_bind
00000000001d18b0 b __ZGVZNK5godot10CanvasItem32get_global_transform_with_canvasEvE16_gde_method_bind
00000000001d19e0 b __ZGVZNK5godot10CanvasItem33is_transform_notification_enabledEvE16_gde_method_bind
00000000001d19c0 b __ZGVZNK5godot10CanvasItem39is_local_transform_notification_enabledEvE16_gde_method_bind
00000000001d1810 b __ZGVZNK5godot10CanvasItem9draw_charERKNS_3RefINS_4FontEEERKNS_7Vector2ERKNS_6StringEiRKNS_5ColorEE16_gde_method_bind
00000000001d3760 b __ZGVZNK5godot10FileAccess10get_bufferExE16_gde_method_bind
00000000001d3740 b __ZGVZNK5godot10FileAccess10get_doubleEvE16_gde_method_bind
00000000001d36c0 b __ZGVZNK5godot10FileAccess10get_lengthEvE16_gde_method_bind
00000000001d36d0 b __ZGVZNK5godot10FileAccess11eof_reachedEvE16_gde_method_bind
00000000001d3790 b __ZGVZNK5godot10FileAccess11get_as_textEbE16_gde_method_bind
00000000001d3780 b __ZGVZNK5godot10FileAccess12get_csv_lineERKNS_6StringEE16_gde_method_bind
00000000001d36b0 b __ZGVZNK5godot10FileAccess12get_positionEvE16_gde_method_bind
00000000001d37c0 b __ZGVZNK5godot10FileAccess13is_big_endianEvE16_gde_method_bind
00000000001d3670 b __ZGVZNK5godot10FileAccess17get_path_absoluteEvE16_gde_method_bind
00000000001d36e0 b __ZGVZNK5godot10FileAccess5get_8EvE16_gde_method_bind
00000000001d36f0 b __ZGVZNK5godot10FileAccess6get_16EvE16_gde_method_bind
00000000001d3700 b __ZGVZNK5godot10FileAccess6get_32EvE16_gde_method_bind
00000000001d3710 b __ZGVZNK5godot10FileAccess6get_64EvE16_gde_method_bind
00000000001d37f0 b __ZGVZNK5godot10FileAccess7get_varEbE16_gde_method_bind
00000000001d3680 b __ZGVZNK5godot10FileAccess7is_openEvE16_gde_method_bind
00000000001d3720 b __ZGVZNK5godot10FileAccess8get_halfEvE16_gde_method_bind
00000000001d3770 b __ZGVZNK5godot10FileAccess8get_lineEvE16_gde_method_bind
00000000001d3660 b __ZGVZNK5godot10FileAccess8get_pathEvE16_gde_method_bind
00000000001d3750 b __ZGVZNK5godot10FileAccess8get_realEvE16_gde_method_bind
00000000001d37e0 b __ZGVZNK5godot10FileAccess9get_errorEvE16_gde_method_bind
00000000001d3730 b __ZGVZNK5godot10FileAccess9get_floatEvE16_gde_method_bind
00000000001d5220 b __ZGVZNK5godot10RefCounted19get_reference_countEvE16_gde_method_bind
00000000001d5100 b __ZGVZNK5godot11PackedScene11instantiateENS0_12GenEditStateEE16_gde_method_bind
00000000001d5110 b __ZGVZNK5godot11PackedScene15can_instantiateEvE16_gde_method_bind
00000000001d5120 b __ZGVZNK5godot11PackedScene9get_stateEvE16_gde_method_bind
00000000001d24c0 b __ZGVZNK5godot13DisplayServer11has_featureENS0_7FeatureEE16_gde_method_bind
00000000001d2e00 b __ZGVZNK5godot13DisplayServer12ime_get_textEvE16_gde_method_bind
00000000001d28a0 b __ZGVZNK5godot13DisplayServer12is_dark_modeEvE16_gde_method_bind
00000000001d2940 b __ZGVZNK5godot13DisplayServer13clipboard_getEvE16_gde_method_bind
00000000001d2960 b __ZGVZNK5godot13DisplayServer13clipboard_hasEvE16_gde_method_bind
00000000001d2810 b __ZGVZNK5godot13DisplayServer13tts_is_pausedEvE16_gde_method_bind
00000000001d28c0 b __ZGVZNK5godot13DisplayServer14get_base_colorEvE16_gde_method_bind
00000000001d28f0 b __ZGVZNK5godot13DisplayServer14mouse_get_modeEvE16_gde_method_bind
00000000001d2a30 b __ZGVZNK5godot13DisplayServer14screen_get_dpiEiE16_gde_method_bind
00000000001d2820 b __ZGVZNK5godot13DisplayServer14tts_get_voicesEvE16_gde_method_bind
00000000001d2af0 b __ZGVZNK5godot13DisplayServer15get_window_listEvE16_gde_method_bind
00000000001d2a10 b __ZGVZNK5godot13DisplayServer15screen_get_sizeEiE16_gde_method_bind
00000000001d2800 b __ZGVZNK5godot13DisplayServer15tts_is_speakingEvE16_gde_method_bind
00000000001d2d30 b __ZGVZNK5godot13DisplayServer15window_can_drawEiE16_gde_method_bind
00000000001d2cd0 b __ZGVZNK5godot13DisplayServer15window_get_flagENS0_11WindowFlagsEiE16_gde_method_bind
00000000001d2ca0 b __ZGVZNK5godot13DisplayServer15window_get_modeEiE16_gde_method_bind
00000000001d2bd0 b __ZGVZNK5godot13DisplayServer15window_get_sizeEiE16_gde_method_bind
00000000001d2e60 b __ZGVZNK5godot13DisplayServer16cursor_get_shapeEvE16_gde_method_bind
00000000001d28b0 b __ZGVZNK5godot13DisplayServer16get_accent_colorEvE16_gde_method_bind
00000000001d29c0 b __ZGVZNK5godot13DisplayServer16get_screen_countEvE16_gde_method_bind
00000000001d2a90 b __ZGVZNK5godot13DisplayServer16screen_get_imageEiE16_gde_method_bind
00000000001d2a80 b __ZGVZNK5godot13DisplayServer16screen_get_pixelERKNS_8Vector2iEE16_gde_method_bind
00000000001d2a40 b __ZGVZNK5godot13DisplayServer16screen_get_scaleEiE16_gde_method_bind
00000000001d2df0 b __ZGVZNK5godot13DisplayServer17ime_get_selectionEvE16_gde_method_bind
00000000001d2ae0 b __ZGVZNK5godot13DisplayServer17screen_is_kept_onEvE16_gde_method_bind
00000000001d2d20 b __ZGVZNK5godot13DisplayServer17window_is_focusedEiE16_gde_method_bind
00000000001d29d0 b __ZGVZNK5godot13DisplayServer18get_primary_screenEvE16_gde_method_bind
00000000001d2910 b __ZGVZNK5godot13DisplayServer18mouse_get_positionEvE16_gde_method_bind
00000000001d2950 b __ZGVZNK5godot13DisplayServer19clipboard_get_imageEvE16_gde_method_bind
00000000001d2970 b __ZGVZNK5godot13DisplayServer19clipboard_has_imageEvE16_gde_method_bind
00000000001d29a0 b __ZGVZNK5godot13DisplayServer19get_display_cutoutsEvE16_gde_method_bind
00000000001d2a00 b __ZGVZNK5godot13DisplayServer19screen_get_positionEiE16_gde_method_bind
00000000001d2c50 b __ZGVZNK5godot13DisplayServer19window_get_max_sizeEiE16_gde_method_bind
00000000001d2c70 b __ZGVZNK5godot13DisplayServer19window_get_min_sizeEiE16_gde_method_bind
00000000001d2ba0 b __ZGVZNK5godot13DisplayServer19window_get_positionEiE16_gde_method_bind
00000000001d29f0 b __ZGVZNK5godot13DisplayServer20get_screen_from_rectERKNS_5Rect2EE16_gde_method_bind
00000000001d2a60 b __ZGVZNK5godot13DisplayServer20screen_get_max_scaleEvE16_gde_method_bind
00000000001d2990 b __ZGVZNK5godot13DisplayServer21clipboard_get_primaryEvE16_gde_method_bind
00000000001d29b0 b __ZGVZNK5godot13DisplayServer21get_display_safe_areaEvE16_gde_method_bind
00000000001d2e40 b __ZGVZNK5godot13DisplayServer21has_hardware_keyboardEvE16_gde_method_bind
00000000001d2aa0 b __ZGVZNK5godot13DisplayServer21screen_get_image_rectERKNS_6Rect2iEE16_gde_method_bind
00000000001d2b60 b __ZGVZNK5godot13DisplayServer21window_get_title_sizeERKNS_6StringEiE16_gde_method_bind
00000000001d2d90 b __ZGVZNK5godot13DisplayServer21window_get_vsync_modeEiE16_gde_method_bind
00000000001d3090 b __ZGVZNK5godot13DisplayServer22has_additional_outputsEvE16_gde_method_bind
00000000001d2890 b __ZGVZNK5godot13DisplayServer22is_dark_mode_supportedEvE16_gde_method_bind
00000000001d2920 b __ZGVZNK5godot13DisplayServer22mouse_get_button_stateEvE16_gde_method_bind
00000000001d2ac0 b __ZGVZNK5godot13DisplayServer22screen_get_orientationEiE16_gde_method_bind
00000000001d2a20 b __ZGVZNK5godot13DisplayServer22screen_get_usable_rectEiE16_gde_method_bind
00000000001d3030 b __ZGVZNK5godot13DisplayServer22tablet_get_driver_nameEiE16_gde_method_bind
00000000001d2a70 b __ZGVZNK5godot13DisplayServer23screen_get_refresh_rateEiE16_gde_method_bind
00000000001d3020 b __ZGVZNK5godot13DisplayServer23tablet_get_driver_countEvE16_gde_method_bind
00000000001d2b20 b __ZGVZNK5godot13DisplayServer23window_get_active_popupEvE16_gde_method_bind
00000000001d2600 b __ZGVZNK5godot13DisplayServer24global_menu_get_item_tagERKNS_6StringEiE16_gde_method_bind
00000000001d2a50 b __ZGVZNK5godot13DisplayServer24is_touchscreen_availableEvE16_gde_method_bind
00000000001d2f30 b __ZGVZNK5godot13DisplayServer24keyboard_get_layout_nameEiE16_gde_method_bind
00000000001d2b10 b __ZGVZNK5godot13DisplayServer24window_get_native_handleENS0_10HandleTypeEiE16_gde_method_bind
00000000001d29e0 b __ZGVZNK5godot13DisplayServer25get_keyboard_focus_screenEvE16_gde_method_bind
00000000001d2690 b __ZGVZNK5godot13DisplayServer25global_menu_get_item_iconERKNS_6StringEiE16_gde_method_bind
00000000001d2610 b __ZGVZNK5godot13DisplayServer25global_menu_get_item_textERKNS_6StringEiE16_gde_method_bind
00000000001d2ef0 b __ZGVZNK5godot13DisplayServer25keyboard_get_layout_countEvE16_gde_method_bind
00000000001d3000 b __ZGVZNK5godot13DisplayServer25status_indicator_get_rectEiE16_gde_method_bind
00000000001d3040 b __ZGVZNK5godot13DisplayServer25tablet_get_current_driverEvE16_gde_method_bind
00000000001d2b80 b __ZGVZNK5godot13DisplayServer25window_get_current_screenEiE16_gde_method_bind
00000000001d27c0 b __ZGVZNK5godot13DisplayServer26global_menu_get_item_countERKNS_6StringEE16_gde_method_bind
00000000001d2670 b __ZGVZNK5godot13DisplayServer26global_menu_get_item_stateERKNS_6StringEiE16_gde_method_bind
00000000001d2650 b __ZGVZNK5godot13DisplayServer26global_menu_is_item_hiddenERKNS_6StringEiE16_gde_method_bind
00000000001d2b40 b __ZGVZNK5godot13DisplayServer26window_get_popup_safe_rectEiE16_gde_method_bind
00000000001d2da0 b __ZGVZNK5godot13DisplayServer26window_is_maximize_allowedEiE16_gde_method_bind
00000000001d25b0 b __ZGVZNK5godot13DisplayServer27global_menu_is_item_checkedERKNS_6StringEiE16_gde_method_bind
00000000001d2f00 b __ZGVZNK5godot13DisplayServer27keyboard_get_current_layoutEvE16_gde_method_bind
00000000001d2830 b __ZGVZNK5godot13DisplayServer27tts_get_voices_for_languageERKNS_6StringEE16_gde_method_bind
00000000001d2e30 b __ZGVZNK5godot13DisplayServer27virtual_keyboard_get_heightEvE16_gde_method_bind
00000000001d2620 b __ZGVZNK5godot13DisplayServer28global_menu_get_item_submenuERKNS_6StringEiE16_gde_method_bind
00000000001d2660 b __ZGVZNK5godot13DisplayServer28global_menu_get_item_tooltipERKNS_6StringEiE16_gde_method_bind
00000000001d2640 b __ZGVZNK5godot13DisplayServer28global_menu_is_item_disabledERKNS_6StringEiE16_gde_method_bind
00000000001d2f20 b __ZGVZNK5godot13DisplayServer28keyboard_get_layout_languageEiE16_gde_method_bind
00000000001d2f60 b __ZGVZNK5godot13DisplayServer28show_emoji_and_symbol_pickerEvE16_gde_method_bind
00000000001d2b00 b __ZGVZNK5godot13DisplayServer29get_window_at_screen_positionERKNS_8Vector2iEE16_gde_method_bind
00000000001d25e0 b __ZGVZNK5godot13DisplayServer29global_menu_get_item_callbackERKNS_6StringEiE16_gde_method_bind
00000000001d25c0 b __ZGVZNK5godot13DisplayServer29global_menu_is_item_checkableERKNS_6StringEiE16_gde_method_bind
00000000001d2cf0 b __ZGVZNK5godot13DisplayServer29window_get_safe_title_marginsEiE16_gde_method_bind
00000000001d2680 b __ZGVZNK5godot13DisplayServer31global_menu_get_item_max_statesERKNS_6StringEiE16_gde_method_bind
00000000001d2c40 b __ZGVZNK5godot13DisplayServer31window_get_attached_instance_idEiE16_gde_method_bind
00000000001d2630 b __ZGVZNK5godot13DisplayServer32global_menu_get_item_acceleratorERKNS_6StringEiE16_gde_method_bind
00000000001d3060 b __ZGVZNK5godot13DisplayServer32is_window_transparency_availableEvE16_gde_method_bind
00000000001d2f50 b __ZGVZNK5godot13DisplayServer32keyboard_get_label_from_physicalENS_3KeyEE16_gde_method_bind
00000000001d2c90 b __ZGVZNK5godot13DisplayServer32window_get_size_with_decorationsEiE16_gde_method_bind
00000000001d25f0 b __ZGVZNK5godot13DisplayServer33global_menu_get_item_key_callbackERKNS_6StringEiE16_gde_method_bind
00000000001d27f0 b __ZGVZNK5godot13DisplayServer33global_menu_get_system_menu_rootsEvE16_gde_method_bind
00000000001d2f40 b __ZGVZNK5godot13DisplayServer34keyboard_get_keycode_from_physicalENS_3KeyEE16_gde_method_bind
00000000001d2db0 b __ZGVZNK5godot13DisplayServer34window_maximize_on_title_dbl_clickEvE16_gde_method_bind
00000000001d2dc0 b __ZGVZNK5godot13DisplayServer34window_minimize_on_title_dbl_clickEvE16_gde_method_bind
00000000001d25a0 b __ZGVZNK5godot13DisplayServer35global_menu_get_item_index_from_tagERKNS_6StringERKNS_7VariantEE16_gde_method_bind
00000000001d25d0 b __ZGVZNK5godot13DisplayServer35global_menu_is_item_radio_checkableERKNS_6StringEiE16_gde_method_bind
00000000001d2590 b __ZGVZNK5godot13DisplayServer36global_menu_get_item_index_from_textERKNS_6StringES3_E16_gde_method_bind
00000000001d2bb0 b __ZGVZNK5godot13DisplayServer36window_get_position_with_decorationsEiE16_gde_method_bind
00000000001d26a0 b __ZGVZNK5godot13DisplayServer38global_menu_get_item_indentation_levelERKNS_6StringEiE16_gde_method_bind
00000000001d2ee0 b __ZGVZNK5godot13DisplayServer4beepEvE16_gde_method_bind
00000000001d24d0 b __ZGVZNK5godot13DisplayServer8get_nameEvE16_gde_method_bind
00000000001d3390 b __ZGVZNK5godot13FastNoiseLite10get_offsetEvE16_gde_method_bind
00000000001d3370 b __ZGVZNK5godot13FastNoiseLite13get_frequencyEvE16_gde_method_bind
00000000001d3330 b __ZGVZNK5godot13FastNoiseLite14get_noise_typeEvE16_gde_method_bind
00000000001d3410 b __ZGVZNK5godot13FastNoiseLite16get_fractal_gainEvE16_gde_method_bind
00000000001d33b0 b __ZGVZNK5godot13FastNoiseLite16get_fractal_typeEvE16_gde_method_bind
00000000001d3490 b __ZGVZNK5godot13FastNoiseLite19get_cellular_jitterEvE16_gde_method_bind
00000000001d33d0 b __ZGVZNK5godot13FastNoiseLite19get_fractal_octavesEvE16_gde_method_bind
00000000001d34f0 b __ZGVZNK5godot13FastNoiseLite20get_domain_warp_typeEvE16_gde_method_bind
00000000001d33f0 b __ZGVZNK5godot13FastNoiseLite22get_fractal_lacunarityEvE16_gde_method_bind
00000000001d34d0 b __ZGVZNK5godot13FastNoiseLite22is_domain_warp_enabledEvE16_gde_method_bind
00000000001d34b0 b __ZGVZNK5godot13FastNoiseLite24get_cellular_return_typeEvE16_gde_method_bind
00000000001d3510 b __ZGVZNK5godot13FastNoiseLite25get_domain_warp_amplitudeEvE16_gde_method_bind
00000000001d3530 b __ZGVZNK5godot13FastNoiseLite25get_domain_warp_frequencyEvE16_gde_method_bind
00000000001d35b0 b __ZGVZNK5godot13FastNoiseLite28get_domain_warp_fractal_gainEvE16_gde_method_bind
00000000001d3550 b __ZGVZNK5godot13FastNoiseLite28get_domain_warp_fractal_typeEvE16_gde_method_bind
00000000001d3430 b __ZGVZNK5godot13FastNoiseLite29get_fractal_weighted_strengthEvE16_gde_method_bind
00000000001d3470 b __ZGVZNK5godot13FastNoiseLite30get_cellular_distance_functionEvE16_gde_method_bind
00000000001d3450 b __ZGVZNK5godot13FastNoiseLite30get_fractal_ping_pong_strengthEvE16_gde_method_bind
00000000001d3570 b __ZGVZNK5godot13FastNoiseLite31get_domain_warp_fractal_octavesEvE16_gde_method_bind
00000000001d3590 b __ZGVZNK5godot13FastNoiseLite34get_domain_warp_fractal_lacunarityEvE16_gde_method_bind
00000000001d3350 b __ZGVZNK5godot13FastNoiseLite8get_seedEvE16_gde_method_bind
00000000001d51b0 b __ZGVZNK5godot13PrimitiveMesh11get_add_uv2EvE16_gde_method_bind
00000000001d5140 b __ZGVZNK5godot13PrimitiveMesh12get_materialEvE16_gde_method_bind
00000000001d5190 b __ZGVZNK5godot13PrimitiveMesh14get_flip_facesEvE16_gde_method_bind
00000000001d5170 b __ZGVZNK5godot13PrimitiveMesh15get_custom_aabbEvE16_gde_method_bind
00000000001d5150 b __ZGVZNK5godot13PrimitiveMesh15get_mesh_arraysEvE16_gde_method_bind
00000000001d51d0 b __ZGVZNK5godot13PrimitiveMesh15get_uv2_paddingEvE16_gde_method_bind
00000000001d40a0 b __ZGVZNK5godot14MeshInstance3D18get_skin_referenceEvE16_gde_method_bind
00000000001d40e0 b __ZGVZNK5godot14MeshInstance3D19get_active_materialEiE16_gde_method_bind
00000000001d4120 b __ZGVZNK5godot14MeshInstance3D21get_blend_shape_countEvE16_gde_method_bind
00000000001d4140 b __ZGVZNK5godot14MeshInstance3D21get_blend_shape_valueEiE16_gde_method_bind
00000000001d40d0 b __ZGVZNK5godot14MeshInstance3D29get_surface_override_materialEiE16_gde_method_bind
00000000001d40b0 b __ZGVZNK5godot14MeshInstance3D35get_surface_override_material_countEvE16_gde_method_bind
00000000001d4050 b __ZGVZNK5godot14MeshInstance3D8get_meshEvE16_gde_method_bind
00000000001d4090 b __ZGVZNK5godot14MeshInstance3D8get_skinEvE16_gde_method_bind
00000000001d1b20 b __ZGVZNK5godot16ClassDBSingleton11instantiateERKNS_10StringNameEE16_gde_method_bind
00000000001d1af0 b __ZGVZNK5godot16ClassDBSingleton12class_existsERKNS_10StringNameEE16_gde_method_bind
00000000001d1c40 b __ZGVZNK5godot16ClassDBSingleton14class_has_enumERKNS_10StringNameES3_bE16_gde_method_bind
00000000001d1ac0 b __ZGVZNK5godot16ClassDBSingleton14get_class_listEvE16_gde_method_bind
00000000001d1b10 b __ZGVZNK5godot16ClassDBSingleton15can_instantiateERKNS_10StringNameEE16_gde_method_bind
00000000001d1b00 b __ZGVZNK5godot16ClassDBSingleton15is_parent_classERKNS_10StringNameES3_E16_gde_method_bind
00000000001d1b50 b __ZGVZNK5godot16ClassDBSingleton16class_get_signalERKNS_10StringNameES3_E16_gde_method_bind
00000000001d1bd0 b __ZGVZNK5godot16ClassDBSingleton16class_has_methodERKNS_10StringNameES3_bE16_gde_method_bind
00000000001d1b40 b __ZGVZNK5godot16ClassDBSingleton16class_has_signalERKNS_10StringNameES3_E16_gde_method_bind
00000000001d1ae0 b __ZGVZNK5godot16ClassDBSingleton16get_parent_classERKNS_10StringNameEE16_gde_method_bind
00000000001d1c90 b __ZGVZNK5godot16ClassDBSingleton16is_class_enabledERKNS_10StringNameEE16_gde_method_bind
00000000001d1b30 b __ZGVZNK5godot16ClassDBSingleton18class_get_api_typeERKNS_10StringNameEE16_gde_method_bind
00000000001d1ba0 b __ZGVZNK5godot16ClassDBSingleton18class_get_propertyEPNS_6ObjectERKNS_10StringNameEE16_gde_method_bind
00000000001d1bb0 b __ZGVZNK5godot16ClassDBSingleton18class_set_propertyEPNS_6ObjectERKNS_10StringNameERKNS_7VariantEE16_gde_method_bind
00000000001d1c50 b __ZGVZNK5godot16ClassDBSingleton19class_get_enum_listERKNS_10StringNameEbE16_gde_method_bind
00000000001d1bf0 b __ZGVZNK5godot16ClassDBSingleton21class_get_method_listERKNS_10StringNameEbE16_gde_method_bind
00000000001d1b60 b __ZGVZNK5godot16ClassDBSingleton21class_get_signal_listERKNS_10StringNameEbE16_gde_method_bind
00000000001d1c80 b __ZGVZNK5godot16ClassDBSingleton22is_class_enum_bitfieldERKNS_10StringNameES3_bE16_gde_method_bind
00000000001d1b70 b __ZGVZNK5godot16ClassDBSingleton23class_get_property_listERKNS_10StringNameEbE16_gde_method_bind
00000000001d1c60 b __ZGVZNK5godot16ClassDBSingleton24class_get_enum_constantsERKNS_10StringNameES3_bE16_gde_method_bind
00000000001d1ad0 b __ZGVZNK5godot16ClassDBSingleton25get_inheriters_from_classERKNS_10StringNameEE16_gde_method_bind
00000000001d1c30 b __ZGVZNK5godot16ClassDBSingleton26class_get_integer_constantERKNS_10StringNameES3_E16_gde_method_bind
00000000001d1c20 b __ZGVZNK5godot16ClassDBSingleton26class_has_integer_constantERKNS_10StringNameES3_E16_gde_method_bind
00000000001d1c70 b __ZGVZNK5godot16ClassDBSingleton31class_get_integer_constant_enumERKNS_10StringNameES3_bE16_gde_method_bind
00000000001d1c10 b __ZGVZNK5godot16ClassDBSingleton31class_get_integer_constant_listERKNS_10StringNameEbE16_gde_method_bind
00000000001d1be0 b __ZGVZNK5godot16ClassDBSingleton31class_get_method_argument_countERKNS_10StringNameES3_bE16_gde_method_bind
00000000001d1bc0 b __ZGVZNK5godot16ClassDBSingleton32class_get_property_default_valueERKNS_10StringNameES3_E16_gde_method_bind
00000000001d5590 b __ZGVZNK5godot16VisualInstance3D12get_instanceEvE16_gde_method_bind
00000000001d55b0 b __ZGVZNK5godot16VisualInstance3D14get_layer_maskEvE16_gde_method_bind
00000000001d55f0 b __ZGVZNK5godot16VisualInstance3D18get_sorting_offsetEvE16_gde_method_bind
00000000001d55d0 b __ZGVZNK5godot16VisualInstance3D20get_layer_mask_valueEiE16_gde_method_bind
00000000001d5610 b __ZGVZNK5godot16VisualInstance3D26is_sorting_use_aabb_centerEvE16_gde_method_bind
00000000001d5620 b __ZGVZNK5godot16VisualInstance3D8get_aabbEvE16_gde_method_bind
00000000001d5580 b __ZGVZNK5godot16VisualInstance3D8get_baseEvE16_gde_method_bind
00000000001d3b50 b __ZGVZNK5godot18GeometryInstance3D11get_gi_modeEvE16_gde_method_bind
00000000001d39f0 b __ZGVZNK5godot18GeometryInstance3D12get_lod_biasEvE16_gde_method_bind
00000000001d3b90 b __ZGVZNK5godot18GeometryInstance3D15get_custom_aabbEvE16_gde_method_bind
00000000001d3a10 b __ZGVZNK5godot18GeometryInstance3D16get_transparencyEvE16_gde_method_bind
00000000001d3b30 b __ZGVZNK5godot18GeometryInstance3D18get_lightmap_scaleEvE16_gde_method_bind
00000000001d39b0 b __ZGVZNK5godot18GeometryInstance3D20get_material_overlayEvE16_gde_method_bind
00000000001d3af0 b __ZGVZNK5godot18GeometryInstance3D21get_extra_cull_marginEvE16_gde_method_bind
00000000001d3990 b __ZGVZNK5godot18GeometryInstance3D21get_material_overrideEvE16_gde_method_bind
00000000001d39d0 b __ZGVZNK5godot18GeometryInstance3D24get_cast_shadows_settingEvE16_gde_method_bind
00000000001d3b10 b __ZGVZNK5godot18GeometryInstance3D24get_lightmap_texel_scaleEvE16_gde_method_bind
00000000001d3a50 b __ZGVZNK5godot18GeometryInstance3D24get_visibility_range_endEvE16_gde_method_bind
00000000001d3a90 b __ZGVZNK5godot18GeometryInstance3D26get_visibility_range_beginEvE16_gde_method_bind
00000000001d3ad0 b __ZGVZNK5godot18GeometryInstance3D29get_instance_shader_parameterERKNS_10StringNameEE16_gde_method_bind
00000000001d3ab0 b __ZGVZNK5godot18GeometryInstance3D30get_visibility_range_fade_modeEvE16_gde_method_bind
00000000001d3a30 b __ZGVZNK5godot18GeometryInstance3D31get_visibility_range_end_marginEvE16_gde_method_bind
00000000001d3a70 b __ZGVZNK5godot18GeometryInstance3D33get_visibility_range_begin_marginEvE16_gde_method_bind
00000000001d4020 b __ZGVZNK5godot4Mesh14create_outlineEfE16_gde_method_bind
00000000001d3fa0 b __ZGVZNK5godot4Mesh17get_surface_countEvE16_gde_method_bind
00000000001d3ff0 b __ZGVZNK5godot4Mesh18create_placeholderEvE16_gde_method_bind
00000000001d3fb0 b __ZGVZNK5godot4Mesh18surface_get_arraysEiE16_gde_method_bind
00000000001d4010 b __ZGVZNK5godot4Mesh19create_convex_shapeEbbE16_gde_method_bind
00000000001d4000 b __ZGVZNK5godot4Mesh20create_trimesh_shapeEvE16_gde_method_bind
00000000001d3fe0 b __ZGVZNK5godot4Mesh20surface_get_materialEiE16_gde_method_bind
00000000001d4030 b __ZGVZNK5godot4Mesh22generate_triangle_meshEvE16_gde_method_bind
00000000001d3f70 b __ZGVZNK5godot4Mesh22get_lightmap_size_hintEvE16_gde_method_bind
00000000001d3fc0 b __ZGVZNK5godot4Mesh30surface_get_blend_shape_arraysEiE16_gde_method_bind
00000000001d3f80 b __ZGVZNK5godot4Mesh8get_aabbEvE16_gde_method_bind
00000000001d3f90 b __ZGVZNK5godot4Mesh9get_facesEvE16_gde_method_bind
00000000001d4270 b __ZGVZNK5godot4Node10find_childERKNS_6StringEbbE16_gde_method_bind
00000000001d4360 b __ZGVZNK5godot4Node10get_groupsEvE16_gde_method_bind
00000000001d4260 b __ZGVZNK5godot4Node10get_parentEvE16_gde_method_bind
00000000001d46b0 b __ZGVZNK5godot4Node10get_windowEvE16_gde_method_bind
00000000001d4560 b __ZGVZNK5godot4Node11can_processEvE16_gde_method_bind
00000000001d4290 b __ZGVZNK5godot4Node11find_parentERKNS_6StringEE16_gde_method_bind
00000000001d4310 b __ZGVZNK5godot4Node11get_path_toEPS0_bE16_gde_method_bind
00000000001d4340 b __ZGVZNK5godot4Node11is_in_groupERKNS_10StringNameEE16_gde_method_bind
00000000001d4210 b __ZGVZNK5godot4Node12get_childrenEbE16_gde_method_bind
00000000001d4750 b __ZGVZNK5godot4Node12get_viewportEvE16_gde_method_bind
00000000001d4280 b __ZGVZNK5godot4Node13find_childrenERKNS_6StringES3_bbE16_gde_method_bind
00000000001d4780 b __ZGVZNK5godot4Node13is_node_readyEvE16_gde_method_bind
00000000001d44b0 b __ZGVZNK5godot4Node13is_processingEvE16_gde_method_bind
00000000001d47e0 b __ZGVZNK5godot4Node14get_rpc_configEvE16_gde_method_bind
00000000001d42e0 b __ZGVZNK5godot4Node14is_ancestor_ofEPS0_E16_gde_method_bind
00000000001d42c0 b __ZGVZNK5godot4Node14is_inside_treeEvE16_gde_method_bind
00000000001d4200 b __ZGVZNK5godot4Node15get_child_countEbE16_gde_method_bind
00000000001d47c0 b __ZGVZNK5godot4Node15get_multiplayerEvE16_gde_method_bind
00000000001d42f0 b __ZGVZNK5godot4Node15is_greater_thanEPS0_E16_gde_method_bind
00000000001d4250 b __ZGVZNK5godot4Node16get_node_or_nullERKNS_8NodePathEE16_gde_method_bind
00000000001d4550 b __ZGVZNK5godot4Node16get_process_modeEvE16_gde_method_bind
00000000001d4240 b __ZGVZNK5godot4Node17get_node_internalERKNS_8NodePathEE16_gde_method_bind
00000000001d43f0 b __ZGVZNK5godot4Node19get_scene_file_pathEvE16_gde_method_bind
00000000001d45e0 b __ZGVZNK5godot4Node19is_displayed_foldedEvE16_gde_method_bind
00000000001d44d0 b __ZGVZNK5godot4Node19is_processing_inputEvE16_gde_method_bind
00000000001d4480 b __ZGVZNK5godot4Node20get_process_priorityEvE16_gde_method_bind
00000000001d4740 b __ZGVZNK5godot4Node20is_editable_instanceEPS0_E16_gde_method_bind
00000000001d42a0 b __ZGVZNK5godot4Node21has_node_and_resourceERKNS_8NodePathEE16_gde_method_bind
00000000001d4440 b __ZGVZNK5godot4Node21is_physics_processingEvE16_gde_method_bind
00000000001d4800 b __ZGVZNK5godot4Node22get_editor_descriptionEvE16_gde_method_bind
00000000001d4450 b __ZGVZNK5godot4Node22get_process_delta_timeEvE16_gde_method_bind
00000000001d4600 b __ZGVZNK5godot4Node22is_processing_internalEvE16_gde_method_bind
00000000001d4690 b __ZGVZNK5godot4Node23get_auto_translate_modeEvE16_gde_method_bind
00000000001d42d0 b __ZGVZNK5godot4Node23is_part_of_edited_sceneEvE16_gde_method_bind
00000000001d4650 b __ZGVZNK5godot4Node23is_physics_interpolatedEvE16_gde_method_bind
00000000001d4820 b __ZGVZNK5godot4Node23is_unique_name_in_ownerEvE16_gde_method_bind
00000000001d4580 b __ZGVZNK5godot4Node24get_process_thread_groupEvE16_gde_method_bind
00000000001d47b0 b __ZGVZNK5godot4Node24is_multiplayer_authorityEvE16_gde_method_bind
00000000001d46c0 b __ZGVZNK5godot4Node25get_last_exclusive_windowEvE16_gde_method_bind
00000000001d47a0 b __ZGVZNK5godot4Node25get_multiplayer_authorityEvE16_gde_method_bind
00000000001d45a0 b __ZGVZNK5godot4Node27get_process_thread_messagesEvE16_gde_method_bind
00000000001d44a0 b __ZGVZNK5godot4Node28get_physics_process_priorityEvE16_gde_method_bind
00000000001d44f0 b __ZGVZNK5godot4Node28is_processing_shortcut_inputEvE16_gde_method_bind
00000000001d4510 b __ZGVZNK5godot4Node29is_processing_unhandled_inputEvE16_gde_method_bind
00000000001d4640 b __ZGVZNK5godot4Node30get_physics_interpolation_modeEvE16_gde_method_bind
00000000001d4430 b __ZGVZNK5godot4Node30get_physics_process_delta_timeEvE16_gde_method_bind
00000000001d45c0 b __ZGVZNK5godot4Node30get_process_thread_group_orderEvE16_gde_method_bind
00000000001d4620 b __ZGVZNK5godot4Node30is_physics_processing_internalEvE16_gde_method_bind
00000000001d4530 b __ZGVZNK5godot4Node33is_processing_unhandled_key_inputEvE16_gde_method_bind
00000000001d4720 b __ZGVZNK5godot4Node35get_scene_instance_load_placeholderEvE16_gde_method_bind
00000000001d4660 b __ZGVZNK5godot4Node35is_physics_interpolated_and_enabledEvE16_gde_method_bind
00000000001d4830 b __ZGVZNK5godot4Node3atrERKNS_6StringERKNS_10StringNameEE16_gde_method_bind
00000000001d4840 b __ZGVZNK5godot4Node5atr_nERKNS_6StringERKNS_10StringNameEiS6_E16_gde_method_bind
00000000001d41c0 b __ZGVZNK5godot4Node8get_nameEvE16_gde_method_bind
00000000001d4300 b __ZGVZNK5godot4Node8get_pathEvE16_gde_method_bind
00000000001d46d0 b __ZGVZNK5godot4Node8get_treeEvE16_gde_method_bind
00000000001d4230 b __ZGVZNK5godot4Node8has_nodeERKNS_8NodePathEE16_gde_method_bind
00000000001d46f0 b __ZGVZNK5godot4Node9duplicateEiE16_gde_method_bind
00000000001d4220 b __ZGVZNK5godot4Node9get_childEibE16_gde_method_bind
00000000001d4390 b __ZGVZNK5godot4Node9get_indexEbE16_gde_method_bind
00000000001d4380 b __ZGVZNK5godot4Node9get_ownerEvE16_gde_method_bind
00000000001d3c60 b __ZGVZNK5godot5Input10get_vectorERKNS_10StringNameES3_S3_S3_fE16_gde_method_bind
00000000001d3d50 b __ZGVZNK5godot5Input11get_gravityEvE16_gde_method_bind
00000000001d3ca0 b __ZGVZNK5godot5Input12get_joy_axisEiNS_7JoyAxisEE16_gde_method_bind
00000000001d3cc0 b __ZGVZNK5godot5Input12get_joy_guidEiE16_gde_method_bind
00000000001d3cd0 b __ZGVZNK5godot5Input12get_joy_infoEiE16_gde_method_bind
00000000001d3d80 b __ZGVZNK5godot5Input13get_gyroscopeEvE16_gde_method_bind
00000000001d3e10 b __ZGVZNK5godot5Input14get_mouse_modeEvE16_gde_method_bind
00000000001d3bb0 b __ZGVZNK5godot5Input14is_key_pressedENS_3KeyEE16_gde_method_bind
00000000001d3d70 b __ZGVZNK5godot5Input16get_magnetometerEvE16_gde_method_bind
00000000001d3d60 b __ZGVZNK5godot5Input17get_accelerometerEvE16_gde_method_bind
00000000001d3c00 b __ZGVZNK5godot5Input17is_action_pressedERKNS_10StringNameEbE16_gde_method_bind
00000000001d3c30 b __ZGVZNK5godot5Input19get_action_strengthERKNS_10StringNameEbE16_gde_method_bind
00000000001d3ba0 b __ZGVZNK5godot5Input19is_anything_pressedEvE16_gde_method_bind
00000000001d3bd0 b __ZGVZNK5godot5Input20is_key_label_pressedENS_3KeyEE16_gde_method_bind
00000000001d3ce0 b __ZGVZNK5godot5Input20should_ignore_deviceEiiE16_gde_method_bind
00000000001d3df0 b __ZGVZNK5godot5Input21get_mouse_button_maskEvE16_gde_method_bind
00000000001d3bf0 b __ZGVZNK5godot5Input21is_joy_button_pressedEiNS_9JoyButtonEE16_gde_method_bind
00000000001d3c10 b __ZGVZNK5godot5Input22is_action_just_pressedERKNS_10StringNameEbE16_gde_method_bind
00000000001d3c40 b __ZGVZNK5godot5Input23get_action_raw_strengthERKNS_10StringNameEbE16_gde_method_bind
00000000001d3c20 b __ZGVZNK5godot5Input23is_action_just_releasedERKNS_10StringNameEbE16_gde_method_bind
00000000001d3be0 b __ZGVZNK5godot5Input23is_mouse_button_pressedENS_11MouseButtonEE16_gde_method_bind
00000000001d3bc0 b __ZGVZNK5godot5Input23is_physical_key_pressedENS_3KeyEE16_gde_method_bind
00000000001d3e60 b __ZGVZNK5godot5Input24get_current_cursor_shapeEvE16_gde_method_bind
00000000001d3ed0 b __ZGVZNK5godot5Input29is_emulating_mouse_from_touchEvE16_gde_method_bind
00000000001d3ef0 b __ZGVZNK5godot5Input29is_emulating_touch_from_mouseEvE16_gde_method_bind
00000000001d3c50 b __ZGVZNK5godot5Input8get_axisERKNS_10StringNameES3_E16_gde_method_bind
00000000001d4dc0 b __ZGVZNK5godot5Noise12get_image_3dEiiibbE16_gde_method_bind
00000000001d4d50 b __ZGVZNK5godot5Noise12get_noise_1dEfE16_gde_method_bind
00000000001d4d60 b __ZGVZNK5godot5Noise12get_noise_2dEffE16_gde_method_bind
00000000001d4d80 b __ZGVZNK5godot5Noise12get_noise_3dEfffE16_gde_method_bind
00000000001d4d70 b __ZGVZNK5godot5Noise13get_noise_2dvERKNS_7Vector2EE16_gde_method_bind
00000000001d4d90 b __ZGVZNK5godot5Noise13get_noise_3dvERKNS_7Vector3EE16_gde_method_bind
00000000001d4db0 b __ZGVZNK5godot5Noise18get_seamless_imageEiibbfbE16_gde_method_bind
00000000001d4dd0 b __ZGVZNK5godot5Noise21get_seamless_image_3dEiiibfbE16_gde_method_bind
00000000001d4da0 b __ZGVZNK5godot5Noise9get_imageEiibbbE16_gde_method_bind
00000000001d0ff8 b __ZGVZNK5godot5Plane28get_any_perpendicular_normalEvE2p1
00000000001d1010 b __ZGVZNK5godot5Plane28get_any_perpendicular_normalEvE2p2
00000000001d1440 b __ZGVZNK5godot6Button12get_languageEvE16_gde_method_bind
00000000001d14a0 b __ZGVZNK5godot6Button13get_clip_textEvE16_gde_method_bind
00000000001d1520 b __ZGVZNK5godot6Button14is_expand_iconEvE16_gde_method_bind
00000000001d1460 b __ZGVZNK5godot6Button15get_button_iconEvE16_gde_method_bind
00000000001d1400 b __ZGVZNK5godot6Button17get_autowrap_modeEvE16_gde_method_bind
00000000001d14e0 b __ZGVZNK5godot6Button18get_icon_alignmentEvE16_gde_method_bind
00000000001d14c0 b __ZGVZNK5godot6Button18get_text_alignmentEvE16_gde_method_bind
00000000001d1420 b __ZGVZNK5godot6Button18get_text_directionEvE16_gde_method_bind
00000000001d13e0 b __ZGVZNK5godot6Button25get_text_overrun_behaviorEvE16_gde_method_bind
00000000001d1500 b __ZGVZNK5godot6Button27get_vertical_icon_alignmentEvE16_gde_method_bind
00000000001d1480 b __ZGVZNK5godot6Button7is_flatEvE16_gde_method_bind
00000000001d13c0 b __ZGVZNK5godot6Button8get_textEvE16_gde_method_bind
00000000001d3120 b __ZGVZNK5godot6Engine11get_max_fpsEvE16_gde_method_bind
00000000001d3190 b __ZGVZNK5godot6Engine13get_main_loopEvE16_gde_method_bind
00000000001d3230 b __ZGVZNK5godot6Engine13get_singletonERKNS_10StringNameEE16_gde_method_bind
00000000001d3220 b __ZGVZNK5godot6Engine13has_singletonERKNS_10StringNameEE16_gde_method_bind
00000000001d31d0 b __ZGVZNK5godot6Engine14get_donor_infoEvE16_gde_method_bind
00000000001d32b0 b __ZGVZNK5godot6Engine14is_editor_hintEvE16_gde_method_bind
00000000001d31b0 b __ZGVZNK5godot6Engine15get_author_infoEvE16_gde_method_bind
00000000001d31e0 b __ZGVZNK5godot6Engine16get_license_infoEvE16_gde_method_bind
00000000001d31f0 b __ZGVZNK5godot6Engine16get_license_textEvE16_gde_method_bind
00000000001d31a0 b __ZGVZNK5godot6Engine16get_version_infoEvE16_gde_method_bind
00000000001d31c0 b __ZGVZNK5godot6Engine18get_copyright_infoEvE16_gde_method_bind
00000000001d3170 b __ZGVZNK5godot6Engine18get_physics_framesEvE16_gde_method_bind
00000000001d3180 b __ZGVZNK5godot6Engine18get_process_framesEvE16_gde_method_bind
00000000001d3260 b __ZGVZNK5godot6Engine18get_singleton_listEvE16_gde_method_bind
00000000001d32a0 b __ZGVZNK5godot6Engine19get_script_languageEiE16_gde_method_bind
00000000001d3210 b __ZGVZNK5godot6Engine19is_in_physics_frameEvE16_gde_method_bind
00000000001d32d0 b __ZGVZNK5godot6Engine20get_write_movie_pathEvE16_gde_method_bind
00000000001d3200 b __ZGVZNK5godot6Engine21get_architecture_nameEvE16_gde_method_bind
00000000001d3160 b __ZGVZNK5godot6Engine21get_frames_per_secondEvE16_gde_method_bind
00000000001d32c0 b __ZGVZNK5godot6Engine21is_embedded_in_editorEvE16_gde_method_bind
00000000001d32f0 b __ZGVZNK5godot6Engine21is_printing_to_stdoutEvE16_gde_method_bind
00000000001d30f0 b __ZGVZNK5godot6Engine22get_physics_jitter_fixEvE16_gde_method_bind
00000000001d3310 b __ZGVZNK5godot6Engine26is_printing_error_messagesEvE16_gde_method_bind
00000000001d30b0 b __ZGVZNK5godot6Engine28get_physics_ticks_per_secondEvE16_gde_method_bind
00000000001d30d0 b __ZGVZNK5godot6Engine31get_max_physics_steps_per_frameEvE16_gde_method_bind
00000000001d3100 b __ZGVZNK5godot6Engine34get_physics_interpolation_fractionEvE16_gde_method_bind
00000000001d4b70 b __ZGVZNK5godot6Node3D10get_gizmosEvE16_gde_method_bind
00000000001d4bc0 b __ZGVZNK5godot6Node3D10is_visibleEvE16_gde_method_bind
00000000001d4910 b __ZGVZNK5godot6Node3D12get_positionEvE16_gde_method_bind
00000000001d4930 b __ZGVZNK5godot6Node3D12get_rotationEvE16_gde_method_bind
00000000001d4b10 b __ZGVZNK5godot6Node3D12get_world_3dEvE16_gde_method_bind
00000000001d48f0 b __ZGVZNK5godot6Node3D13get_transformEvE16_gde_method_bind
00000000001d49d0 b __ZGVZNK5godot6Node3D14get_quaternionEvE16_gde_method_bind
00000000001d4a60 b __ZGVZNK5godot6Node3D16get_global_basisEvE16_gde_method_bind
00000000001d4b00 b __ZGVZNK5godot6Node3D17is_scale_disabledEvE16_gde_method_bind
00000000001d4ab0 b __ZGVZNK5godot6Node3D18get_parent_node_3dEvE16_gde_method_bind
00000000001d4970 b __ZGVZNK5godot6Node3D18get_rotation_orderEvE16_gde_method_bind
00000000001d4bd0 b __ZGVZNK5godot6Node3D18is_visible_in_treeEvE16_gde_method_bind
00000000001d4a40 b __ZGVZNK5godot6Node3D19get_global_positionEvE16_gde_method_bind
00000000001d4a80 b __ZGVZNK5godot6Node3D19get_global_rotationEvE16_gde_method_bind
00000000001d4ae0 b __ZGVZNK5godot6Node3D19is_set_as_top_levelEvE16_gde_method_bind
00000000001d4a10 b __ZGVZNK5godot6Node3D20get_global_transformEvE16_gde_method_bind
00000000001d4950 b __ZGVZNK5godot6Node3D20get_rotation_degreesEvE16_gde_method_bind
00000000001d4b40 b __ZGVZNK5godot6Node3D21get_visibility_parentEvE16_gde_method_bind
00000000001d4990 b __ZGVZNK5godot6Node3D22get_rotation_edit_modeEvE16_gde_method_bind
00000000001d4aa0 b __ZGVZNK5godot6Node3D27get_global_rotation_degreesEvE16_gde_method_bind
00000000001d4c30 b __ZGVZNK5godot6Node3D33is_transform_notification_enabledEvE16_gde_method_bind
00000000001d4c10 b __ZGVZNK5godot6Node3D39is_local_transform_notification_enabledEvE16_gde_method_bind
00000000001d4d30 b __ZGVZNK5godot6Node3D8to_localERKNS_7Vector3EE16_gde_method_bind
00000000001d49f0 b __ZGVZNK5godot6Node3D9get_basisEvE16_gde_method_bind
00000000001d49b0 b __ZGVZNK5godot6Node3D9get_scaleEvE16_gde_method_bind
00000000001d4d40 b __ZGVZNK5godot6Node3D9to_globalERKNS_7Vector3EE16_gde_method_bind
00000000001d4ec0 b __ZGVZNK5godot6Object10get_scriptEvE16_gde_method_bind
00000000001d4fa0 b __ZGVZNK5godot6Object10has_methodERKNS_10StringNameEE16_gde_method_bind
00000000001d4fc0 b __ZGVZNK5godot6Object10has_signalERKNS_10StringNameEE16_gde_method_bind
00000000001d4e30 b __ZGVZNK5godot6Object11get_indexedERKNS_8NodePathEE16_gde_method_bind
00000000001d5020 b __ZGVZNK5godot6Object12is_connectedERKNS_10StringNameERKNS_8CallableEE16_gde_method_bind
00000000001d4f10 b __ZGVZNK5godot6Object13get_meta_listEvE16_gde_method_bind
00000000001d4ea0 b __ZGVZNK5godot6Object15get_instance_idEvE16_gde_method_bind
00000000001d4e50 b __ZGVZNK5godot6Object15get_method_listEvE16_gde_method_bind
00000000001d4fd0 b __ZGVZNK5godot6Object15get_signal_listEvE16_gde_method_bind
00000000001d5030 b __ZGVZNK5godot6Object15has_connectionsERKNS_10StringNameEE16_gde_method_bind
00000000001d4f30 b __ZGVZNK5godot6Object15has_user_signalERKNS_10StringNameEE16_gde_method_bind
00000000001d4e40 b __ZGVZNK5godot6Object17get_property_listEvE16_gde_method_bind
00000000001d5050 b __ZGVZNK5godot6Object19is_blocking_signalsEvE16_gde_method_bind
00000000001d4e60 b __ZGVZNK5godot6Object19property_can_revertERKNS_10StringNameEE16_gde_method_bind
00000000001d4e70 b __ZGVZNK5godot6Object19property_get_revertERKNS_10StringNameEE16_gde_method_bind
00000000001d5080 b __ZGVZNK5godot6Object22can_translate_messagesEvE16_gde_method_bind
00000000001d50b0 b __ZGVZNK5godot6Object22get_translation_domainEvE16_gde_method_bind
00000000001d50d0 b __ZGVZNK5godot6Object22is_queued_for_deletionEvE16_gde_method_bind
00000000001d4ff0 b __ZGVZNK5godot6Object24get_incoming_connectionsEvE16_gde_method_bind
00000000001d4fb0 b __ZGVZNK5godot6Object25get_method_argument_countERKNS_10StringNameEE16_gde_method_bind
00000000001d4fe0 b __ZGVZNK5godot6Object26get_signal_connection_listERKNS_10StringNameEE16_gde_method_bind
00000000001d5090 b __ZGVZNK5godot6Object2trERKNS_10StringNameES3_E16_gde_method_bind
00000000001d4e10 b __ZGVZNK5godot6Object3getERKNS_10StringNameEE16_gde_method_bind
00000000001d50a0 b __ZGVZNK5godot6Object4tr_nERKNS_10StringNameES3_iS3_E16_gde_method_bind
00000000001d4ef0 b __ZGVZNK5godot6Object8get_metaERKNS_10StringNameERKNS_7VariantEE16_gde_method_bind
00000000001d4f00 b __ZGVZNK5godot6Object8has_metaERKNS_10StringNameEE16_gde_method_bind
00000000001d4df0 b __ZGVZNK5godot6Object8is_classERKNS_6StringEE16_gde_method_bind
00000000001d4de0 b __ZGVZNK5godot6Object9get_classEvE16_gde_method_bind
00000000001d57e0 b __ZGVZNK5godot6Window10is_visibleEvE16_gde_method_bind
00000000001d58f0 b __ZGVZNK5godot6Window11is_embeddedEvE16_gde_method_bind
00000000001d5730 b __ZGVZNK5godot6Window12get_max_sizeEvE16_gde_method_bind
00000000001d5750 b __ZGVZNK5godot6Window12get_min_sizeEvE16_gde_method_bind
00000000001d56b0 b __ZGVZNK5godot6Window12get_positionEvE16_gde_method_bind
00000000001d5860 b __ZGVZNK5godot6Window12is_exclusiveEvE16_gde_method_bind
00000000001d5820 b __ZGVZNK5godot6Window12is_transientEvE16_gde_method_bind
00000000001d5650 b __ZGVZNK5godot6Window13get_window_idEvE16_gde_method_bind
00000000001d5cf0 b __ZGVZNK5godot6Window13is_layout_rtlEvE16_gde_method_bind
00000000001d5ba0 b __ZGVZNK5godot6Window14get_theme_fontERKNS_10StringNameES3_E16_gde_method_bind
00000000001d5b80 b __ZGVZNK5godot6Window14get_theme_iconERKNS_10StringNameES3_E16_gde_method_bind
00000000001d5c60 b __ZGVZNK5godot6Window14has_theme_fontERKNS_10StringNameES3_E16_gde_method_bind
00000000001d5c40 b __ZGVZNK5godot6Window14has_theme_iconERKNS_10StringNameES3_E16_gde_method_bind
00000000001d5bc0 b __ZGVZNK5godot6Window15get_theme_colorERKNS_10StringNameES3_E16_gde_method_bind
00000000001d5c80 b __ZGVZNK5godot6Window15has_theme_colorERKNS_10StringNameES3_E16_gde_method_bind
00000000001d5920 b __ZGVZNK5godot6Window16get_force_nativeEvE16_gde_method_bind
00000000001d5690 b __ZGVZNK5godot6Window18get_current_screenEvE16_gde_method_bind
00000000001d5bd0 b __ZGVZNK5godot6Window18get_theme_constantERKNS_10StringNameES3_E16_gde_method_bind
00000000001d5b90 b __ZGVZNK5godot6Window18get_theme_styleboxERKNS_10StringNameES3_E16_gde_method_bind
00000000001d5c90 b __ZGVZNK5godot6Window18has_theme_constantERKNS_10StringNameES3_E16_gde_method_bind
00000000001d5c50 b __ZGVZNK5godot6Window18has_theme_styleboxERKNS_10StringNameES3_E16_gde_method_bind
00000000001d5bb0 b __ZGVZNK5godot6Window19get_theme_font_sizeERKNS_10StringNameES3_E16_gde_method_bind
00000000001d5c70 b __ZGVZNK5godot6Window19has_theme_font_sizeERKNS_10StringNameES3_E16_gde_method_bind
00000000001d5d10 b __ZGVZNK5godot6Window19is_auto_translatingEvE16_gde_method_bind
00000000001d57a0 b __ZGVZNK5godot6Window19is_maximize_allowedEvE16_gde_method_bind
00000000001d5670 b __ZGVZNK5godot6Window20get_initial_positionEvE16_gde_method_bind
00000000001d5ce0 b __ZGVZNK5godot6Window20get_layout_directionEvE16_gde_method_bind
00000000001d5a40 b __ZGVZNK5godot6Window20is_wrapping_controlsEvE16_gde_method_bind
00000000001d5960 b __ZGVZNK5godot6Window22get_content_scale_modeEvE16_gde_method_bind
00000000001d5940 b __ZGVZNK5godot6Window22get_content_scale_sizeEvE16_gde_method_bind
00000000001d59c0 b __ZGVZNK5godot6Window22get_keep_title_visibleEvE16_gde_method_bind
00000000001d5cb0 b __ZGVZNK5godot6Window22get_theme_default_fontEvE16_gde_method_bind
00000000001d5c00 b __ZGVZNK5godot6Window23has_theme_font_overrideERKNS_10StringNameEE16_gde_method_bind
00000000001d5be0 b __ZGVZNK5godot6Window23has_theme_icon_overrideERKNS_10StringNameEE16_gde_method_bind
00000000001d5840 b __ZGVZNK5godot6Window23is_transient_to_focusedEvE16_gde_method_bind
00000000001d5980 b __ZGVZNK5godot6Window24get_content_scale_aspectEvE16_gde_method_bind
00000000001d59e0 b __ZGVZNK5godot6Window24get_content_scale_factorEvE16_gde_method_bind
00000000001d5a90 b __ZGVZNK5godot6Window24get_theme_type_variationEvE16_gde_method_bind
00000000001d5c20 b __ZGVZNK5godot6Window24has_theme_color_overrideERKNS_10StringNameEE16_gde_method_bind
00000000001d59a0 b __ZGVZNK5godot6Window25get_content_scale_stretchEvE16_gde_method_bind
00000000001d5900 b __ZGVZNK5godot6Window25get_contents_minimum_sizeEvE16_gde_method_bind
00000000001d5710 b __ZGVZNK5godot6Window25get_size_with_decorationsEvE16_gde_method_bind
00000000001d5a00 b __ZGVZNK5godot6Window26is_using_font_oversamplingEvE16_gde_method_bind
00000000001d5cc0 b __ZGVZNK5godot6Window27get_theme_default_font_sizeEvE16_gde_method_bind
00000000001d5c30 b __ZGVZNK5godot6Window27has_theme_constant_overrideERKNS_10StringNameEE16_gde_method_bind
00000000001d5bf0 b __ZGVZNK5godot6Window27has_theme_stylebox_overrideERKNS_10StringNameEE16_gde_method_bind
00000000001d5ca0 b __ZGVZNK5godot6Window28get_theme_default_base_scaleEvE16_gde_method_bind
00000000001d5c10 b __ZGVZNK5godot6Window28has_theme_font_size_overrideERKNS_10StringNameEE16_gde_method_bind
00000000001d5a20 b __ZGVZNK5godot6Window29get_mouse_passthrough_polygonEvE16_gde_method_bind
00000000001d5700 b __ZGVZNK5godot6Window29get_position_with_decorationsEvE16_gde_method_bind
00000000001d5880 b __ZGVZNK5godot6Window8can_drawEvE16_gde_method_bind
00000000001d5790 b __ZGVZNK5godot6Window8get_flagENS0_5FlagsEE16_gde_method_bind
00000000001d5770 b __ZGVZNK5godot6Window8get_modeEvE16_gde_method_bind
00000000001d56e0 b __ZGVZNK5godot6Window8get_sizeEvE16_gde_method_bind
00000000001d5a70 b __ZGVZNK5godot6Window9get_themeEvE16_gde_method_bind
00000000001d5640 b __ZGVZNK5godot6Window9get_titleEvE16_gde_method_bind
00000000001d5890 b __ZGVZNK5godot6Window9has_focusEvE16_gde_method_bind
00000000001d13a0 b __ZGVZNK5godot7BoxMesh19get_subdivide_depthEvE16_gde_method_bind
00000000001d1360 b __ZGVZNK5godot7BoxMesh19get_subdivide_widthEvE16_gde_method_bind
00000000001d1380 b __ZGVZNK5godot7BoxMesh20get_subdivide_heightEvE16_gde_method_bind
00000000001d1340 b __ZGVZNK5godot7BoxMesh8get_sizeEvE16_gde_method_bind
00000000001d1d10 b __ZGVZNK5godot7Control10get_anchorENS_4SideEE16_gde_method_bind
00000000001d1d30 b __ZGVZNK5godot7Control10get_offsetENS_4SideEE16_gde_method_bind
00000000001d22c0 b __ZGVZNK5godot7Control11get_tooltipERKNS_7Vector2EE16_gde_method_bind
00000000001d1e20 b __ZGVZNK5godot7Control12get_positionEvE16_gde_method_bind
00000000001d1e40 b __ZGVZNK5godot7Control12get_rotationEvE16_gde_method_bind
00000000001d2470 b __ZGVZNK5godot7Control13is_layout_rtlEvE16_gde_method_bind
00000000001d1ef0 b __ZGVZNK5godot7Control14get_focus_modeEvE16_gde_method_bind
00000000001d2330 b __ZGVZNK5godot7Control14get_focus_nextEvE16_gde_method_bind
00000000001d2100 b __ZGVZNK5godot7Control14get_theme_fontERKNS_10StringNameES3_E16_gde_method_bind
00000000001d20e0 b __ZGVZNK5godot7Control14get_theme_iconERKNS_10StringNameES3_E16_gde_method_bind
00000000001d21c0 b __ZGVZNK5godot7Control14has_theme_fontERKNS_10StringNameES3_E16_gde_method_bind
00000000001d21a0 b __ZGVZNK5godot7Control14has_theme_iconERKNS_10StringNameES3_E16_gde_method_bind
00000000001d1ed0 b __ZGVZNK5godot7Control15get_global_rectEvE16_gde_method_bind
00000000001d2120 b __ZGVZNK5godot7Control15get_theme_colorERKNS_10StringNameES3_E16_gde_method_bind
00000000001d21e0 b __ZGVZNK5godot7Control15has_theme_colorERKNS_10StringNameES3_E16_gde_method_bind
00000000001d22f0 b __ZGVZNK5godot7Control16get_cursor_shapeERKNS_7Vector2EE16_gde_method_bind
00000000001d1f70 b __ZGVZNK5godot7Control16get_h_size_flagsEvE16_gde_method_bind
00000000001d1cb0 b __ZGVZNK5godot7Control16get_minimum_sizeEvE16_gde_method_bind
00000000001d2380 b __ZGVZNK5godot7Control16get_mouse_filterEvE16_gde_method_bind
00000000001d1e70 b __ZGVZNK5godot7Control16get_pivot_offsetEvE16_gde_method_bind
00000000001d22b0 b __ZGVZNK5godot7Control16get_tooltip_textEvE16_gde_method_bind
00000000001d1fb0 b __ZGVZNK5godot7Control16get_v_size_flagsEvE16_gde_method_bind
00000000001d1f90 b __ZGVZNK5godot7Control17get_stretch_ratioEvE16_gde_method_bind
00000000001d2310 b __ZGVZNK5godot7Control18get_focus_neighborENS_4SideEE16_gde_method_bind
00000000001d2350 b __ZGVZNK5godot7Control18get_focus_previousEvE16_gde_method_bind
00000000001d2230 b __ZGVZNK5godot7Control18get_parent_controlEvE16_gde_method_bind
00000000001d2130 b __ZGVZNK5godot7Control18get_theme_constantERKNS_10StringNameES3_E16_gde_method_bind
00000000001d20f0 b __ZGVZNK5godot7Control18get_theme_styleboxERKNS_10StringNameES3_E16_gde_method_bind
00000000001d21f0 b __ZGVZNK5godot7Control18has_theme_constantERKNS_10StringNameES3_E16_gde_method_bind
00000000001d21b0 b __ZGVZNK5godot7Control18has_theme_styleboxERKNS_10StringNameES3_E16_gde_method_bind
00000000001d2400 b __ZGVZNK5godot7Control18is_drag_successfulEvE16_gde_method_bind
00000000001d1ea0 b __ZGVZNK5godot7Control19get_global_positionEvE16_gde_method_bind
00000000001d1eb0 b __ZGVZNK5godot7Control19get_screen_positionEvE16_gde_method_bind
00000000001d2110 b __ZGVZNK5godot7Control19get_theme_font_sizeERKNS_10StringNameES3_E16_gde_method_bind
00000000001d21d0 b __ZGVZNK5godot7Control19has_theme_font_sizeERKNS_10StringNameES3_E16_gde_method_bind
00000000001d2490 b __ZGVZNK5godot7Control19is_auto_translatingEvE16_gde_method_bind
00000000001d2250 b __ZGVZNK5godot7Control20get_h_grow_directionEvE16_gde_method_bind
00000000001d2460 b __ZGVZNK5godot7Control20get_layout_directionEvE16_gde_method_bind
00000000001d1e90 b __ZGVZNK5godot7Control20get_parent_area_sizeEvE16_gde_method_bind
00000000001d1e50 b __ZGVZNK5godot7Control20get_rotation_degreesEvE16_gde_method_bind
00000000001d2430 b __ZGVZNK5godot7Control20get_shortcut_contextEvE16_gde_method_bind
00000000001d2270 b __ZGVZNK5godot7Control20get_v_grow_directionEvE16_gde_method_bind
00000000001d1f40 b __ZGVZNK5godot7Control21find_next_valid_focusEvE16_gde_method_bind
00000000001d1f30 b __ZGVZNK5godot7Control21find_prev_valid_focusEvE16_gde_method_bind
00000000001d2210 b __ZGVZNK5godot7Control22get_theme_default_fontEvE16_gde_method_bind
00000000001d1e80 b __ZGVZNK5godot7Control23get_custom_minimum_sizeEvE16_gde_method_bind
00000000001d2160 b __ZGVZNK5godot7Control23has_theme_font_overrideERKNS_10StringNameEE16_gde_method_bind
00000000001d2140 b __ZGVZNK5godot7Control23has_theme_icon_overrideERKNS_10StringNameEE16_gde_method_bind
00000000001d22e0 b __ZGVZNK5godot7Control24get_default_cursor_shapeEvE16_gde_method_bind
00000000001d1ff0 b __ZGVZNK5godot7Control24get_theme_type_variationEvE16_gde_method_bind
00000000001d2180 b __ZGVZNK5godot7Control24has_theme_color_overrideERKNS_10StringNameEE16_gde_method_bind
00000000001d1f50 b __ZGVZNK5godot7Control25find_valid_focus_neighborENS_4SideEE16_gde_method_bind
00000000001d1cc0 b __ZGVZNK5godot7Control25get_combined_minimum_sizeEvE16_gde_method_bind
00000000001d2220 b __ZGVZNK5godot7Control27get_theme_default_font_sizeEvE16_gde_method_bind
00000000001d2190 b __ZGVZNK5godot7Control27has_theme_constant_overrideERKNS_10StringNameEE16_gde_method_bind
00000000001d2150 b __ZGVZNK5godot7Control27has_theme_stylebox_overrideERKNS_10StringNameEE16_gde_method_bind
00000000001d23a0 b __ZGVZNK5godot7Control27is_force_pass_scroll_eventsEvE16_gde_method_bind
00000000001d2200 b __ZGVZNK5godot7Control28get_theme_default_base_scaleEvE16_gde_method_bind
00000000001d2170 b __ZGVZNK5godot7Control28has_theme_font_size_overrideERKNS_10StringNameEE16_gde_method_bind
00000000001d24b0 b __ZGVZNK5godot7Control28is_localizing_numeral_systemEvE16_gde_method_bind
00000000001d2290 b __ZGVZNK5godot7Control31get_tooltip_auto_translate_modeEvE16_gde_method_bind
00000000001d1e10 b __ZGVZNK5godot7Control7get_endEvE16_gde_method_bind
00000000001d1ec0 b __ZGVZNK5godot7Control8get_rectEvE16_gde_method_bind
00000000001d1e30 b __ZGVZNK5godot7Control8get_sizeEvE16_gde_method_bind
00000000001d1e00 b __ZGVZNK5godot7Control9get_beginEvE16_gde_method_bind
00000000001d1e60 b __ZGVZNK5godot7Control9get_scaleEvE16_gde_method_bind
00000000001d1fd0 b __ZGVZNK5godot7Control9get_themeEvE16_gde_method_bind
00000000001d1f00 b __ZGVZNK5godot7Control9has_focusEvE16_gde_method_bind
00000000001d3f10 b __ZGVZNK5godot8Material13get_next_passEvE16_gde_method_bind
00000000001d3f50 b __ZGVZNK5godot8Material18create_placeholderEvE16_gde_method_bind
00000000001d3f30 b __ZGVZNK5godot8Material19get_render_priorityEvE16_gde_method_bind
00000000001d5310 b __ZGVZNK5godot8Resource11is_built_inEvE16_gde_method_bind
00000000001d5300 b __ZGVZNK5godot8Resource15get_id_for_pathERKNS_6StringEE16_gde_method_bind
00000000001d52c0 b __ZGVZNK5godot8Resource15get_local_sceneEvE16_gde_method_bind
00000000001d52b0 b __ZGVZNK5godot8Resource17is_local_to_sceneEvE16_gde_method_bind
00000000001d5340 b __ZGVZNK5godot8Resource19get_scene_unique_idEvE16_gde_method_bind
00000000001d5290 b __ZGVZNK5godot8Resource7get_ridEvE16_gde_method_bind
00000000001d5280 b __ZGVZNK5godot8Resource8get_nameEvE16_gde_method_bind
00000000001d5250 b __ZGVZNK5godot8Resource8get_pathEvE16_gde_method_bind
00000000001d5360 b __ZGVZNK5godot8Resource9duplicateEbE16_gde_method_bind
00000000001d5490 b __ZGVZNK5godot8StyleBox10get_marginENS_4SideEE16_gde_method_bind
00000000001d54a0 b __ZGVZNK5godot8StyleBox10get_offsetEvE16_gde_method_bind
00000000001d5450 b __ZGVZNK5godot8StyleBox16get_minimum_sizeEvE16_gde_method_bind
00000000001d5480 b __ZGVZNK5godot8StyleBox18get_content_marginENS_4SideEE16_gde_method_bind
00000000001d54c0 b __ZGVZNK5godot8StyleBox22get_current_item_drawnEvE16_gde_method_bind
00000000001d54b0 b __ZGVZNK5godot8StyleBox4drawERKNS_3RIDERKNS_5Rect2EE16_gde_method_bind
00000000001d54d0 b __ZGVZNK5godot8StyleBox9test_maskERKNS_7Vector2ERKNS_5Rect2EE16_gde_method_bind
00000000001d1190 b __ZGVZNK5godot9ArrayMesh15get_custom_aabbEvE16_gde_method_bind
00000000001d11b0 b __ZGVZNK5godot9ArrayMesh15get_shadow_meshEvE16_gde_method_bind
00000000001d1150 b __ZGVZNK5godot9ArrayMesh16surface_get_nameEiE16_gde_method_bind
00000000001d1110 b __ZGVZNK5godot9ArrayMesh18surface_get_formatEiE16_gde_method_bind
00000000001d1080 b __ZGVZNK5godot9ArrayMesh20get_blend_shape_modeEvE16_gde_method_bind
00000000001d1040 b __ZGVZNK5godot9ArrayMesh20get_blend_shape_nameEiE16_gde_method_bind
00000000001d1130 b __ZGVZNK5godot9ArrayMesh20surface_find_by_nameERKNS_6StringEE16_gde_method_bind
00000000001d1030 b __ZGVZNK5godot9ArrayMesh21get_blend_shape_countEvE16_gde_method_bind
00000000001d10f0 b __ZGVZNK5godot9ArrayMesh21surface_get_array_lenEiE16_gde_method_bind
00000000001d1120 b __ZGVZNK5godot9ArrayMesh26surface_get_primitive_typeEiE16_gde_method_bind
00000000001d1100 b __ZGVZNK5godot9ArrayMesh27surface_get_array_index_lenEiE16_gde_method_bind
00000000001d54f0 b __ZGVZNK5godot9Texture2D10get_heightEvE16_gde_method_bind
00000000001d5540 b __ZGVZNK5godot9Texture2D16draw_rect_regionERKNS_3RIDERKNS_5Rect2ES6_RKNS_5ColorEbbE16_gde_method_bind
00000000001d5560 b __ZGVZNK5godot9Texture2D18create_placeholderEvE16_gde_method_bind
00000000001d5520 b __ZGVZNK5godot9Texture2D4drawERKNS_3RIDERKNS_7Vector2ERKNS_5ColorEbE16_gde_method_bind
00000000001d5500 b __ZGVZNK5godot9Texture2D8get_sizeEvE16_gde_method_bind
00000000001d5530 b __ZGVZNK5godot9Texture2D9draw_rectERKNS_3RIDERKNS_5Rect2EbRKNS_5ColorEbE16_gde_method_bind
00000000001d5550 b __ZGVZNK5godot9Texture2D9get_imageEvE16_gde_method_bind
00000000001d54e0 b __ZGVZNK5godot9Texture2D9get_widthEvE16_gde_method_bind
00000000001d5510 b __ZGVZNK5godot9Texture2D9has_alphaEvE16_gde_method_bind
00000000001d03f8 d __ZL14_doc_data_hash
00000000001d0620 d __ZL14_doc_data_hash
00000000001c6d4f s __ZL20_doc_data_compressed
00000000001c7c38 s __ZL20_doc_data_compressed
00000000001d0fa8 b __ZL22_doc_data_registration
00000000001d0fa9 b __ZL22_doc_data_registration
000000000001d260 t __ZN13MinecraftNode11minHeapTestEv
00000000000113cc t __ZN13MinecraftNode13_bind_methodsEv
00000000000110c4 t __ZN13MinecraftNode14_get_to_stringEv
00000000000043d4 t __ZN13MinecraftNode14to_string_bindEPvPhS0_
000000000001b5f4 t __ZN13MinecraftNode16generate_terrainEN5godot7Vector3E
0000000000003724 t __ZN13MinecraftNode16get_class_staticEv
00000000000046f4 t __ZN13MinecraftNode16initialize_classEv
00000000000113b8 t __ZN13MinecraftNode17_get_bind_methodsEv
0000000000011058 t __ZN13MinecraftNode17_get_notificationEv
00000000000042a0 t __ZN13MinecraftNode17notification_bindEPvih
000000000001218c t __ZN13MinecraftNode17set_terrain_depthEi
000000000001230c t __ZN13MinecraftNode17set_terrain_scaleEf
0000000000011fe0 t __ZN13MinecraftNode17set_terrain_widthEi
000000000001260c t __ZN13MinecraftNode20set_terrain_materialERKN5godot3RefINS0_8MaterialEEE
0000000000003cc8 t __ZN13MinecraftNode21has_get_property_listEv
00000000001cc508 s __ZN13MinecraftNode22_gde_binding_callbacksE
0000000000010bf4 t __ZN13MinecraftNode22_get_get_property_listEv
0000000000010d38 t __ZN13MinecraftNode22_get_validate_propertyEv
000000000001bdd0 t __ZN13MinecraftNode22generate_voxel_terrainEN5godot7Vector3E
0000000000003d90 t __ZN13MinecraftNode22get_property_list_bindEPvPj
000000000000411c t __ZN13MinecraftNode22validate_property_bindEPvP23GDExtensionPropertyInfo
0000000000003ea0 t __ZN13MinecraftNode23free_property_list_bindEPvPK23GDExtensionPropertyInfoj
00000000000037d8 t __ZN13MinecraftNode23get_parent_class_staticEv
0000000000010c48 t __ZN13MinecraftNode24_get_property_can_revertEv
0000000000010cbc t __ZN13MinecraftNode24_get_property_get_revertEv
0000000000012bdc t __ZN13MinecraftNode24_on_slider_value_changedEd
0000000000003ef0 t __ZN13MinecraftNode24property_can_revert_bindEPvPKv
0000000000004000 t __ZN13MinecraftNode24property_get_revert_bindEPvPKvS0_
000000000001248c t __ZN13MinecraftNode24set_terrain_height_scaleEf
00000000000112c4 t __ZN13MinecraftNode25_get_extension_class_nameEv
00000000000047a4 t __ZN13MinecraftNode26_gde_binding_free_callbackEPvS0_S0_
000000000000478c t __ZN13MinecraftNode28_gde_binding_create_callbackEPvS0_
0000000000012908 t __ZN13MinecraftNode28_on_accordion_header_pressedEv
00000000000047bc t __ZN13MinecraftNode31_gde_binding_reference_callbackEPvS0_h
00000000000045b4 t __ZN13MinecraftNode4freeEPvS0_
000000000001c740 t __ZN13MinecraftNode6_readyEv
0000000000010b94 t __ZN13MinecraftNode8_get_getEv
0000000000010b18 t __ZN13MinecraftNode8_get_setEv
000000000001b244 t __ZN13MinecraftNode8_processEd
0000000000003bcc t __ZN13MinecraftNode8get_bindEPvPKvS0_
000000000001dc6c t __ZN13MinecraftNode8jsonTestEv
0000000000003ad0 t __ZN13MinecraftNode8set_bindEPvPKvS2_
000000000001cf34 t __ZN13MinecraftNode9blendTestEv
000000000001b110 t __ZN13MinecraftNodeC1Ev
000000000001b020 t __ZN13MinecraftNodeC2Ev
000000000001b214 t __ZN13MinecraftNodeD0Ev
000000000001b1e8 t __ZN13MinecraftNodeD1Ev
000000000001b13c t __ZN13MinecraftNodeD2Ev
000000000010bda8 t __ZN5godot10BaseButton11set_pressedEb
000000000010cc08 t __ZN5godot10BaseButton12set_disabledEb
000000000010ded4 t __ZN5godot10BaseButton12set_shortcutERKNS_3RefINS_8ShortcutEEE
000000000010cf68 t __ZN5godot10BaseButton15set_action_modeENS0_10ActionModeE
000000000010d2a4 t __ZN5godot10BaseButton15set_button_maskENS_8BitFieldINS_15MouseButtonMaskEEE
000000000010c548 t __ZN5godot10BaseButton15set_toggle_modeEb
0000000000002f00 t __ZN5godot10BaseButton16get_class_staticEv
000000000010e39c t __ZN5godot10BaseButton16set_button_groupERKNS_3RefINS_11ButtonGroupEEE
000000000010c1e8 t __ZN5godot10BaseButton21set_pressed_no_signalEb
000000000010db74 t __ZN5godot10BaseButton21set_shortcut_feedbackEb
00000000001cc3e8 s __ZN5godot10BaseButton22_gde_binding_callbacksE
000000000010c8a8 t __ZN5godot10BaseButton23set_shortcut_in_tooltipEb
000000000010d814 t __ZN5godot10BaseButton24set_keep_pressed_outsideEb
0000000000002fd4 t __ZN5godot10BaseButton26_gde_binding_free_callbackEPvS1_S1_
0000000000002f90 t __ZN5godot10BaseButton28_gde_binding_create_callbackEPvS1_
0000000000003018 t __ZN5godot10BaseButton31_gde_binding_reference_callbackEPvS1_h
00000000001d02c0 d __ZN5godot10BaseButton37_gde_engine_class_registration_helperE
000000000010e864 t __ZN5godot10BaseButton8_pressedEv
000000000010e874 t __ZN5godot10BaseButton8_toggledEb
0000000000003034 t __ZN5godot10BaseButtonC1EPv
0000000000003068 t __ZN5godot10BaseButtonC2EPv
000000000010e8b4 t __ZN5godot10BaseButtonD0Ev
000000000010e888 t __ZN5godot10BaseButtonD1Ev
0000000000003334 t __ZN5godot10BaseButtonD2Ev
00000000001173e4 t __ZN5godot10CanvasItem11draw_circleERKNS_7Vector2EfRKNS_5ColorEbfb
00000000001136d8 t __ZN5godot10CanvasItem11set_visibleEb
0000000000115074 t __ZN5godot10CanvasItem11set_z_indexEi
0000000000118b8c t __ZN5godot10CanvasItem12draw_polygonERKNS_18PackedVector2ArrayERKNS_16PackedColorArrayES3_RKNS_3RefINS_9Texture2DEEE
0000000000117714 t __ZN5godot10CanvasItem12draw_textureERKNS_3RefINS_9Texture2DEEERKNS_7Vector2ERKNS_5ColorE
0000000000113edc t __ZN5godot10CanvasItem12queue_redrawEv
000000000011cef0 t __ZN5godot10CanvasItem12set_materialERKNS_3RefINS_8MaterialEEE
0000000000114870 t __ZN5godot10CanvasItem12set_modulateERKNS_5ColorE
00000000001163f0 t __ZN5godot10CanvasItem13draw_polylineERKNS_18PackedVector2ArrayERKNS_5ColorEfb
0000000000114058 t __ZN5godot10CanvasItem13move_to_frontEv
0000000000116cf4 t __ZN5godot10CanvasItem14draw_multilineERKNS_18PackedVector2ArrayERKNS_5ColorEfb
000000000011ac14 t __ZN5godot10CanvasItem14draw_multimeshERKNS_3RefINS_9MultiMeshEEERKNS1_INS_9Texture2DEEE
00000000001188d4 t __ZN5godot10CanvasItem14draw_primitiveERKNS_18PackedVector2ArrayERKNS_16PackedColorArrayES3_RKNS_3RefINS_9Texture2DEEE
000000000011865c t __ZN5godot10CanvasItem14draw_style_boxERKNS_3RefINS_8StyleBoxEEERKNS_5Rect2E
0000000000114534 t __ZN5godot10CanvasItem14set_light_maskEi
0000000000116094 t __ZN5godot10CanvasItem16draw_dashed_lineERKNS_7Vector2ES3_RKNS_5ColorEffbb
0000000000002b00 t __ZN5godot10CanvasItem16get_class_staticEv
00000000001141d4 t __ZN5godot10CanvasItem16set_as_top_levelEb
00000000001179ac t __ZN5godot10CanvasItem17draw_texture_rectERKNS_3RefINS_9Texture2DEEERKNS_5Rect2EbRKNS_5ColorEb
0000000000114d00 t __ZN5godot10CanvasItem17set_self_modulateERKNS_5ColorE
00000000001153b0 t __ZN5godot10CanvasItem17set_z_as_relativeEb
000000000011b604 t __ZN5godot10CanvasItem18draw_end_animationEv
000000000011aed8 t __ZN5godot10CanvasItem18draw_set_transformERKNS_7Vector2EfS3_
000000000011f1c0 t __ZN5godot10CanvasItem18set_texture_filterENS0_13TextureFilterE
000000000011f4fc t __ZN5godot10CanvasItem18set_texture_repeatENS0_13TextureRepeatE
0000000000115710 t __ZN5godot10CanvasItem18set_y_sort_enabledEb
000000000011b330 t __ZN5godot10CanvasItem20draw_animation_sliceEdddd
0000000000118da4 t __ZN5godot10CanvasItem20draw_colored_polygonERKNS_18PackedVector2ArrayERKNS_5ColorES3_RKNS_3RefINS_9Texture2DEEE
0000000000116694 t __ZN5godot10CanvasItem20draw_polyline_colorsERKNS_18PackedVector2ArrayERKNS_16PackedColorArrayEfb
000000000011ded0 t __ZN5godot10CanvasItem20set_notify_transformEb
000000000011e9d8 t __ZN5godot10CanvasItem20set_visibility_layerEj
0000000000116ef8 t __ZN5godot10CanvasItem21draw_multiline_colorsERKNS_18PackedVector2ArrayERKNS_16PackedColorArrayEfb
00000000001cc3b8 s __ZN5godot10CanvasItem22_gde_binding_callbacksE
000000000011e230 t __ZN5godot10CanvasItem22force_update_transformEv
000000000011f838 t __ZN5godot10CanvasItem22set_clip_children_modeENS0_16ClipChildrenModeE
0000000000115a70 t __ZN5godot10CanvasItem22set_draw_behind_parentEb
000000000011d810 t __ZN5godot10CanvasItem23set_use_parent_materialEb
0000000000117cd8 t __ZN5godot10CanvasItem24draw_texture_rect_regionERKNS_3RefINS_9Texture2DEEERKNS_5Rect2ES8_RKNS_5ColorEbb
000000000011ed14 t __ZN5godot10CanvasItem24set_visibility_layer_bitEjb
000000000011b134 t __ZN5godot10CanvasItem25draw_set_transform_matrixERKNS_11Transform2DE
0000000000002bd4 t __ZN5godot10CanvasItem26_gde_binding_free_callbackEPvS1_S1_
000000000011db70 t __ZN5godot10CanvasItem26set_notify_local_transformEb
0000000000002b90 t __ZN5godot10CanvasItem28_gde_binding_create_callbackEPvS1_
00000000001183a4 t __ZN5godot10CanvasItem28draw_lcd_texture_rect_regionERKNS_3RefINS_9Texture2DEEERKNS_5Rect2ES8_RKNS_5ColorE
0000000000118024 t __ZN5godot10CanvasItem29draw_msdf_texture_rect_regionERKNS_3RefINS_9Texture2DEEERKNS_5Rect2ES8_RKNS_5ColorEddd
000000000011d38c t __ZN5godot10CanvasItem29set_instance_shader_parameterERKNS_10StringNameERKNS_7VariantE
0000000000002c18 t __ZN5godot10CanvasItem31_gde_binding_reference_callbackEPvS1_h
00000000001d02a0 d __ZN5godot10CanvasItem37_gde_engine_class_registration_helperE
0000000000113d60 t __ZN5godot10CanvasItem4hideEv
0000000000113be4 t __ZN5godot10CanvasItem4showEv
000000000011fb74 t __ZN5godot10CanvasItem5_drawEv
0000000000116938 t __ZN5godot10CanvasItem8draw_arcERKNS_7Vector2EfffiRKNS_5ColorEfb
0000000000115dd0 t __ZN5godot10CanvasItem9draw_lineERKNS_7Vector2ES3_RKNS_5ColorEfb
000000000011a910 t __ZN5godot10CanvasItem9draw_meshERKNS_3RefINS_4MeshEEERKNS1_INS_9Texture2DEEERKNS_11Transform2DERKNS_5ColorE
00000000001170fc t __ZN5godot10CanvasItem9draw_rectERKNS_5Rect2ERKNS_5ColorEbfb
0000000000002c34 t __ZN5godot10CanvasItemC1EPv
0000000000002c68 t __ZN5godot10CanvasItemC2EPv
000000000011fbb0 t __ZN5godot10CanvasItemD0Ev
000000000011fb84 t __ZN5godot10CanvasItemD1Ev
000000000000338c t __ZN5godot10CanvasItemD2Ev
00000000000f0c48 t __ZN5godot10Dictionary10get_or_addERKNS_7VariantES3_
00000000000eefd8 t __ZN5godot10Dictionary13init_bindingsEv
00000000000f1104 t __ZN5godot10Dictionary14make_read_onlyEv
00000000001d7c60 s __ZN5godot10Dictionary16_method_bindingsE
00000000000eef0c t __ZN5godot10Dictionary38_init_bindings_constructors_destructorEv
00000000000f0c90 t __ZN5godot10Dictionary3setERKNS_7VariantES3_
00000000000f04e0 t __ZN5godot10Dictionary4sortEv
00000000000f03c0 t __ZN5godot10Dictionary5clearEv
00000000000f0944 t __ZN5godot10Dictionary5eraseERKNS_7VariantE
00000000000f0510 t __ZN5godot10Dictionary5mergeERKS0_b
00000000000f044c t __ZN5godot10Dictionary6assignERKS0_
00000000000db898 t __ZN5godot10Dictionary9set_typedEjRKNS_10StringNameERKNS_7VariantEjS3_S6_
00000000000f02c0 t __ZN5godot10DictionaryC1EOS0_
00000000000efe48 t __ZN5godot10DictionaryC1EPKNS_7VariantE
00000000000effdc t __ZN5godot10DictionaryC1ERKS0_
00000000000f0194 t __ZN5godot10DictionaryC1ERKS0_xRKNS_10StringNameERKNS_7VariantExS5_S8_
00000000000efee8 t __ZN5godot10DictionaryC1Ev
00000000000f01f8 t __ZN5godot10DictionaryC2EOS0_
00000000000efdd0 t __ZN5godot10DictionaryC2EPKNS_7VariantE
00000000000eff14 t __ZN5godot10DictionaryC2ERKS0_
00000000000f0010 t __ZN5godot10DictionaryC2ERKS0_xRKNS_10StringNameERKNS_7VariantExS5_S8_
00000000000efe7c t __ZN5godot10DictionaryC2Ev
00000000000f032c t __ZN5godot10DictionaryD1Ev
00000000000f02f4 t __ZN5godot10DictionaryD2Ev
00000000000f13cc t __ZN5godot10DictionaryaSEOS0_
00000000000f1378 t __ZN5godot10DictionaryaSERKS0_
00000000000db858 t __ZN5godot10DictionaryixERKNS_7VariantE
000000000015cbd4 t __ZN5godot10FileAccess10get_sha256ERKNS_6StringE
000000000015dc48 t __ZN5godot10FileAccess10store_halfEf
000000000015e658 t __ZN5godot10FileAccess10store_lineERKNS_6StringE
000000000015e24c t __ZN5godot10FileAccess10store_realEf
0000000000159da8 t __ZN5godot10FileAccess11create_tempEiRKNS_6StringES3_b
000000000015f3d4 t __ZN5godot10FileAccess11file_existsERKNS_6StringE
000000000015de98 t __ZN5godot10FileAccess11store_floatEf
000000000015e428 t __ZN5godot10FileAccess12store_bufferERKNS_15PackedByteArrayE
000000000015e074 t __ZN5godot10FileAccess12store_doubleEd
000000000015ead8 t __ZN5godot10FileAccess12store_stringERKNS_6StringE
0000000000159c24 t __ZN5godot10FileAccess14get_open_errorEv
000000000015942c t __ZN5godot10FileAccess14open_encryptedERKNS_6StringENS0_9ModeFlagsERKNS_15PackedByteArrayES7_
000000000015cf10 t __ZN5godot10FileAccess14set_big_endianEb
000000000015e888 t __ZN5godot10FileAccess14store_csv_lineERKNS_17PackedStringArrayERKNS_6StringE
0000000000159974 t __ZN5godot10FileAccess15open_compressedERKNS_6StringENS0_9ModeFlagsENS0_15CompressionModeE
000000000002ab94 t __ZN5godot10FileAccess16get_class_staticEv
000000000015a084 t __ZN5godot10FileAccess17get_file_as_bytesERKNS_6StringE
000000000015f580 t __ZN5godot10FileAccess17get_modified_timeERKNS_6StringE
000000000015f0c8 t __ZN5godot10FileAccess17get_pascal_stringEv
000000000015a2dc t __ZN5godot10FileAccess18get_file_as_stringERKNS_6StringE
000000000015ef0c t __ZN5godot10FileAccess19store_pascal_stringERKNS_6StringE
000000000015fb8c t __ZN5godot10FileAccess20get_hidden_attributeERKNS_6StringE
000000000015f784 t __ZN5godot10FileAccess20get_unix_permissionsERKNS_6StringE
000000000015fd38 t __ZN5godot10FileAccess20set_hidden_attributeERKNS_6StringEb
000000000015f964 t __ZN5godot10FileAccess20set_unix_permissionsERKNS_6StringENS_8BitFieldINS0_19UnixPermissionFlagsEEE
00000000001cce20 s __ZN5godot10FileAccess22_gde_binding_callbacksE
0000000000160154 t __ZN5godot10FileAccess23get_read_only_attributeERKNS_6StringE
000000000015ff88 t __ZN5godot10FileAccess23set_read_only_attributeERKNS_6StringEb
00000000001596e0 t __ZN5godot10FileAccess24open_encrypted_with_passERKNS_6StringENS0_9ModeFlagsES3_
000000000002ac68 t __ZN5godot10FileAccess26_gde_binding_free_callbackEPvS1_S1_
000000000002ac24 t __ZN5godot10FileAccess28_gde_binding_create_callbackEPvS1_
000000000002acac t __ZN5godot10FileAccess31_gde_binding_reference_callbackEPvS1_h
00000000001d04e0 d __ZN5godot10FileAccess37_gde_engine_class_registration_helperE
000000000015910c t __ZN5godot10FileAccess4openERKNS_6StringENS0_9ModeFlagsE
000000000015ad3c t __ZN5godot10FileAccess4seekEy
000000000015f258 t __ZN5godot10FileAccess5closeEv
000000000015a6f4 t __ZN5godot10FileAccess5flushEv
000000000015a534 t __ZN5godot10FileAccess6resizeEx
000000000015ca44 t __ZN5godot10FileAccess7get_md5ERKNS_6StringE
000000000015d4e8 t __ZN5godot10FileAccess7store_8Eh
000000000015aee4 t __ZN5godot10FileAccess8seek_endEx
000000000015d6c0 t __ZN5godot10FileAccess8store_16Et
000000000015d898 t __ZN5godot10FileAccess8store_32Ej
000000000015da70 t __ZN5godot10FileAccess8store_64Ey
000000000015ec94 t __ZN5godot10FileAccess9store_varERKNS_7VariantEb
000000000002acc8 t __ZN5godot10FileAccessC1EPv
000000000002acfc t __ZN5godot10FileAccessC2EPv
000000000002ad6c t __ZN5godot10FileAccessD0Ev
000000000002ad40 t __ZN5godot10FileAccessD1Ev
000000000002ad9c t __ZN5godot10FileAccessD2Ev
0000000000120144 t __ZN5godot10InputEvent16get_class_staticEv
00000000001cd5f0 s __ZN5godot10InputEvent22_gde_binding_callbacksE
0000000000120218 t __ZN5godot10InputEvent26_gde_binding_free_callbackEPvS1_S1_
00000000001201d4 t __ZN5godot10InputEvent28_gde_binding_create_callbackEPvS1_
000000000012025c t __ZN5godot10InputEvent31_gde_binding_reference_callbackEPvS1_h
00000000001d0720 d __ZN5godot10InputEvent37_gde_engine_class_registration_helperE
0000000000120278 t __ZN5godot10InputEventC1EPv
00000000001202ac t __ZN5godot10InputEventC2EPv
000000000012031c t __ZN5godot10InputEventD0Ev
00000000001202f0 t __ZN5godot10InputEventD1Ev
000000000012034c t __ZN5godot10InputEventD2Ev
0000000000060374 t __ZN5godot10MethodBind10set_returnEb
0000000000060398 t __ZN5godot10MethodBind10set_staticEb
00000000000603bc t __ZN5godot10MethodBind10set_varargEb
00000000000608d0 t __ZN5godot10MethodBind12bind_ptrcallEPvS1_PKPKvS1_
0000000000060330 t __ZN5godot10MethodBind18set_argument_countEi
00000000000603e0 t __ZN5godot10MethodBind18set_argument_namesERKNSt3__16vectorINS_10StringNameENS1_9allocatorIS3_EEEE
00000000000640fc t __ZN5godot10MethodBind21set_default_argumentsERKNSt3__16vectorINS_7VariantENS1_9allocatorIS3_EEEE
00000000000604e4 t __ZN5godot10MethodBind23generate_argument_typesEi
0000000000060300 t __ZN5godot10MethodBind8set_nameERKNS_10StringNameE
0000000000060818 t __ZN5godot10MethodBind9bind_callEPvS1_PKPKvxS1_P20GDExtensionCallError
0000000000060350 t __ZN5godot10MethodBind9set_constEb
0000000000012dec t __ZN5godot10MethodBindC2Ev
0000000000060a14 t __ZN5godot10MethodBindD0Ev
0000000000060a00 t __ZN5godot10MethodBindD1Ev
000000000006091c t __ZN5godot10MethodBindD2Ev
0000000000078210 t __ZN5godot10MethodInfo9from_dictERKNS_10DictionaryE
0000000000078c90 t __ZN5godot10MethodInfoC1ENS_10StringNameE
0000000000078d38 t __ZN5godot10MethodInfoC1ENS_7Variant4TypeE
0000000000078df0 t __ZN5godot10MethodInfoC1ENS_7Variant4TypeENS_10StringNameE
0000000000078ee0 t __ZN5godot10MethodInfoC1ERKNS_12PropertyInfoENS_10StringNameE
00000000000786c4 t __ZN5godot10MethodInfoC1Ev
0000000000078c20 t __ZN5godot10MethodInfoC2ENS_10StringNameE
0000000000078cc4 t __ZN5godot10MethodInfoC2ENS_7Variant4TypeE
0000000000078d6c t __ZN5godot10MethodInfoC2ENS_7Variant4TypeENS_10StringNameE
0000000000078e2c t __ZN5godot10MethodInfoC2ERKNS_12PropertyInfoENS_10StringNameE
0000000000078bb8 t __ZN5godot10MethodInfoC2Ev
0000000000078b8c t __ZN5godot10MethodInfoD1Ev
0000000000078f48 t __ZN5godot10MethodInfoD2Ev
00000000000c7304 t __ZN5godot10Projection10make_scaleERKNS_7Vector3E
00000000000bd740 t __ZN5godot10Projection11set_for_hmdEifffffff
00000000000be3a8 t __ZN5godot10Projection11set_frustumEffNS_7Vector2Effb
00000000000bdff8 t __ZN5godot10Projection11set_frustumEffffff
00000000000ba950 t __ZN5godot10Projection12set_identityEv
00000000000bd688 t __ZN5godot10Projection14create_for_hmdEifffffff
00000000000bdf54 t __ZN5godot10Projection14create_frustumEffffff
00000000000c5fd0 t __ZN5godot10Projection14set_light_biasEv
00000000000bdeb0 t __ZN5godot10Projection14set_orthogonalEffffb
00000000000bd9bc t __ZN5godot10Projection14set_orthogonalEffffff
00000000000be474 t __ZN5godot10Projection15create_fit_aabbERKNS_4AABBE
00000000000bcf00 t __ZN5godot10Projection15set_perspectiveEffffb
00000000000bd3e0 t __ZN5godot10Projection15set_perspectiveEffffbiff
00000000000c0048 t __ZN5godot10Projection17add_jitter_offsetERKNS_7Vector2E
00000000000bd918 t __ZN5godot10Projection17create_orthogonalEffffff
00000000000bce5c t __ZN5godot10Projection18create_perspectiveEffffb
00000000000bcb44 t __ZN5godot10Projection20set_depth_correctionEb
00000000000bcd24 t __ZN5godot10Projection20set_light_atlas_rectERKNS_5Rect2E
00000000000be2ec t __ZN5godot10Projection21create_frustum_aspectEffNS_7Vector2Effb
00000000000bd324 t __ZN5godot10Projection22create_perspective_hmdEffffbiff
00000000000be4f4 t __ZN5godot10Projection22scale_translate_to_fitERKNS_4AABBE
00000000000bca94 t __ZN5godot10Projection23create_depth_correctionEb
00000000000bcca4 t __ZN5godot10Projection23create_light_atlas_rectERKNS_5Rect2E
00000000000bc6a8 t __ZN5godot10Projection24adjust_perspective_znearEf
00000000000bde0c t __ZN5godot10Projection24create_orthogonal_aspectEffffb
00000000000bfe7c t __ZN5godot10Projection6flip_yEv
00000000000c4eb4 t __ZN5godot10Projection6invertEv
00000000000c0180 t __ZN5godot10Projection8get_fovyEff
00000000000baa64 t __ZN5godot10Projection8set_zeroEv
00000000000c810c t __ZN5godot10ProjectionC1ERKNS_11Transform3DE
00000000000c7b20 t __ZN5godot10ProjectionC1ERKNS_7Vector4ES3_S3_S3_
00000000000bef04 t __ZN5godot10ProjectionC1ERKS0_
00000000000bcb18 t __ZN5godot10ProjectionC1Ev
00000000000c7b6c t __ZN5godot10ProjectionC2ERKNS_11Transform3DE
00000000000c7a14 t __ZN5godot10ProjectionC2ERKNS_7Vector4ES3_S3_S3_
00000000000c8154 t __ZN5godot10ProjectionC2ERKS0_
00000000000c5f50 t __ZN5godot10ProjectionC2Ev
00000000000bcc78 t __ZN5godot10ProjectionD1Ev
00000000000c8140 t __ZN5godot10ProjectionD2Ev
00000000000c04a8 t __ZN5godot10ProjectionaSERKS0_
00000000000d01cc t __ZN5godot10Quaternion10from_eulerERKNS_7Vector3E
00000000000cd788 t __ZN5godot10Quaternion9normalizeEv
00000000000ce178 t __ZN5godot10QuaternionC1ERKNS_7Vector3Ef
00000000000cd598 t __ZN5godot10QuaternionC1ERKS0_
00000000000d0070 t __ZN5godot10QuaternionC2ERKNS_7Vector3Ef
00000000000d0370 t __ZN5godot10QuaternionC2ERKS0_
00000000000ce4cc t __ZN5godot10QuaternionaSERKS0_
00000000000cd410 t __ZN5godot10QuaternionmLERKS0_
0000000000194cf8 t __ZN5godot10RefCounted11unreferenceEv
0000000000001600 t __ZN5godot10RefCounted16get_class_staticEv
00000000001cc110 s __ZN5godot10RefCounted22_gde_binding_callbacksE
00000000000016d4 t __ZN5godot10RefCounted26_gde_binding_free_callbackEPvS1_S1_
0000000000001690 t __ZN5godot10RefCounted28_gde_binding_create_callbackEPvS1_
0000000000001718 t __ZN5godot10RefCounted31_gde_binding_reference_callbackEPvS1_h
00000000001d0210 d __ZN5godot10RefCounted37_gde_engine_class_registration_helperE
00000000001949a0 t __ZN5godot10RefCounted8init_refEv
0000000000194b4c t __ZN5godot10RefCounted9referenceEv
0000000000001734 t __ZN5godot10RefCountedC1EPv
000000000002f538 t __ZN5godot10RefCountedC2EPKc
0000000000001768 t __ZN5godot10RefCountedC2EPv
00000000000017d8 t __ZN5godot10RefCountedD0Ev
00000000000017ac t __ZN5godot10RefCountedD1Ev
0000000000001808 t __ZN5godot10RefCountedD2Ev
0000000000192bc0 t __ZN5godot10SceneState16get_class_staticEv
00000000001ce250 s __ZN5godot10SceneState22_gde_binding_callbacksE
0000000000192c94 t __ZN5godot10SceneState26_gde_binding_free_callbackEPvS1_S1_
0000000000192c50 t __ZN5godot10SceneState28_gde_binding_create_callbackEPvS1_
0000000000192cd8 t __ZN5godot10SceneState31_gde_binding_reference_callbackEPvS1_h
00000000001d0df8 d __ZN5godot10SceneState37_gde_engine_class_registration_helperE
0000000000192cf4 t __ZN5godot10SceneStateC1EPv
0000000000192d28 t __ZN5godot10SceneStateC2EPv
0000000000192d98 t __ZN5godot10SceneStateD0Ev
0000000000192d6c t __ZN5godot10SceneStateD1Ev
0000000000192dc8 t __ZN5godot10SceneStateD2Ev
00000000000e510c t __ZN5godot10StringName13init_bindingsEv
00000000001d7448 s __ZN5godot10StringName16_method_bindingsE
00000000000e5040 t __ZN5godot10StringName38_init_bindings_constructors_destructorEv
00000000000e8140 t __ZN5godot10StringNameC1EOS0_
00000000000d9484 t __ZN5godot10StringNameC1EPKDi
00000000000d9384 t __ZN5godot10StringNameC1EPKDs
00000000000e7ee8 t __ZN5godot10StringNameC1EPKNS_7VariantE
00000000000d91c4 t __ZN5godot10StringNameC1EPKcb
00000000000d9284 t __ZN5godot10StringNameC1EPKw
00000000000e80a4 t __ZN5godot10StringNameC1ERKNS_6StringE
00000000000e7ffc t __ZN5godot10StringNameC1ERKS0_
00000000000e7de4 t __ZN5godot10StringNameC1Ev
00000000000e80d8 t __ZN5godot10StringNameC2EOS0_
00000000000d9404 t __ZN5godot10StringNameC2EPKDi
00000000000d9304 t __ZN5godot10StringNameC2EPKDs
00000000000e7e70 t __ZN5godot10StringNameC2EPKNS_7VariantE
00000000000d9144 t __ZN5godot10StringNameC2EPKcb
00000000000d9204 t __ZN5godot10StringNameC2EPKw
00000000000e8030 t __ZN5godot10StringNameC2ERKNS_6StringE
00000000000e7f88 t __ZN5godot10StringNameC2ERKS0_
00000000000e7f1c t __ZN5godot10StringNameC2Ev
00000000000e7e44 t __ZN5godot10StringNameD1Ev
00000000000e8174 t __ZN5godot10StringNameD2Ev
00000000000e7e10 t __ZN5godot10StringNameaSEOS0_
00000000000eab28 t __ZN5godot10StringNameaSERKS0_
00000000000023f0 t __ZN5godot10TextServer16get_class_staticEv
00000000001cc2d0 s __ZN5godot10TextServer22_gde_binding_callbacksE
00000000000024c4 t __ZN5godot10TextServer26_gde_binding_free_callbackEPvS1_S1_
0000000000002480 t __ZN5godot10TextServer28_gde_binding_create_callbackEPvS1_
0000000000002508 t __ZN5godot10TextServer31_gde_binding_reference_callbackEPvS1_h
00000000001d0270 d __ZN5godot10TextServer37_gde_engine_class_registration_helperE
0000000000002524 t __ZN5godot10TextServerC1EPv
0000000000002558 t __ZN5godot10TextServerC2EPv
00000000000025c8 t __ZN5godot10TextServerD0Ev
000000000000259c t __ZN5godot10TextServerD1Ev
00000000000025f8 t __ZN5godot10TextServerD2Ev
0000000000077ea0 t __ZN5godot10TypedArrayINS_10DictionaryEED1Ev
0000000000078f1c t __ZN5godot10TypedArrayINS_10DictionaryEED2Ev
00000000001812a8 t __ZN5godot10TypedArrayINS_10StringNameEED1Ev
00000000001812d4 t __ZN5godot10TypedArrayINS_10StringNameEED2Ev
000000000018a5a0 t __ZN5godot10TypedArrayINS_11Node3DGizmoEED1Ev
000000000018a5cc t __ZN5godot10TypedArrayINS_11Node3DGizmoEED2Ev
0000000000181250 t __ZN5godot10TypedArrayINS_4NodeEED1Ev
000000000018127c t __ZN5godot10TypedArrayINS_4NodeEED2Ev
000000000001c8f0 t __ZN5godot10TypedArrayINS_5ArrayEED1Ev
000000000001e7e0 t __ZN5godot10TypedArrayINS_5ArrayEED2Ev
000000000018c43c t __ZN5godot10TypedArrayINS_5ImageEED1Ev
000000000018c468 t __ZN5godot10TypedArrayINS_5ImageEED2Ev
000000000014fa84 t __ZN5godot10TypedArrayINS_5Rect2EED1Ev
000000000014fab0 t __ZN5godot10TypedArrayINS_5Rect2EED2Ev
000000000016ab98 t __ZN5godot10TypedArrayIiED1Ev
000000000016abc4 t __ZN5godot10TypedArrayIiED2Ev
0000000000060204 t __ZN5godot10_GlobalNilC1Ev
00000000000601d0 t __ZN5godot10_GlobalNilC2Ev
000000000010e938 t __ZN5godot11ButtonGroup16get_class_staticEv
00000000001cd348 s __ZN5godot11ButtonGroup22_gde_binding_callbacksE
000000000010ea0c t __ZN5godot11ButtonGroup26_gde_binding_free_callbackEPvS1_S1_
000000000010e9c8 t __ZN5godot11ButtonGroup28_gde_binding_create_callbackEPvS1_
000000000010ea50 t __ZN5godot11ButtonGroup31_gde_binding_reference_callbackEPvS1_h
00000000001d0688 d __ZN5godot11ButtonGroup37_gde_engine_class_registration_helperE
000000000010ea6c t __ZN5godot11ButtonGroupC1EPv
000000000010eaa0 t __ZN5godot11ButtonGroupC2EPv
000000000010eb10 t __ZN5godot11ButtonGroupD0Ev
000000000010eae4 t __ZN5godot11ButtonGroupD1Ev
000000000010eb40 t __ZN5godot11ButtonGroupD2Ev
000000000011fc34 t __ZN5godot11CanvasLayer16get_class_staticEv
00000000001cd4d0 s __ZN5godot11CanvasLayer22_gde_binding_callbacksE
000000000011fd08 t __ZN5godot11CanvasLayer26_gde_binding_free_callbackEPvS1_S1_
000000000011fcc4 t __ZN5godot11CanvasLayer28_gde_binding_create_callbackEPvS1_
000000000011fd4c t __ZN5godot11CanvasLayer31_gde_binding_reference_callbackEPvS1_h
00000000001d0700 d __ZN5godot11CanvasLayer37_gde_engine_class_registration_helperE
000000000011fd68 t __ZN5godot11CanvasLayerC1EPv
000000000011fd9c t __ZN5godot11CanvasLayerC2EPv
000000000011fe0c t __ZN5godot11CanvasLayerD0Ev
000000000011fde0 t __ZN5godot11CanvasLayerD1Ev
000000000011fe3c t __ZN5godot11CanvasLayerD2Ev
00000000000d4040 t __ZN5godot11CharStringTIDiE3setExRKDi
00000000000d3660 t __ZN5godot11CharStringTIDiE4ptrwEv
00000000001c7e68 s __ZN5godot11CharStringTIDiE5_nullE
00000000000d3738 t __ZN5godot11CharStringTIDiE6resizeEx
00000000000d4784 t __ZN5godot11CharStringTIDiE9copy_fromEPKDi
00000000000d4884 t __ZN5godot11CharStringTIDiEC1EPKDi
00000000000d46b8 t __ZN5godot11CharStringTIDiEC1ERKS1_
00000000000d450c t __ZN5godot11CharStringTIDiEC1Ev
00000000000d473c t __ZN5godot11CharStringTIDiEC2EPKDi
00000000000d453c t __ZN5godot11CharStringTIDiEC2ERKS1_
00000000000d44e4 t __ZN5godot11CharStringTIDiEC2Ev
00000000000d7d80 t __ZN5godot11CharStringTIDiED1Ev
00000000000d9a6c t __ZN5godot11CharStringTIDiED2Ev
00000000000d48dc t __ZN5godot11CharStringTIDiEaSEPKDi
00000000000d4710 t __ZN5godot11CharStringTIDiEaSERKS1_
00000000000d4480 t __ZN5godot11CharStringTIDiEixEx
00000000000d4ec8 t __ZN5godot11CharStringTIDiEpLEDi
00000000000d26b8 t __ZN5godot11CharStringTIDsE3setExRKDs
00000000000d1cd8 t __ZN5godot11CharStringTIDsE4ptrwEv
00000000001c7e66 s __ZN5godot11CharStringTIDsE5_nullE
00000000000d1db0 t __ZN5godot11CharStringTIDsE6resizeEx
00000000000d2e00 t __ZN5godot11CharStringTIDsE9copy_fromEPKDs
00000000000d2f00 t __ZN5godot11CharStringTIDsEC1EPKDs
00000000000d2d34 t __ZN5godot11CharStringTIDsEC1ERKS1_
00000000000d2b88 t __ZN5godot11CharStringTIDsEC1Ev
00000000000d2db8 t __ZN5godot11CharStringTIDsEC2EPKDs
00000000000d2bb8 t __ZN5godot11CharStringTIDsEC2ERKS1_
00000000000d2b60 t __ZN5godot11CharStringTIDsEC2Ev
00000000000d7a08 t __ZN5godot11CharStringTIDsED1Ev
00000000000d9970 t __ZN5godot11CharStringTIDsED2Ev
00000000000d2f58 t __ZN5godot11CharStringTIDsEaSEPKDs
00000000000d2d8c t __ZN5godot11CharStringTIDsEaSERKS1_
00000000000d2afc t __ZN5godot11CharStringTIDsEixEx
00000000000d3544 t __ZN5godot11CharStringTIDsEpLEDs
00000000000d0d90 t __ZN5godot11CharStringTIcE3setExRKc
00000000000d03b8 t __ZN5godot11CharStringTIcE4ptrwEv
00000000001c7e64 s __ZN5godot11CharStringTIcE5_nullE
00000000000d0490 t __ZN5godot11CharStringTIcE6resizeEx
00000000000d14d8 t __ZN5godot11CharStringTIcE9copy_fromEPKc
00000000000d15d8 t __ZN5godot11CharStringTIcEC1EPKc
00000000000d140c t __ZN5godot11CharStringTIcEC1ERKS1_
00000000000d1260 t __ZN5godot11CharStringTIcEC1Ev
00000000000d1490 t __ZN5godot11CharStringTIcEC2EPKc
00000000000d1290 t __ZN5godot11CharStringTIcEC2ERKS1_
00000000000d1238 t __ZN5godot11CharStringTIcEC2Ev
000000000001e4d8 t __ZN5godot11CharStringTIcED1Ev
000000000001ff68 t __ZN5godot11CharStringTIcED2Ev
00000000000d1630 t __ZN5godot11CharStringTIcEaSEPKc
00000000000d1464 t __ZN5godot11CharStringTIcEaSERKS1_
00000000000d11d4 t __ZN5godot11CharStringTIcEixEx
00000000000d1c1c t __ZN5godot11CharStringTIcEpLEc
00000000000d59c0 t __ZN5godot11CharStringTIwE3setExRKw
00000000000d4fe0 t __ZN5godot11CharStringTIwE4ptrwEv
00000000001c7e6c s __ZN5godot11CharStringTIwE5_nullE
00000000000d50b8 t __ZN5godot11CharStringTIwE6resizeEx
00000000000d6104 t __ZN5godot11CharStringTIwE9copy_fromEPKw
00000000000d6204 t __ZN5godot11CharStringTIwEC1EPKw
00000000000d6038 t __ZN5godot11CharStringTIwEC1ERKS1_
00000000000d5e8c t __ZN5godot11CharStringTIwEC1Ev
00000000000d60bc t __ZN5godot11CharStringTIwEC2EPKw
00000000000d5ebc t __ZN5godot11CharStringTIwEC2ERKS1_
00000000000d5e64 t __ZN5godot11CharStringTIwEC2Ev
00000000000d80f8 t __ZN5godot11CharStringTIwED1Ev
00000000000d9b68 t __ZN5godot11CharStringTIwED2Ev
00000000000d625c t __ZN5godot11CharStringTIwEaSEPKw
00000000000d6090 t __ZN5godot11CharStringTIwEaSERKS1_
00000000000d5e00 t __ZN5godot11CharStringTIwEixEx
00000000000d6848 t __ZN5godot11CharStringTIwEpLEw
0000000000017f18 t __ZN5godot11GetTypeInfoINS_3RefINS_8MaterialEEEvE14get_class_infoEv
0000000000016d64 t __ZN5godot11GetTypeInfoIRKNS_3RefINS_8MaterialEEEvE14get_class_infoEv
000000000001980c t __ZN5godot11GetTypeInfoIdvE14get_class_infoEv
00000000000155a8 t __ZN5godot11GetTypeInfoIfvE14get_class_infoEv
00000000000136c8 t __ZN5godot11GetTypeInfoIivE14get_class_infoEv
0000000000018734 t __ZN5godot11MethodBindTIJEEC1EMNS_20_gde_UnexistingClassEFvvE
0000000000018790 t __ZN5godot11MethodBindTIJEEC2EMNS_20_gde_UnexistingClassEFvvE
0000000000018a84 t __ZN5godot11MethodBindTIJEED0Ev
0000000000018a58 t __ZN5godot11MethodBindTIJEED1Ev
0000000000018ef0 t __ZN5godot11MethodBindTIJEED2Ev
0000000000016808 t __ZN5godot11MethodBindTIJRKNS_3RefINS_8MaterialEEEEEC1EMNS_20_gde_UnexistingClassEFvS5_E
0000000000016864 t __ZN5godot11MethodBindTIJRKNS_3RefINS_8MaterialEEEEEC2EMNS_20_gde_UnexistingClassEFvS5_E
0000000000016b60 t __ZN5godot11MethodBindTIJRKNS_3RefINS_8MaterialEEEEED0Ev
0000000000016b34 t __ZN5godot11MethodBindTIJRKNS_3RefINS_8MaterialEEEEED1Ev
0000000000017988 t __ZN5godot11MethodBindTIJRKNS_3RefINS_8MaterialEEEEED2Ev
00000000000192b0 t __ZN5godot11MethodBindTIJdEEC1EMNS_20_gde_UnexistingClassEFvdE
000000000001930c t __ZN5godot11MethodBindTIJdEEC2EMNS_20_gde_UnexistingClassEFvdE
0000000000019608 t __ZN5godot11MethodBindTIJdEED0Ev
00000000000195dc t __ZN5godot11MethodBindTIJdEED1Ev
0000000000019f5c t __ZN5godot11MethodBindTIJdEED2Ev
000000000001504c t __ZN5godot11MethodBindTIJfEEC1EMNS_20_gde_UnexistingClassEFvfE
00000000000150a8 t __ZN5godot11MethodBindTIJfEEC2EMNS_20_gde_UnexistingClassEFvfE
00000000000153a4 t __ZN5godot11MethodBindTIJfEED0Ev
0000000000015378 t __ZN5godot11MethodBindTIJfEED1Ev
0000000000015cfc t __ZN5godot11MethodBindTIJfEED2Ev
0000000000012d10 t __ZN5godot11MethodBindTIJiEEC1EMNS_20_gde_UnexistingClassEFviE
0000000000012d6c t __ZN5godot11MethodBindTIJiEEC2EMNS_20_gde_UnexistingClassEFviE
00000000000130ec t __ZN5godot11MethodBindTIJiEED0Ev
00000000000130c0 t __ZN5godot11MethodBindTIJiEED1Ev
0000000000013fe4 t __ZN5godot11MethodBindTIJiEED2Ev
0000000000189fe4 t __ZN5godot11Node3DGizmo16get_class_staticEv
00000000001ce180 s __ZN5godot11Node3DGizmo22_gde_binding_callbacksE
000000000018a0b8 t __ZN5godot11Node3DGizmo26_gde_binding_free_callbackEPvS1_S1_
000000000018a074 t __ZN5godot11Node3DGizmo28_gde_binding_create_callbackEPvS1_
000000000018a0fc t __ZN5godot11Node3DGizmo31_gde_binding_reference_callbackEPvS1_h
00000000001d0d28 d __ZN5godot11Node3DGizmo37_gde_engine_class_registration_helperE
000000000018a118 t __ZN5godot11Node3DGizmoC1EPv
000000000018a14c t __ZN5godot11Node3DGizmoC2EPv
000000000018a1bc t __ZN5godot11Node3DGizmoD0Ev
000000000018a190 t __ZN5godot11Node3DGizmoD1Ev
000000000018a1ec t __ZN5godot11Node3DGizmoD2Ev
0000000000029f48 t __ZN5godot11PackedScene16get_class_staticEv
00000000001ccc08 s __ZN5godot11PackedScene22_gde_binding_callbacksE
000000000002a01c t __ZN5godot11PackedScene26_gde_binding_free_callbackEPvS1_S1_
0000000000029fd8 t __ZN5godot11PackedScene28_gde_binding_create_callbackEPvS1_
000000000002a060 t __ZN5godot11PackedScene31_gde_binding_reference_callbackEPvS1_h
00000000001d0490 d __ZN5godot11PackedScene37_gde_engine_class_registration_helperE
0000000000192348 t __ZN5godot11PackedScene4packEPNS_4NodeE
000000000002a07c t __ZN5godot11PackedSceneC1EPv
000000000002a0b0 t __ZN5godot11PackedSceneC2EPv
000000000002a120 t __ZN5godot11PackedSceneD0Ev
000000000002a0f4 t __ZN5godot11PackedSceneD1Ev
000000000002a150 t __ZN5godot11PackedSceneD2Ev
0000000000029438 t __ZN5godot11SurfaceTool16get_class_staticEv
00000000001ccb10 s __ZN5godot11SurfaceTool22_gde_binding_callbacksE
000000000002950c t __ZN5godot11SurfaceTool26_gde_binding_free_callbackEPvS1_S1_
00000000000294c8 t __ZN5godot11SurfaceTool28_gde_binding_create_callbackEPvS1_
0000000000029550 t __ZN5godot11SurfaceTool31_gde_binding_reference_callbackEPvS1_h
00000000001d0440 d __ZN5godot11SurfaceTool37_gde_engine_class_registration_helperE
000000000002956c t __ZN5godot11SurfaceToolC1EPv
00000000000295a0 t __ZN5godot11SurfaceToolC2EPv
0000000000029610 t __ZN5godot11SurfaceToolD0Ev
00000000000295e4 t __ZN5godot11SurfaceToolD1Ev
0000000000029640 t __ZN5godot11SurfaceToolD2Ev
00000000000cae80 t __ZN5godot11Transform2DC1Ev
00000000000cd0a8 t __ZN5godot11Transform2DC2Ev
00000000000c4e08 t __ZN5godot11Transform3DC1Ev
00000000000c82dc t __ZN5godot11Transform3DC2Ev
000000000008692c t __ZN5godot11__swap_tmplIfEEvRT_S2_
0000000000010e04 t __ZN5godot12PropertyInfo7_updateEP23GDExtensionPropertyInfo
00000000000786f0 t __ZN5godot12PropertyInfo9from_dictERKNS_10DictionaryE
0000000000010e88 t __ZN5godot12PropertyInfoC1E22GDExtensionVariantTypeRKNS_10StringNameENS_12PropertyHintERKNS_6StringEjS4_
0000000000010ee4 t __ZN5godot12PropertyInfoC1ENS_7Variant4TypeERKNS_10StringNameENS_12PropertyHintERKNS_6StringEjS5_
0000000000069760 t __ZN5godot12PropertyInfoC1EOS0_
0000000000010d90 t __ZN5godot12PropertyInfoC1EPK23GDExtensionPropertyInfo
0000000000078eac t __ZN5godot12PropertyInfoC1ERKS0_
00000000000134b0 t __ZN5godot12PropertyInfoC1Ev
0000000000010f40 t __ZN5godot12PropertyInfoC2ENS_7Variant4TypeERKNS_10StringNameENS_12PropertyHintERKNS_6StringEjS5_
0000000000069794 t __ZN5godot12PropertyInfoC2EOS0_
0000000000078fa4 t __ZN5godot12PropertyInfoC2ERKS0_
00000000000135d0 t __ZN5godot12PropertyInfoC2Ev
0000000000001338 t __ZN5godot12PropertyInfoD1Ev
0000000000001364 t __ZN5godot12PropertyInfoD2Ev
0000000000013548 t __ZN5godot12PropertyInfoaSEOS0_
000000000016eb14 t __ZN5godot12TriangleMesh16get_class_staticEv
00000000001cdde0 s __ZN5godot12TriangleMesh22_gde_binding_callbacksE
000000000016ebe8 t __ZN5godot12TriangleMesh26_gde_binding_free_callbackEPvS1_S1_
000000000016eba4 t __ZN5godot12TriangleMesh28_gde_binding_create_callbackEPvS1_
000000000016ec2c t __ZN5godot12TriangleMesh31_gde_binding_reference_callbackEPvS1_h
00000000001d0b50 d __ZN5godot12TriangleMesh37_gde_engine_class_registration_helperE
000000000016ec48 t __ZN5godot12TriangleMeshC1EPv
000000000016ec7c t __ZN5godot12TriangleMeshC2EPv
000000000016ecec t __ZN5godot12TriangleMeshD0Ev
000000000016ecc0 t __ZN5godot12TriangleMeshD1Ev
000000000016ed1c t __ZN5godot12TriangleMeshD2Ev
000000000013fa10 t __ZN5godot13DisplayServer10tts_resumeEv
0000000000140ba0 t __ZN5godot13DisplayServer10warp_mouseERKNS_8Vector2iE
000000000014b844 t __ZN5godot13DisplayServer11dialog_showERKNS_6StringES3_RKNS_17PackedStringArrayERKNS_8CallableE
000000000014118c t __ZN5godot13DisplayServer13clipboard_setERKNS_6StringE
00000000001377dc t __ZN5godot13DisplayServer13get_singletonEv
0000000000140864 t __ZN5godot13DisplayServer14mouse_set_modeENS0_9MouseModeE
000000000014d2ac t __ZN5godot13DisplayServer14process_eventsEv
000000000014d5a4 t __ZN5godot13DisplayServer15set_native_iconERKNS_6StringE
0000000000147ecc t __ZN5godot13DisplayServer15window_set_flagENS0_11WindowFlagsEbi
0000000000147cf8 t __ZN5godot13DisplayServer15window_set_modeENS0_10WindowModeEi
0000000000146588 t __ZN5godot13DisplayServer15window_set_sizeERKNS_8Vector2iEi
000000000014af00 t __ZN5godot13DisplayServer16cursor_set_shapeENS0_11CursorShapeE
000000000014bd34 t __ZN5godot13DisplayServer16file_dialog_showERKNS_6StringES3_S3_bNS0_14FileDialogModeERKNS_17PackedStringArrayERKNS_8CallableE
0000000000137920 t __ZN5godot13DisplayServer16get_class_staticEv
000000000014542c t __ZN5godot13DisplayServer16window_set_titleERKNS_6StringEi
000000000014babc t __ZN5godot13DisplayServer17dialog_input_textERKNS_6StringES3_S3_RKNS_8CallableE
000000000013e868 t __ZN5godot13DisplayServer17global_menu_clearERKNS_6StringE
000000000014a090 t __ZN5godot13DisplayServer17window_start_dragEi
000000000014b4f0 t __ZN5godot13DisplayServer18get_swap_cancel_okEv
0000000000144458 t __ZN5godot13DisplayServer18screen_set_keep_onEb
0000000000147448 t __ZN5godot13DisplayServer19window_set_max_sizeERKNS_8Vector2iEi
00000000001477c0 t __ZN5godot13DisplayServer19window_set_min_sizeERKNS_8Vector2iEi
0000000000146190 t __ZN5godot13DisplayServer19window_set_positionERKNS_8Vector2iEi
000000000014a238 t __ZN5godot13DisplayServer19window_start_resizeENS0_16WindowResizeEdgeEi
00000000001384d0 t __ZN5godot13DisplayServer20global_menu_add_itemERKNS_6StringES3_RKNS_8CallableES6_RKNS_7VariantENS_3KeyEi
00000000001491d4 t __ZN5godot13DisplayServer20window_set_exclusiveEib
0000000000149000 t __ZN5godot13DisplayServer20window_set_transientEii
0000000000141ae0 t __ZN5godot13DisplayServer21clipboard_set_primaryERKNS_6StringE
000000000014aa44 t __ZN5godot13DisplayServer21virtual_keyboard_hideEv
000000000014a730 t __ZN5godot13DisplayServer21virtual_keyboard_showERKNS_6StringERKNS_5Rect2ENS0_19VirtualKeyboardTypeEiii
00000000001493b4 t __ZN5godot13DisplayServer21window_set_ime_activeEbi
00000000001497cc t __ZN5godot13DisplayServer21window_set_vsync_modeENS0_9VSyncModeEi
00000000001cd908 s __ZN5godot13DisplayServer22_gde_binding_callbacksE
0000000000144044 t __ZN5godot13DisplayServer22screen_set_orientationENS0_17ScreenOrientationEi
000000000014d918 t __ZN5godot13DisplayServer23create_status_indicatorERKNS_3RefINS_9Texture2DEEERKNS_6StringERKNS_8CallableE
000000000014b23c t __ZN5godot13DisplayServer23cursor_set_custom_imageERKNS_3RefINS_8ResourceEEENS0_11CursorShapeERKNS_7Vector2E
000000000014e684 t __ZN5godot13DisplayServer23delete_status_indicatorEi
000000000013e630 t __ZN5godot13DisplayServer23global_menu_remove_itemERKNS_6StringEi
0000000000149614 t __ZN5godot13DisplayServer23window_set_ime_positionERKNS_8Vector2iEi
000000000013cd98 t __ZN5godot13DisplayServer24global_menu_set_item_tagERKNS_6StringEiRKNS_7VariantE
0000000000148900 t __ZN5godot13DisplayServer24window_request_attentionEi
000000000014b69c t __ZN5godot13DisplayServer25enable_for_stealing_focusEx
0000000000138a40 t __ZN5godot13DisplayServer25global_menu_add_icon_itemERKNS_6StringERKNS_3RefINS_9Texture2DEEES3_RKNS_8CallableESB_RKNS_7VariantENS_3KeyEi
000000000013996c t __ZN5godot13DisplayServer25global_menu_add_separatorERKNS_6StringEi
000000000013dff4 t __ZN5godot13DisplayServer25global_menu_set_item_iconERKNS_6StringEiRKNS_3RefINS_9Texture2DEEE
000000000013cff0 t __ZN5godot13DisplayServer25global_menu_set_item_textERKNS_6StringEiS3_
0000000000137de4 t __ZN5godot13DisplayServer25help_set_search_callbacksERKNS_8CallableES3_
000000000014dbcc t __ZN5godot13DisplayServer25status_indicator_set_iconEiRKNS_3RefINS_9Texture2DEEE
000000000014e018 t __ZN5godot13DisplayServer25status_indicator_set_menuEiRKNS_3RIDE
000000000014ed0c t __ZN5godot13DisplayServer25tablet_set_current_driverERKNS_6StringE
0000000000148aa8 t __ZN5godot13DisplayServer25window_move_to_foregroundEi
0000000000145c3c t __ZN5godot13DisplayServer25window_set_current_screenEii
000000000014f5bc t __ZN5godot13DisplayServer26_gde_binding_free_callbackEPvS1_S1_
00000000001387f4 t __ZN5godot13DisplayServer26global_menu_add_check_itemERKNS_6StringES3_RKNS_8CallableES6_RKNS_7VariantENS_3KeyEi
000000000013dc2c t __ZN5godot13DisplayServer26global_menu_set_item_stateERKNS_6StringEii
000000000014f044 t __ZN5godot13DisplayServer26register_additional_outputEPNS_6ObjectE
000000000013fd08 t __ZN5godot13DisplayServer26tts_set_utterance_callbackENS0_17TTSUtteranceEventERKNS_8CallableE
0000000000145024 t __ZN5godot13DisplayServer26window_set_popup_safe_rectEiRKNS_6Rect2iE
000000000013d874 t __ZN5godot13DisplayServer27global_menu_set_item_hiddenERKNS_6StringEib
000000000014c890 t __ZN5godot13DisplayServer27keyboard_set_current_layoutEi
000000000014f578 t __ZN5godot13DisplayServer28_gde_binding_create_callbackEPvS1_
000000000013823c t __ZN5godot13DisplayServer28global_menu_add_submenu_itemERKNS_6StringES3_S3_i
000000000013c150 t __ZN5godot13DisplayServer28global_menu_set_item_checkedERKNS_6StringEib
000000000013d248 t __ZN5godot13DisplayServer28global_menu_set_item_submenuERKNS_6StringEiS3_
000000000013da64 t __ZN5godot13DisplayServer28global_menu_set_item_tooltipERKNS_6StringEiS3_
000000000014de60 t __ZN5godot13DisplayServer28status_indicator_set_tooltipEiRKNS_6StringE
000000000014f208 t __ZN5godot13DisplayServer28unregister_additional_outputEPNS_6ObjectE
0000000000145844 t __ZN5godot13DisplayServer28window_set_mouse_passthroughERKNS_18PackedVector2ArrayEi
000000000014c064 t __ZN5godot13DisplayServer29file_dialog_with_options_showERKNS_6StringES3_S3_S3_bNS0_14FileDialogModeERKNS_17PackedStringArrayERKNS_10TypedArrayINS_10DictionaryEEERKNS_8CallableE
000000000014d428 t __ZN5godot13DisplayServer29force_process_and_drop_eventsEv
000000000013c7b0 t __ZN5godot13DisplayServer29global_menu_set_item_callbackERKNS_6StringEiRKNS_8CallableE
000000000013d684 t __ZN5godot13DisplayServer29global_menu_set_item_disabledERKNS_6StringEib
000000000014e250 t __ZN5godot13DisplayServer29status_indicator_set_callbackEiRKNS_8CallableE
000000000013c3d0 t __ZN5godot13DisplayServer30global_menu_set_item_checkableERKNS_6StringEib
0000000000146ea0 t __ZN5godot13DisplayServer30window_set_drop_files_callbackERKNS_8CallableEi
0000000000146ce8 t __ZN5godot13DisplayServer30window_set_input_text_callbackERKNS_8CallableEi
000000000014f600 t __ZN5godot13DisplayServer31_gde_binding_reference_callbackEPvS1_h
0000000000138dec t __ZN5godot13DisplayServer31global_menu_add_icon_check_itemERKNS_6StringERKNS_3RefINS_9Texture2DEEES3_RKNS_8CallableESB_RKNS_7VariantENS_3KeyEi
00000000001395b8 t __ZN5godot13DisplayServer31global_menu_add_multistate_itemERKNS_6StringES3_iiRKNS_8CallableES6_RKNS_7VariantENS_3KeyEi
000000000013de10 t __ZN5godot13DisplayServer31global_menu_set_item_max_statesERKNS_6StringEii
0000000000138000 t __ZN5godot13DisplayServer31global_menu_set_popup_callbacksERKNS_6StringERKNS_8CallableES6_
0000000000146b30 t __ZN5godot13DisplayServer31window_set_input_event_callbackERKNS_8CallableEi
00000000001390ac t __ZN5godot13DisplayServer32global_menu_add_radio_check_itemERKNS_6StringES3_RKNS_8CallableES6_RKNS_7VariantENS_3KeyEi
000000000013d410 t __ZN5godot13DisplayServer32global_menu_set_item_acceleratorERKNS_6StringEiNS_3KeyE
0000000000140668 t __ZN5godot13DisplayServer32set_system_theme_change_callbackERKNS_8CallableE
0000000000146740 t __ZN5godot13DisplayServer32window_set_rect_changed_callbackERKNS_8CallableEi
00000000001483f0 t __ZN5godot13DisplayServer32window_set_window_buttons_offsetERKNS_8Vector2iEi
0000000000146978 t __ZN5godot13DisplayServer32window_set_window_event_callbackERKNS_8CallableEi
000000000013cbd0 t __ZN5godot13DisplayServer33global_menu_set_item_key_callbackERKNS_6StringEiRKNS_8CallableE
000000000013ca08 t __ZN5godot13DisplayServer36global_menu_set_item_hover_callbacksERKNS_6StringEiRKNS_8CallableE
000000000013c5c0 t __ZN5godot13DisplayServer36global_menu_set_item_radio_checkableERKNS_6StringEib
00000000001d08e8 d __ZN5godot13DisplayServer37_gde_engine_class_registration_helperE
00000000001392f8 t __ZN5godot13DisplayServer37global_menu_add_icon_radio_check_itemERKNS_6StringERKNS_3RefINS_9Texture2DEEES3_RKNS_8CallableESB_RKNS_7VariantENS_3KeyEi
000000000013e2a8 t __ZN5godot13DisplayServer38global_menu_set_item_indentation_levelERKNS_6StringEii
000000000014d730 t __ZN5godot13DisplayServer8set_iconERKNS_3RefINS_5ImageEEE
000000000013fb8c t __ZN5godot13DisplayServer8tts_stopEv
00000000001d8d40 s __ZN5godot13DisplayServer9singletonE
000000000013f894 t __ZN5godot13DisplayServer9tts_pauseEv
000000000013f524 t __ZN5godot13DisplayServer9tts_speakERKNS_6StringES3_iffib
000000000014f61c t __ZN5godot13DisplayServerC1EPv
000000000014f650 t __ZN5godot13DisplayServerC2EPv
0000000000137a4c t __ZN5godot13DisplayServerD0Ev
0000000000137a20 t __ZN5godot13DisplayServerD1Ev
00000000001379b0 t __ZN5godot13DisplayServerD2Ev
000000000005eb00 t __ZN5godot13EditorPlugins12deinitializeE30GDExtensionInitializationLevel
00000000001d6a68 s __ZN5godot13EditorPlugins14plugin_classesE
000000000005e0bc t __ZN5godot13EditorPlugins16add_plugin_classERKNS_10StringNameE
000000000005e728 t __ZN5godot13EditorPlugins19remove_plugin_classERKNS_10StringNameE
0000000000155418 t __ZN5godot13FastNoiseLite10set_offsetERKNS_7Vector3E
00000000001550d4 t __ZN5godot13FastNoiseLite13set_frequencyEf
0000000000154a5c t __ZN5godot13FastNoiseLite14set_noise_typeENS0_9NoiseTypeE
000000000002a658 t __ZN5godot13FastNoiseLite16get_class_staticEv
0000000000156168 t __ZN5godot13FastNoiseLite16set_fractal_gainEf
00000000001557ac t __ZN5godot13FastNoiseLite16set_fractal_typeENS0_11FractalTypeE
0000000000156e70 t __ZN5godot13FastNoiseLite19set_cellular_jitterEf
0000000000155ae8 t __ZN5godot13FastNoiseLite19set_fractal_octavesEi
0000000000157850 t __ZN5godot13FastNoiseLite20set_domain_warp_typeENS0_14DomainWarpTypeE
00000000001ccd10 s __ZN5godot13FastNoiseLite22_gde_binding_callbacksE
0000000000155e24 t __ZN5godot13FastNoiseLite22set_fractal_lacunarityEf
00000000001574f0 t __ZN5godot13FastNoiseLite23set_domain_warp_enabledEb
00000000001571b4 t __ZN5godot13FastNoiseLite24set_cellular_return_typeENS0_18CellularReturnTypeE
0000000000157b8c t __ZN5godot13FastNoiseLite25set_domain_warp_amplitudeEf
0000000000157ed0 t __ZN5godot13FastNoiseLite25set_domain_warp_frequencyEf
000000000002a72c t __ZN5godot13FastNoiseLite26_gde_binding_free_callbackEPvS1_S1_
000000000002a6e8 t __ZN5godot13FastNoiseLite28_gde_binding_create_callbackEPvS1_
0000000000158bd0 t __ZN5godot13FastNoiseLite28set_domain_warp_fractal_gainEf
0000000000158214 t __ZN5godot13FastNoiseLite28set_domain_warp_fractal_typeENS0_21DomainWarpFractalTypeE
00000000001564ac t __ZN5godot13FastNoiseLite29set_fractal_weighted_strengthEf
0000000000156b34 t __ZN5godot13FastNoiseLite30set_cellular_distance_functionENS0_24CellularDistanceFunctionE
00000000001567f0 t __ZN5godot13FastNoiseLite30set_fractal_ping_pong_strengthEf
000000000002a770 t __ZN5godot13FastNoiseLite31_gde_binding_reference_callbackEPvS1_h
0000000000158550 t __ZN5godot13FastNoiseLite31set_domain_warp_fractal_octavesEi
000000000015888c t __ZN5godot13FastNoiseLite34set_domain_warp_fractal_lacunarityEf
00000000001d04c0 d __ZN5godot13FastNoiseLite37_gde_engine_class_registration_helperE
0000000000154d98 t __ZN5godot13FastNoiseLite8set_seedEi
000000000002f438 t __ZN5godot13FastNoiseLiteC1EPKc
000000000002a78c t __ZN5godot13FastNoiseLiteC1EPv
000000000002f3d0 t __ZN5godot13FastNoiseLiteC1Ev
000000000002f46c t __ZN5godot13FastNoiseLiteC2EPKc
000000000002a7c0 t __ZN5godot13FastNoiseLiteC2EPv
000000000002a830 t __ZN5godot13FastNoiseLiteD0Ev
000000000002a804 t __ZN5godot13FastNoiseLiteD1Ev
000000000002a860 t __ZN5godot13FastNoiseLiteD2Ev
0000000000017b54 t __ZN5godot13MethodBindTRCINS_3RefINS_8MaterialEEEJEEC1EMNS_20_gde_UnexistingClassEKFS3_vE
0000000000017bb0 t __ZN5godot13MethodBindTRCINS_3RefINS_8MaterialEEEJEEC2EMNS_20_gde_UnexistingClassEKFS3_vE
0000000000017ee8 t __ZN5godot13MethodBindTRCINS_3RefINS_8MaterialEEEJEED0Ev
0000000000017ebc t __ZN5godot13MethodBindTRCINS_3RefINS_8MaterialEEEJEED1Ev
00000000000185a0 t __ZN5godot13MethodBindTRCINS_3RefINS_8MaterialEEEJEED2Ev
0000000000015e24 t __ZN5godot13MethodBindTRCIfJEEC1EMNS_20_gde_UnexistingClassEKFfvE
0000000000015e80 t __ZN5godot13MethodBindTRCIfJEEC2EMNS_20_gde_UnexistingClassEKFfvE
00000000000161bc t __ZN5godot13MethodBindTRCIfJEED0Ev
0000000000016190 t __ZN5godot13MethodBindTRCIfJEED1Ev
00000000000166e0 t __ZN5godot13MethodBindTRCIfJEED2Ev
00000000000145e0 t __ZN5godot13MethodBindTRCIiJEEC1EMNS_20_gde_UnexistingClassEKFivE
000000000001463c t __ZN5godot13MethodBindTRCIiJEEC2EMNS_20_gde_UnexistingClassEKFivE
0000000000014978 t __ZN5godot13MethodBindTRCIiJEED0Ev
000000000001494c t __ZN5godot13MethodBindTRCIiJEED1Ev
0000000000014f24 t __ZN5godot13MethodBindTRCIiJEED2Ev
0000000000193e50 t __ZN5godot13PrimitiveMesh11set_add_uv2Eb
0000000000193140 t __ZN5godot13PrimitiveMesh12set_materialERKNS_3RefINS_8MaterialEEE
00000000001944f4 t __ZN5godot13PrimitiveMesh14request_updateEv
0000000000193af0 t __ZN5godot13PrimitiveMesh14set_flip_facesEb
0000000000193710 t __ZN5godot13PrimitiveMesh15set_custom_aabbERKNS_4AABBE
00000000001941b0 t __ZN5godot13PrimitiveMesh15set_uv2_paddingEf
000000000002ae1c t __ZN5godot13PrimitiveMesh16get_class_staticEv
00000000001cce78 s __ZN5godot13PrimitiveMesh22_gde_binding_callbacksE
000000000002aef0 t __ZN5godot13PrimitiveMesh26_gde_binding_free_callbackEPvS1_S1_
000000000002aeac t __ZN5godot13PrimitiveMesh28_gde_binding_create_callbackEPvS1_
000000000002af34 t __ZN5godot13PrimitiveMesh31_gde_binding_reference_callbackEPvS1_h
00000000001d04f0 d __ZN5godot13PrimitiveMesh37_gde_engine_class_registration_helperE
000000000002af50 t __ZN5godot13PrimitiveMeshC1EPv
000000000002ff30 t __ZN5godot13PrimitiveMeshC2EPKc
000000000002af84 t __ZN5godot13PrimitiveMeshC2EPv
00000000001946d0 t __ZN5godot13PrimitiveMeshD0Ev
00000000001946a4 t __ZN5godot13PrimitiveMeshD1Ev
000000000002b250 t __ZN5godot13PrimitiveMeshD2Ev
0000000000171fe0 t __ZN5godot13SkinReference16get_class_staticEv
00000000001cdeb0 s __ZN5godot13SkinReference22_gde_binding_callbacksE
00000000001720b4 t __ZN5godot13SkinReference26_gde_binding_free_callbackEPvS1_S1_
0000000000172070 t __ZN5godot13SkinReference28_gde_binding_create_callbackEPvS1_
00000000001720f8 t __ZN5godot13SkinReference31_gde_binding_reference_callbackEPvS1_h
00000000001d0bc0 d __ZN5godot13SkinReference37_gde_engine_class_registration_helperE
0000000000172114 t __ZN5godot13SkinReferenceC1EPv
0000000000172148 t __ZN5godot13SkinReferenceC2EPv
00000000001721b8 t __ZN5godot13SkinReferenceD0Ev
000000000017218c t __ZN5godot13SkinReferenceD1Ev
00000000001721e8 t __ZN5godot13SkinReferenceD2Ev
00000000000605b4 t __ZN5godot13memdelete_arrI22GDExtensionVariantTypeEEvPT_
0000000000029d48 t __ZN5godot14MeshInstance3D16get_class_staticEv
000000000016f9e4 t __ZN5godot14MeshInstance3D17get_skeleton_pathEv
000000000016f858 t __ZN5godot14MeshInstance3D17set_skeleton_pathERKNS_8NodePathE
00000000001716e4 t __ZN5godot14MeshInstance3D21create_debug_tangentsEv
000000000017150c t __ZN5godot14MeshInstance3D21set_blend_shape_valueEif
00000000001ccbf0 s __ZN5godot14MeshInstance3D22_gde_binding_callbacksE
0000000000170bc0 t __ZN5godot14MeshInstance3D23create_convex_collisionEbb
0000000000170a44 t __ZN5godot14MeshInstance3D24create_trimesh_collisionEv
00000000001711a4 t __ZN5godot14MeshInstance3D24find_blend_shape_by_nameERKNS_10StringNameE
0000000000029e1c t __ZN5godot14MeshInstance3D26_gde_binding_free_callbackEPvS1_S1_
0000000000029dd8 t __ZN5godot14MeshInstance3D28_gde_binding_create_callbackEPvS1_
00000000001704b0 t __ZN5godot14MeshInstance3D29set_surface_override_materialEiRKNS_3RefINS_8MaterialEEE
0000000000029e60 t __ZN5godot14MeshInstance3D31_gde_binding_reference_callbackEPvS1_h
0000000000170e28 t __ZN5godot14MeshInstance3D33create_multiple_convex_collisionsERKNS_3RefINS_31MeshConvexDecompositionSettingsEEE
0000000000171b04 t __ZN5godot14MeshInstance3D36bake_mesh_from_current_skeleton_poseERKNS_3RefINS_9ArrayMeshEEE
00000000001d0480 d __ZN5godot14MeshInstance3D37_gde_engine_class_registration_helperE
0000000000171860 t __ZN5godot14MeshInstance3D38bake_mesh_from_current_blend_shape_mixERKNS_3RefINS_9ArrayMeshEEE
000000000016f43c t __ZN5godot14MeshInstance3D8set_meshERKNS_3RefINS_4MeshEEE
000000000016fb74 t __ZN5godot14MeshInstance3D8set_skinERKNS_3RefINS_4SkinEEE
000000000001e80c t __ZN5godot14MeshInstance3DC1EPKc
0000000000029e7c t __ZN5godot14MeshInstance3DC1EPv
000000000001ca68 t __ZN5godot14MeshInstance3DC1Ev
000000000001e840 t __ZN5godot14MeshInstance3DC2EPKc
0000000000029eb0 t __ZN5godot14MeshInstance3DC2EPv
000000000001e8f4 t __ZN5godot14MeshInstance3DD0Ev
000000000001e8c8 t __ZN5godot14MeshInstance3DD1Ev
000000000001ea1c t __ZN5godot14MeshInstance3DD2Ev
0000000000180684 t __ZN5godot14MultiplayerAPI16get_class_staticEv
00000000001cdf98 s __ZN5godot14MultiplayerAPI22_gde_binding_callbacksE
0000000000180758 t __ZN5godot14MultiplayerAPI26_gde_binding_free_callbackEPvS1_S1_
0000000000180714 t __ZN5godot14MultiplayerAPI28_gde_binding_create_callbackEPvS1_
000000000018079c t __ZN5godot14MultiplayerAPI31_gde_binding_reference_callbackEPvS1_h
00000000001d0c08 d __ZN5godot14MultiplayerAPI37_gde_engine_class_registration_helperE
00000000001807b8 t __ZN5godot14MultiplayerAPIC1EPv
00000000001807ec t __ZN5godot14MultiplayerAPIC2EPv
000000000018085c t __ZN5godot14MultiplayerAPID0Ev
0000000000180830 t __ZN5godot14MultiplayerAPID1Ev
000000000018088c t __ZN5godot14MultiplayerAPID2Ev
0000000000198f2c t __ZN5godot14ResourceLoader10has_cachedERKNS_6StringE
0000000000197a40 t __ZN5godot14ResourceLoader13get_singletonEv
00000000001990e8 t __ZN5godot14ResourceLoader14get_cached_refERKNS_6StringE
000000000019967c t __ZN5godot14ResourceLoader14list_directoryERKNS_6StringE
000000000002a1d0 t __ZN5godot14ResourceLoader16get_class_staticEv
0000000000198d8c t __ZN5godot14ResourceLoader16get_dependenciesERKNS_6StringE
00000000001994dc t __ZN5godot14ResourceLoader16get_resource_uidERKNS_6StringE
0000000000198144 t __ZN5godot14ResourceLoader17load_threaded_getERKNS_6StringE
0000000000197c50 t __ZN5godot14ResourceLoader21load_threaded_requestERKNS_6StringES3_bNS0_9CacheModeE
00000000001ccc80 s __ZN5godot14ResourceLoader22_gde_binding_callbacksE
0000000000197f0c t __ZN5godot14ResourceLoader24load_threaded_get_statusERKNS_6StringERKNS_5ArrayE
000000000002a2a4 t __ZN5godot14ResourceLoader26_gde_binding_free_callbackEPvS1_S1_
00000000001987d0 t __ZN5godot14ResourceLoader26add_resource_format_loaderERKNS_3RefINS_20ResourceFormatLoaderEEEb
000000000002a260 t __ZN5godot14ResourceLoader28_gde_binding_create_callbackEPvS1_
00000000001989f0 t __ZN5godot14ResourceLoader29remove_resource_format_loaderERKNS_3RefINS_20ResourceFormatLoaderEEE
0000000000198bd8 t __ZN5godot14ResourceLoader30set_abort_on_missing_resourcesEb
000000000002a2e8 t __ZN5godot14ResourceLoader31_gde_binding_reference_callbackEPvS1_h
0000000000198630 t __ZN5godot14ResourceLoader34get_recognized_extensions_for_typeERKNS_6StringE
00000000001d04a0 d __ZN5godot14ResourceLoader37_gde_engine_class_registration_helperE
000000000019838c t __ZN5godot14ResourceLoader4loadERKNS_6StringES3_NS0_9CacheModeE
000000000019928c t __ZN5godot14ResourceLoader6existsERKNS_6StringES3_
00000000001d8d58 s __ZN5godot14ResourceLoader9singletonE
000000000002a304 t __ZN5godot14ResourceLoaderC1EPv
000000000002a338 t __ZN5godot14ResourceLoaderC2EPv
0000000000197c20 t __ZN5godot14ResourceLoaderD0Ev
0000000000197bf4 t __ZN5godot14ResourceLoaderD1Ev
0000000000197b84 t __ZN5godot14ResourceLoaderD2Ev
0000000000154684 t __ZN5godot14ScriptLanguage16get_class_staticEv
00000000001cda30 s __ZN5godot14ScriptLanguage22_gde_binding_callbacksE
0000000000154758 t __ZN5godot14ScriptLanguage26_gde_binding_free_callbackEPvS1_S1_
0000000000154714 t __ZN5godot14ScriptLanguage28_gde_binding_create_callbackEPvS1_
000000000015479c t __ZN5godot14ScriptLanguage31_gde_binding_reference_callbackEPvS1_h
00000000001d09f0 d __ZN5godot14ScriptLanguage37_gde_engine_class_registration_helperE
00000000001547b8 t __ZN5godot14ScriptLanguageC1EPv
00000000001547ec t __ZN5godot14ScriptLanguageC2EPv
000000000015485c t __ZN5godot14ScriptLanguageD0Ev
0000000000154830 t __ZN5godot14ScriptLanguageD1Ev
000000000015488c t __ZN5godot14ScriptLanguageD2Ev
000000000002a8e0 t __ZN5godot14ShaderMaterial16get_class_staticEv
00000000001ccd88 s __ZN5godot14ShaderMaterial22_gde_binding_callbacksE
000000000002a9b4 t __ZN5godot14ShaderMaterial26_gde_binding_free_callbackEPvS1_S1_
000000000002a970 t __ZN5godot14ShaderMaterial28_gde_binding_create_callbackEPvS1_
000000000002a9f8 t __ZN5godot14ShaderMaterial31_gde_binding_reference_callbackEPvS1_h
00000000001d04d0 d __ZN5godot14ShaderMaterial37_gde_engine_class_registration_helperE
000000000002aa14 t __ZN5godot14ShaderMaterialC1EPv
000000000002aa48 t __ZN5godot14ShaderMaterialC2EPv
000000000002aab8 t __ZN5godot14ShaderMaterialD0Ev
000000000002aa8c t __ZN5godot14ShaderMaterialD1Ev
000000000002aae8 t __ZN5godot14ShaderMaterialD2Ev
00000000000f86b0 t __ZN5godot15PackedByteArray10encode_s16Exx
00000000000f87a0 t __ZN5godot15PackedByteArray10encode_s32Exx
00000000000f8890 t __ZN5godot15PackedByteArray10encode_s64Exx
00000000000f8638 t __ZN5godot15PackedByteArray10encode_u16Exx
00000000000f8728 t __ZN5godot15PackedByteArray10encode_u32Exx
00000000000f8818 t __ZN5godot15PackedByteArray10encode_u64Exx
00000000000f8ad8 t __ZN5godot15PackedByteArray10encode_varExRKNS_7VariantEb
00000000000f8908 t __ZN5godot15PackedByteArray11encode_halfExd
00000000000f7058 t __ZN5godot15PackedByteArray12append_arrayERKS0_
00000000000f89e8 t __ZN5godot15PackedByteArray12encode_floatExd
00000000000f8a60 t __ZN5godot15PackedByteArray13encode_doubleExd
00000000000f52d8 t __ZN5godot15PackedByteArray13init_bindingsEv
00000000001d8068 s __ZN5godot15PackedByteArray16_method_bindingsE
00000000000f520c t __ZN5godot15PackedByteArray38_init_bindings_constructors_destructorEv
00000000000f6df8 t __ZN5godot15PackedByteArray3setExx
00000000000f7224 t __ZN5godot15PackedByteArray4fillEx
00000000000daefc t __ZN5godot15PackedByteArray4ptrwEv
00000000000f74c8 t __ZN5godot15PackedByteArray4sortEv
00000000000f72cc t __ZN5godot15PackedByteArray5clearEv
00000000000f6ffc t __ZN5godot15PackedByteArray6appendEx
00000000000f7140 t __ZN5godot15PackedByteArray6insertExx
00000000000f7278 t __ZN5godot15PackedByteArray6resizeEx
00000000000f74f8 t __ZN5godot15PackedByteArray7bsearchExb
00000000000f7358 t __ZN5godot15PackedByteArray7reverseEv
00000000000f75e8 t __ZN5godot15PackedByteArray9duplicateEv
00000000000f85c0 t __ZN5godot15PackedByteArray9encode_s8Exx
00000000000f8548 t __ZN5godot15PackedByteArray9encode_u8Exx
00000000000f6f40 t __ZN5godot15PackedByteArray9push_backEx
00000000000f70ec t __ZN5godot15PackedByteArray9remove_atEx
00000000000f6d0c t __ZN5godot15PackedByteArrayC1EOS0_
00000000000f6a88 t __ZN5godot15PackedByteArrayC1EPKNS_7VariantE
00000000000f6c70 t __ZN5godot15PackedByteArrayC1ERKNS_5ArrayE
00000000000f6bc8 t __ZN5godot15PackedByteArrayC1ERKS0_
00000000000f6b28 t __ZN5godot15PackedByteArrayC1Ev
00000000000f6ca4 t __ZN5godot15PackedByteArrayC2EOS0_
00000000000f6a10 t __ZN5godot15PackedByteArrayC2EPKNS_7VariantE
00000000000f6bfc t __ZN5godot15PackedByteArrayC2ERKNS_5ArrayE
00000000000f6b54 t __ZN5godot15PackedByteArrayC2ERKS0_
00000000000f6abc t __ZN5godot15PackedByteArrayC2Ev
00000000000f6d78 t __ZN5godot15PackedByteArrayD1Ev
00000000000f6d40 t __ZN5godot15PackedByteArrayD2Ev
00000000000f8e3c t __ZN5godot15PackedByteArrayaSEOS0_
00000000000f8de8 t __ZN5godot15PackedByteArrayaSERKS0_
00000000000dae90 t __ZN5godot15PackedByteArrayixEx
000000000007996c t __ZN5godot15VariantInternal13init_bindingsEv
00000000001d6b30 s __ZN5godot15VariantInternal17get_internal_funcE
00000000001d6a78 s __ZN5godot15_GlobalNilClass4_nilE
00000000001212e8 t __ZN5godot16ClassDBSingleton13get_singletonEv
0000000000001400 t __ZN5godot16ClassDBSingleton16get_class_staticEv
00000000001cc0f8 s __ZN5godot16ClassDBSingleton22_gde_binding_callbacksE
0000000000123170 t __ZN5godot16ClassDBSingleton25class_get_property_getterERKNS_10StringNameES3_
00000000001233f8 t __ZN5godot16ClassDBSingleton25class_get_property_setterERKNS_10StringNameES3_
00000000000014d4 t __ZN5godot16ClassDBSingleton26_gde_binding_free_callbackEPvS1_S1_
00000000001244c0 t __ZN5godot16ClassDBSingleton26class_call_static_internalEPPKNS_7VariantEx
0000000000001490 t __ZN5godot16ClassDBSingleton28_gde_binding_create_callbackEPvS1_
0000000000001518 t __ZN5godot16ClassDBSingleton31_gde_binding_reference_callbackEPvS1_h
00000000001d0200 d __ZN5godot16ClassDBSingleton37_gde_engine_class_registration_helperE
00000000001d8d38 s __ZN5godot16ClassDBSingleton9singletonE
0000000000001534 t __ZN5godot16ClassDBSingletonC1EPv
0000000000001568 t __ZN5godot16ClassDBSingletonC2EPv
0000000000121634 t __ZN5godot16ClassDBSingletonD0Ev
0000000000121608 t __ZN5godot16ClassDBSingletonD1Ev
0000000000121550 t __ZN5godot16ClassDBSingletonD2Ev
0000000000061e98 t __ZN5godot16MethodDefinitionC1ENS_10StringNameE
0000000000067854 t __ZN5godot16MethodDefinitionC2ENS_10StringNameE
0000000000012008 t __ZN5godot16MethodDefinitionD1Ev
0000000000014010 t __ZN5godot16MethodDefinitionD2Ev
0000000000105c48 t __ZN5godot16PackedColorArray12append_arrayERKS0_
0000000000104bc8 t __ZN5godot16PackedColorArray13init_bindingsEv
00000000001d8ae8 s __ZN5godot16PackedColorArray16_method_bindingsE
0000000000104afc t __ZN5godot16PackedColorArray38_init_bindings_constructors_destructorEv
0000000000105a3c t __ZN5godot16PackedColorArray3setExRKNS_5ColorE
0000000000105df8 t __ZN5godot16PackedColorArray4fillERKNS_5ColorE
00000000000dafe4 t __ZN5godot16PackedColorArray4ptrwEv
00000000001060f8 t __ZN5godot16PackedColorArray4sortEv
0000000000105ee0 t __ZN5godot16PackedColorArray5clearEv
0000000000105c08 t __ZN5godot16PackedColorArray6appendERKNS_5ColorE
0000000000105d30 t __ZN5godot16PackedColorArray6insertExRKNS_5ColorE
0000000000105e8c t __ZN5godot16PackedColorArray6resizeEx
0000000000106128 t __ZN5godot16PackedColorArray7bsearchERKNS_5ColorEb
0000000000105f50 t __ZN5godot16PackedColorArray7reverseEv
00000000001061fc t __ZN5godot16PackedColorArray9duplicateEv
0000000000105b68 t __ZN5godot16PackedColorArray9push_backERKNS_5ColorE
0000000000105cdc t __ZN5godot16PackedColorArray9remove_atEx
0000000000105894 t __ZN5godot16PackedColorArrayC1EOS0_
0000000000105610 t __ZN5godot16PackedColorArrayC1EPKNS_7VariantE
00000000001057f8 t __ZN5godot16PackedColorArrayC1ERKNS_5ArrayE
0000000000105750 t __ZN5godot16PackedColorArrayC1ERKS0_
00000000001056b0 t __ZN5godot16PackedColorArrayC1Ev
000000000010582c t __ZN5godot16PackedColorArrayC2EOS0_
0000000000105598 t __ZN5godot16PackedColorArrayC2EPKNS_7VariantE
0000000000105784 t __ZN5godot16PackedColorArrayC2ERKNS_5ArrayE
00000000001056dc t __ZN5godot16PackedColorArrayC2ERKS0_
0000000000105644 t __ZN5godot16PackedColorArrayC2Ev
0000000000105900 t __ZN5godot16PackedColorArrayD1Ev
00000000001058c8 t __ZN5godot16PackedColorArrayD2Ev
0000000000106708 t __ZN5godot16PackedColorArrayaSEOS0_
00000000001066b4 t __ZN5godot16PackedColorArrayaSERKS0_
00000000000daf70 t __ZN5godot16PackedColorArrayixEx
00000000000f9ee0 t __ZN5godot16PackedInt32Array12append_arrayERKS0_
00000000000f8f90 t __ZN5godot16PackedInt32Array13init_bindingsEv
00000000001d82c0 s __ZN5godot16PackedInt32Array16_method_bindingsE
00000000000f8ec4 t __ZN5godot16PackedInt32Array38_init_bindings_constructors_destructorEv
00000000000f9d48 t __ZN5godot16PackedInt32Array3setExx
00000000000fa040 t __ZN5godot16PackedInt32Array4fillEx
00000000000db26c t __ZN5godot16PackedInt32Array4ptrwEv
00000000000fa31c t __ZN5godot16PackedInt32Array4sortEv
00000000000fa0e8 t __ZN5godot16PackedInt32Array5clearEv
00000000000f9e84 t __ZN5godot16PackedInt32Array6appendEx
00000000000f9fc8 t __ZN5godot16PackedInt32Array6insertExx
00000000000fa094 t __ZN5godot16PackedInt32Array6resizeEx
00000000000fa34c t __ZN5godot16PackedInt32Array7bsearchExb
00000000000fa174 t __ZN5godot16PackedInt32Array7reverseEv
00000000000fa3d0 t __ZN5godot16PackedInt32Array9duplicateEv
00000000000f9e28 t __ZN5godot16PackedInt32Array9push_backEx
00000000000f9f74 t __ZN5godot16PackedInt32Array9remove_atEx
00000000000f9c5c t __ZN5godot16PackedInt32ArrayC1EOS0_
00000000000f99d8 t __ZN5godot16PackedInt32ArrayC1EPKNS_7VariantE
00000000000f9bc0 t __ZN5godot16PackedInt32ArrayC1ERKNS_5ArrayE
00000000000f9b18 t __ZN5godot16PackedInt32ArrayC1ERKS0_
00000000000f9a78 t __ZN5godot16PackedInt32ArrayC1Ev
00000000000f9bf4 t __ZN5godot16PackedInt32ArrayC2EOS0_
00000000000f9960 t __ZN5godot16PackedInt32ArrayC2EPKNS_7VariantE
00000000000f9b4c t __ZN5godot16PackedInt32ArrayC2ERKNS_5ArrayE
00000000000f9aa4 t __ZN5godot16PackedInt32ArrayC2ERKS0_
00000000000f9a0c t __ZN5godot16PackedInt32ArrayC2Ev
00000000000f9cc8 t __ZN5godot16PackedInt32ArrayD1Ev
00000000000f9c90 t __ZN5godot16PackedInt32ArrayD2Ev
00000000000fa7ac t __ZN5godot16PackedInt32ArrayaSEOS0_
00000000000fa758 t __ZN5godot16PackedInt32ArrayaSERKS0_
00000000000db200 t __ZN5godot16PackedInt32ArrayixEx
00000000000fb850 t __ZN5godot16PackedInt64Array12append_arrayERKS0_
00000000000fa900 t __ZN5godot16PackedInt64Array13init_bindingsEv
00000000001d83e8 s __ZN5godot16PackedInt64Array16_method_bindingsE
00000000000fa834 t __ZN5godot16PackedInt64Array38_init_bindings_constructors_destructorEv
00000000000fb6b8 t __ZN5godot16PackedInt64Array3setExx
00000000000fb9b0 t __ZN5godot16PackedInt64Array4fillEx
00000000000db344 t __ZN5godot16PackedInt64Array4ptrwEv
00000000000fbc8c t __ZN5godot16PackedInt64Array4sortEv
00000000000fba58 t __ZN5godot16PackedInt64Array5clearEv
00000000000fb7f4 t __ZN5godot16PackedInt64Array6appendEx
00000000000fb938 t __ZN5godot16PackedInt64Array6insertExx
00000000000fba04 t __ZN5godot16PackedInt64Array6resizeEx
00000000000fbcbc t __ZN5godot16PackedInt64Array7bsearchExb
00000000000fbae4 t __ZN5godot16PackedInt64Array7reverseEv
00000000000fbd40 t __ZN5godot16PackedInt64Array9duplicateEv
00000000000fb798 t __ZN5godot16PackedInt64Array9push_backEx
00000000000fb8e4 t __ZN5godot16PackedInt64Array9remove_atEx
00000000000fb5cc t __ZN5godot16PackedInt64ArrayC1EOS0_
00000000000fb348 t __ZN5godot16PackedInt64ArrayC1EPKNS_7VariantE
00000000000fb530 t __ZN5godot16PackedInt64ArrayC1ERKNS_5ArrayE
00000000000fb488 t __ZN5godot16PackedInt64ArrayC1ERKS0_
00000000000fb3e8 t __ZN5godot16PackedInt64ArrayC1Ev
00000000000fb564 t __ZN5godot16PackedInt64ArrayC2EOS0_
00000000000fb2d0 t __ZN5godot16PackedInt64ArrayC2EPKNS_7VariantE
00000000000fb4bc t __ZN5godot16PackedInt64ArrayC2ERKNS_5ArrayE
00000000000fb414 t __ZN5godot16PackedInt64ArrayC2ERKS0_
00000000000fb37c t __ZN5godot16PackedInt64ArrayC2Ev
00000000000fb638 t __ZN5godot16PackedInt64ArrayD1Ev
00000000000fb600 t __ZN5godot16PackedInt64ArrayD2Ev
00000000000fc11c t __ZN5godot16PackedInt64ArrayaSEOS0_
00000000000fc0c8 t __ZN5godot16PackedInt64ArrayaSERKS0_
00000000000db2d8 t __ZN5godot16PackedInt64ArrayixEx
00000000001b21fc t __ZN5godot16UtilityFunctions10deg_to_radEd
00000000001b15fc t __ZN5godot16UtilityFunctions10lerp_angleEddd
00000000001b2394 t __ZN5godot16UtilityFunctions10rad_to_degEd
00000000001b1c2c t __ZN5godot16UtilityFunctions10smoothstepEddd
00000000001b6bb4 t __ZN5godot16UtilityFunctions10str_to_varERKNS_6StringE
00000000001b697c t __ZN5godot16UtilityFunctions10var_to_strERKNS_7VariantE
00000000001b1e1c t __ZN5godot16UtilityFunctions11move_towardEddd
00000000001b3e5c t __ZN5godot16UtilityFunctions11nearest_po2Ex
00000000001b48c4 t __ZN5godot16UtilityFunctions11randf_rangeEdd
00000000001b4704 t __ZN5godot16UtilityFunctions11randi_rangeExx
00000000001b5a68 t __ZN5godot16UtilityFunctions11type_stringEx
00000000001b7024 t __ZN5godot16UtilityFunctions12bytes_to_varERKNS_15PackedByteArrayE
00000000001b26c4 t __ZN5godot16UtilityFunctions12db_to_linearEd
00000000001b5814 t __ZN5godot16UtilityFunctions12error_stringEx
00000000001b17ec t __ZN5godot16UtilityFunctions12inverse_lerpEddd
00000000001b252c t __ZN5godot16UtilityFunctions12linear_to_dbEd
00000000001b2e58 t __ZN5godot16UtilityFunctions12max_internalEPPKNS_7VariantEx
00000000001b33a0 t __ZN5godot16UtilityFunctions12min_internalEPPKNS_7VariantEx
00000000001b5650 t __ZN5godot16UtilityFunctions12str_internalEPPKNS_7VariantEx
00000000001b53dc t __ZN5godot16UtilityFunctions12type_convertERKNS_7VariantEx
00000000001b6dec t __ZN5godot16UtilityFunctions12var_to_bytesERKNS_7VariantE
00000000001b200c t __ZN5godot16UtilityFunctions13rotate_towardEddd
00000000001afd38 t __ZN5godot16UtilityFunctions13step_decimalsEd
00000000001af814 t __ZN5godot16UtilityFunctions14is_zero_approxEd
00000000001b5bfc t __ZN5godot16UtilityFunctions14print_internalEPPKNS_7VariantEx
00000000001b4e30 t __ZN5godot16UtilityFunctions14rand_from_seedEx
00000000001b7c54 t __ZN5godot16UtilityFunctions14rid_from_int64Ex
00000000001af5c0 t __ZN5godot16UtilityFunctions15is_equal_approxEdd
00000000001b61fc t __ZN5godot16UtilityFunctions15prints_internalEPPKNS_7VariantEx
00000000001b607c t __ZN5godot16UtilityFunctions15printt_internalEPPKNS_7VariantEx
00000000001b7aec t __ZN5godot16UtilityFunctions15rid_allocate_idEv
00000000001b1438 t __ZN5godot16UtilityFunctions16angle_differenceEdd
00000000001b76c4 t __ZN5godot16UtilityFunctions16instance_from_idEx
00000000001b11e8 t __ZN5godot16UtilityFunctions17bezier_derivativeEddddd
00000000001b03bc t __ZN5godot16UtilityFunctions17cubic_interpolateEddddd
00000000001b5efc t __ZN5godot16UtilityFunctions17printerr_internalEPPKNS_7VariantEx
00000000001b637c t __ZN5godot16UtilityFunctions17printraw_internalEPPKNS_7VariantEx
00000000001b0f98 t __ZN5godot16UtilityFunctions18bezier_interpolateEddddd
00000000001b5d7c t __ZN5godot16UtilityFunctions19print_rich_internalEPPKNS_7VariantEx
00000000001b667c t __ZN5godot16UtilityFunctions19push_error_internalEPPKNS_7VariantEx
00000000001b78d4 t __ZN5godot16UtilityFunctions20is_instance_id_validEx
00000000001b67fc t __ZN5godot16UtilityFunctions21push_warning_internalEPPKNS_7VariantEx
00000000001b64fc t __ZN5godot16UtilityFunctions22print_verbose_internalEPPKNS_7VariantEx
00000000001b06b4 t __ZN5godot16UtilityFunctions23cubic_interpolate_angleEddddd
00000000001b73d4 t __ZN5godot16UtilityFunctions25bytes_to_var_with_objectsERKNS_15PackedByteArrayE
00000000001b0904 t __ZN5godot16UtilityFunctions25cubic_interpolate_in_timeEdddddddd
00000000001b725c t __ZN5godot16UtilityFunctions25var_to_bytes_with_objectsERKNS_7VariantE
00000000001b0cbc t __ZN5godot16UtilityFunctions31cubic_interpolate_angle_in_timeEdddddddd
00000000001add00 t __ZN5godot16UtilityFunctions3absERKNS_7VariantE
00000000001ab2d0 t __ZN5godot16UtilityFunctions3cosEd
00000000001af060 t __ZN5godot16UtilityFunctions3expEd
00000000001aeec8 t __ZN5godot16UtilityFunctions3logEd
00000000001aed04 t __ZN5godot16UtilityFunctions3powEdd
00000000001ab0d0 t __ZN5godot16UtilityFunctions3sinEd
00000000001ab468 t __ZN5godot16UtilityFunctions3tanEd
00000000001ade78 t __ZN5godot16UtilityFunctions4absfEd
00000000001ae010 t __ZN5godot16UtilityFunctions4absiEx
00000000001abc60 t __ZN5godot16UtilityFunctions4acosEd
00000000001abac8 t __ZN5godot16UtilityFunctions4asinEd
00000000001abdf8 t __ZN5godot16UtilityFunctions4atanEd
00000000001ad3b8 t __ZN5godot16UtilityFunctions4ceilERKNS_7VariantE
00000000001ab798 t __ZN5godot16UtilityFunctions4coshEd
00000000001afb74 t __ZN5godot16UtilityFunctions4easeEdd
00000000001ac82c t __ZN5godot16UtilityFunctions4fmodEdd
00000000001b754c t __ZN5godot16UtilityFunctions4hashERKNS_7VariantE
00000000001afecc t __ZN5godot16UtilityFunctions4lerpERKNS_7VariantES3_S3_
00000000001b31dc t __ZN5godot16UtilityFunctions4maxfEdd
00000000001b301c t __ZN5godot16UtilityFunctions4maxiExx
00000000001b3724 t __ZN5godot16UtilityFunctions4minfEdd
00000000001b3564 t __ZN5godot16UtilityFunctions4miniExx
00000000001b4c4c t __ZN5godot16UtilityFunctions4seedEx
00000000001ae20c t __ZN5godot16UtilityFunctions4signERKNS_7VariantE
00000000001ab600 t __ZN5godot16UtilityFunctions4sinhEd
00000000001ac694 t __ZN5godot16UtilityFunctions4sqrtEd
00000000001ab930 t __ZN5godot16UtilityFunctions4tanhEd
00000000001b285c t __ZN5godot16UtilityFunctions4wrapERKNS_7VariantES3_S3_
00000000001ac364 t __ZN5godot16UtilityFunctions5acoshEd
00000000001ac1cc t __ZN5godot16UtilityFunctions5asinhEd
00000000001abf90 t __ZN5godot16UtilityFunctions5atan2Edd
00000000001ac4fc t __ZN5godot16UtilityFunctions5atanhEd
00000000001ad530 t __ZN5godot16UtilityFunctions5ceilfEd
00000000001ad6c8 t __ZN5godot16UtilityFunctions5ceiliEd
00000000001b38e8 t __ZN5godot16UtilityFunctions5clampERKNS_7VariantES3_S3_
00000000001acdec t __ZN5godot16UtilityFunctions5floorERKNS_7VariantE
00000000001b0144 t __ZN5godot16UtilityFunctions5lerpfEddd
000000000001b53c t __ZN5godot16UtilityFunctions5printIJEEEvRKNS_7VariantEDpRKT_
00000000001b4534 t __ZN5godot16UtilityFunctions5randfEv
00000000001b4368 t __ZN5godot16UtilityFunctions5randiEv
00000000001b19dc t __ZN5godot16UtilityFunctions5remapEddddd
00000000001ad85c t __ZN5godot16UtilityFunctions5roundERKNS_7VariantE
00000000001ae384 t __ZN5godot16UtilityFunctions5signfEd
00000000001ae51c t __ZN5godot16UtilityFunctions5signiEx
00000000001b2c68 t __ZN5godot16UtilityFunctions5wrapfEddd
00000000001b29f4 t __ZN5godot16UtilityFunctions5wrapiExxx
00000000001b3c6c t __ZN5godot16UtilityFunctions6clampfEddd
00000000001b3a80 t __ZN5godot16UtilityFunctions6clampiExxx
00000000001ad024 t __ZN5godot16UtilityFunctions6floorfEd
00000000001ad1bc t __ZN5godot16UtilityFunctions6flooriEd
00000000001af410 t __ZN5godot16UtilityFunctions6is_infEd
00000000001af1f8 t __ZN5godot16UtilityFunctions6is_nanEd
00000000001acbb4 t __ZN5godot16UtilityFunctions6posmodExx
00000000001b4a88 t __ZN5godot16UtilityFunctions6randfnEdd
00000000001ad9d4 t __ZN5godot16UtilityFunctions6roundfEd
00000000001adb6c t __ZN5godot16UtilityFunctions6roundiEd
00000000001ac9f0 t __ZN5godot16UtilityFunctions7fposmodEdd
00000000001b7e68 t __ZN5godot16UtilityFunctions7is_sameERKNS_7VariantES3_
00000000001ae6b0 t __ZN5godot16UtilityFunctions7snappedERKNS_7VariantES3_
00000000001b51fc t __ZN5godot16UtilityFunctions7type_ofERKNS_7VariantE
00000000001b5084 t __ZN5godot16UtilityFunctions7weakrefERKNS_7VariantE
00000000001b3ff0 t __ZN5godot16UtilityFunctions8pingpongEdd
00000000001ae908 t __ZN5godot16UtilityFunctions8snappedfEdd
00000000001aeacc t __ZN5godot16UtilityFunctions8snappediEdx
00000000001af9c4 t __ZN5godot16UtilityFunctions9is_finiteEd
00000000001b41b4 t __ZN5godot16UtilityFunctions9randomizeEv
000000000019cb44 t __ZN5godot16VisualInstance3D14set_layer_maskEj
00000000000296c0 t __ZN5godot16VisualInstance3D16get_class_staticEv
000000000019d238 t __ZN5godot16VisualInstance3D18set_sorting_offsetEf
000000000019ce80 t __ZN5godot16VisualInstance3D20set_layer_mask_valueEib
00000000001ccb68 s __ZN5godot16VisualInstance3D22_gde_binding_callbacksE
0000000000029794 t __ZN5godot16VisualInstance3D26_gde_binding_free_callbackEPvS1_S1_
000000000019d57c t __ZN5godot16VisualInstance3D27set_sorting_use_aabb_centerEb
0000000000029750 t __ZN5godot16VisualInstance3D28_gde_binding_create_callbackEPvS1_
00000000000297d8 t __ZN5godot16VisualInstance3D31_gde_binding_reference_callbackEPvS1_h
00000000001d0450 d __ZN5godot16VisualInstance3D37_gde_engine_class_registration_helperE
000000000019c628 t __ZN5godot16VisualInstance3D8set_baseERKNS_3RIDE
00000000000297f4 t __ZN5godot16VisualInstance3DC1EPv
000000000001e924 t __ZN5godot16VisualInstance3DC2EPKc
0000000000029828 t __ZN5godot16VisualInstance3DC2EPv
000000000019dc38 t __ZN5godot16VisualInstance3DD0Ev
000000000019dc0c t __ZN5godot16VisualInstance3DD1Ev
000000000001e9f0 t __ZN5godot16VisualInstance3DD2Ev
000000000007942c t __ZN5godot16_err_print_errorEPKcS1_iRKNS_6StringES1_bb
000000000007955c t __ZN5godot16_err_print_errorEPKcS1_iRKNS_6StringES4_bb
0000000000079300 t __ZN5godot16_err_print_errorEPKcS1_iRKNS_6StringEbb
00000000000794c0 t __ZN5godot16_err_print_errorEPKcS1_iS1_RKNS_6StringEbb
000000000007938c t __ZN5godot16_err_print_errorEPKcS1_iS1_S1_bb
000000000007926c t __ZN5godot16_err_print_errorEPKcS1_iS1_bb
000000000010071c t __ZN5godot17PackedStringArray12append_arrayERKS0_
00000000000ff7b0 t __ZN5godot17PackedStringArray13init_bindingsEv
00000000001d8760 s __ZN5godot17PackedStringArray16_method_bindingsE
00000000000ff6e4 t __ZN5godot17PackedStringArray38_init_bindings_constructors_destructorEv
0000000000100570 t __ZN5godot17PackedStringArray3setExRKNS_6StringE
00000000001008cc t __ZN5godot17PackedStringArray4fillERKNS_6StringE
00000000000db42c t __ZN5godot17PackedStringArray4ptrwEv
0000000000100bcc t __ZN5godot17PackedStringArray4sortEv
00000000001009b4 t __ZN5godot17PackedStringArray5clearEv
00000000001006dc t __ZN5godot17PackedStringArray6appendERKNS_6StringE
0000000000100804 t __ZN5godot17PackedStringArray6insertExRKNS_6StringE
0000000000100960 t __ZN5godot17PackedStringArray6resizeEx
0000000000100bfc t __ZN5godot17PackedStringArray7bsearchERKNS_6StringEb
0000000000100a24 t __ZN5godot17PackedStringArray7reverseEv
0000000000100cd0 t __ZN5godot17PackedStringArray9duplicateEv
000000000010069c t __ZN5godot17PackedStringArray9push_backERKNS_6StringE
00000000001007b0 t __ZN5godot17PackedStringArray9remove_atEx
000000000010047c t __ZN5godot17PackedStringArrayC1EOS0_
00000000001001f8 t __ZN5godot17PackedStringArrayC1EPKNS_7VariantE
00000000001003e0 t __ZN5godot17PackedStringArrayC1ERKNS_5ArrayE
0000000000100338 t __ZN5godot17PackedStringArrayC1ERKS0_
0000000000100298 t __ZN5godot17PackedStringArrayC1Ev
0000000000100414 t __ZN5godot17PackedStringArrayC2EOS0_
0000000000100180 t __ZN5godot17PackedStringArrayC2EPKNS_7VariantE
000000000010036c t __ZN5godot17PackedStringArrayC2ERKNS_5ArrayE
00000000001002c4 t __ZN5godot17PackedStringArrayC2ERKS0_
000000000010022c t __ZN5godot17PackedStringArrayC2Ev
00000000001004e8 t __ZN5godot17PackedStringArrayD1Ev
00000000001004b0 t __ZN5godot17PackedStringArrayD2Ev
0000000000101058 t __ZN5godot17PackedStringArrayaSEOS0_
0000000000101004 t __ZN5godot17PackedStringArrayaSERKS0_
00000000000db3b8 t __ZN5godot17PackedStringArrayixEx
000000000007994c t __ZN5godot17_err_flush_stdoutEv
000000000005c2f0 t __ZN5godot18GDExtensionBinding10InitObjectC1EPFPFvvEPKcEPvP25GDExtensionInitialization
000000000005c23c t __ZN5godot18GDExtensionBinding10InitObjectC2EPFPFvvEPKcEPvP25GDExtensionInitialization
000000000005c08c t __ZN5godot18GDExtensionBinding12InitDataList3addEPNS0_8InitDataE
0000000000058404 t __ZN5godot18GDExtensionBinding12InitDataListD1Ev
000000000005c178 t __ZN5godot18GDExtensionBinding12InitDataListD2Ev
00000000001d69e8 s __ZN5godot18GDExtensionBinding15api_initializedE
000000000005bda0 t __ZN5godot18GDExtensionBinding16initialize_levelEPv30GDExtensionInitializationLevel
00000000001d69ec s __ZN5godot18GDExtensionBinding17level_initializedE
000000000005bec8 t __ZN5godot18GDExtensionBinding18deinitialize_levelEPv30GDExtensionInitializationLevel
0000000000058430 t __ZN5godot18GDExtensionBinding4initEPFPFvvEPKcEPvPNS0_8InitDataEP25GDExtensionInitialization
000000000005c2c4 t __ZN5godot18GDExtensionBinding8InitDataC1Ev
000000000005c3d4 t __ZN5godot18GDExtensionBinding8InitDataC2Ev
00000000001d6a00 s __ZN5godot18GDExtensionBinding8initdataE
0000000000163270 t __ZN5godot18GeometryInstance3D11set_gi_modeENS0_6GIModeE
0000000000160e9c t __ZN5godot18GeometryInstance3D12set_lod_biasEf
000000000016390c t __ZN5godot18GeometryInstance3D15set_custom_aabbERKNS_4AABBE
00000000000298c0 t __ZN5godot18GeometryInstance3D16get_class_staticEv
00000000001611e0 t __ZN5godot18GeometryInstance3D16set_transparencyEf
0000000000162f34 t __ZN5godot18GeometryInstance3D18set_lightmap_scaleENS0_13LightmapScaleE
00000000001607e4 t __ZN5godot18GeometryInstance3D20set_material_overlayERKNS_3RefINS_8MaterialEEE
00000000001628ac t __ZN5godot18GeometryInstance3D21set_extra_cull_marginEf
0000000000160468 t __ZN5godot18GeometryInstance3D21set_material_overrideERKNS_3RefINS_8MaterialEEE
00000000001ccb80 s __ZN5godot18GeometryInstance3D22_gde_binding_callbacksE
0000000000160b60 t __ZN5godot18GeometryInstance3D24set_cast_shadows_settingENS0_20ShadowCastingSettingE
0000000000162bf0 t __ZN5godot18GeometryInstance3D24set_lightmap_texel_scaleEf
0000000000161868 t __ZN5godot18GeometryInstance3D24set_visibility_range_endEf
0000000000029994 t __ZN5godot18GeometryInstance3D26_gde_binding_free_callbackEPvS1_S1_
0000000000161ef0 t __ZN5godot18GeometryInstance3D26set_visibility_range_beginEf
0000000000029950 t __ZN5godot18GeometryInstance3D28_gde_binding_create_callbackEPvS1_
00000000001635ac t __ZN5godot18GeometryInstance3D28set_ignore_occlusion_cullingEb
0000000000163760 t __ZN5godot18GeometryInstance3D29is_ignoring_occlusion_cullingEv
0000000000162570 t __ZN5godot18GeometryInstance3D29set_instance_shader_parameterERKNS_10StringNameERKNS_7VariantE
0000000000162234 t __ZN5godot18GeometryInstance3D30set_visibility_range_fade_modeENS0_23VisibilityRangeFadeModeE
00000000000299d8 t __ZN5godot18GeometryInstance3D31_gde_binding_reference_callbackEPvS1_h
0000000000161524 t __ZN5godot18GeometryInstance3D31set_visibility_range_end_marginEf
0000000000161bac t __ZN5godot18GeometryInstance3D33set_visibility_range_begin_marginEf
00000000001d0460 d __ZN5godot18GeometryInstance3D37_gde_engine_class_registration_helperE
00000000000299f4 t __ZN5godot18GeometryInstance3DC1EPv
000000000001e884 t __ZN5godot18GeometryInstance3DC2EPKc
0000000000029a28 t __ZN5godot18GeometryInstance3DC2EPv
000000000001e994 t __ZN5godot18GeometryInstance3DD0Ev
000000000001e968 t __ZN5godot18GeometryInstance3DD1Ev
000000000001e9c4 t __ZN5godot18GeometryInstance3DD2Ev
00000000000fd220 t __ZN5godot18PackedFloat32Array12append_arrayERKS0_
00000000000fc270 t __ZN5godot18PackedFloat32Array13init_bindingsEv
00000000001d8510 s __ZN5godot18PackedFloat32Array16_method_bindingsE
00000000000fc1a4 t __ZN5godot18PackedFloat32Array38_init_bindings_constructors_destructorEv
00000000000fd028 t __ZN5godot18PackedFloat32Array3setExd
00000000000fd3ec t __ZN5godot18PackedFloat32Array4fillEd
00000000000db0bc t __ZN5godot18PackedFloat32Array4ptrwEv
00000000000fd724 t __ZN5godot18PackedFloat32Array4sortEv
00000000000fd4f0 t __ZN5godot18PackedFloat32Array5clearEv
00000000000fd1c4 t __ZN5godot18PackedFloat32Array6appendEd
00000000000fd308 t __ZN5godot18PackedFloat32Array6insertExd
00000000000fd49c t __ZN5godot18PackedFloat32Array6resizeEx
00000000000fd754 t __ZN5godot18PackedFloat32Array7bsearchEdb
00000000000fd57c t __ZN5godot18PackedFloat32Array7reverseEv
00000000000fd844 t __ZN5godot18PackedFloat32Array9duplicateEv
00000000000fd108 t __ZN5godot18PackedFloat32Array9push_backEd
00000000000fd2b4 t __ZN5godot18PackedFloat32Array9remove_atEx
00000000000fcf3c t __ZN5godot18PackedFloat32ArrayC1EOS0_
00000000000fccb8 t __ZN5godot18PackedFloat32ArrayC1EPKNS_7VariantE
00000000000fcea0 t __ZN5godot18PackedFloat32ArrayC1ERKNS_5ArrayE
00000000000fcdf8 t __ZN5godot18PackedFloat32ArrayC1ERKS0_
00000000000fcd58 t __ZN5godot18PackedFloat32ArrayC1Ev
00000000000fced4 t __ZN5godot18PackedFloat32ArrayC2EOS0_
00000000000fcc40 t __ZN5godot18PackedFloat32ArrayC2EPKNS_7VariantE
00000000000fce2c t __ZN5godot18PackedFloat32ArrayC2ERKNS_5ArrayE
00000000000fcd84 t __ZN5godot18PackedFloat32ArrayC2ERKS0_
00000000000fccec t __ZN5godot18PackedFloat32ArrayC2Ev
00000000000fcfa8 t __ZN5godot18PackedFloat32ArrayD1Ev
00000000000fcf70 t __ZN5godot18PackedFloat32ArrayD2Ev
00000000000fdcec t __ZN5godot18PackedFloat32ArrayaSEOS0_
00000000000fdc98 t __ZN5godot18PackedFloat32ArrayaSERKS0_
00000000000db050 t __ZN5godot18PackedFloat32ArrayixEx
00000000000fed90 t __ZN5godot18PackedFloat64Array12append_arrayERKS0_
00000000000fde40 t __ZN5godot18PackedFloat64Array13init_bindingsEv
00000000001d8638 s __ZN5godot18PackedFloat64Array16_method_bindingsE
00000000000fdd74 t __ZN5godot18PackedFloat64Array38_init_bindings_constructors_destructorEv
00000000000febf8 t __ZN5godot18PackedFloat64Array3setExd
00000000000feef0 t __ZN5godot18PackedFloat64Array4fillEd
00000000000db194 t __ZN5godot18PackedFloat64Array4ptrwEv
00000000000ff1cc t __ZN5godot18PackedFloat64Array4sortEv
00000000000fef98 t __ZN5godot18PackedFloat64Array5clearEv
00000000000fed34 t __ZN5godot18PackedFloat64Array6appendEd
00000000000fee78 t __ZN5godot18PackedFloat64Array6insertExd
00000000000fef44 t __ZN5godot18PackedFloat64Array6resizeEx
00000000000ff1fc t __ZN5godot18PackedFloat64Array7bsearchEdb
00000000000ff024 t __ZN5godot18PackedFloat64Array7reverseEv
00000000000ff280 t __ZN5godot18PackedFloat64Array9duplicateEv
00000000000fecd8 t __ZN5godot18PackedFloat64Array9push_backEd
00000000000fee24 t __ZN5godot18PackedFloat64Array9remove_atEx
00000000000feb0c t __ZN5godot18PackedFloat64ArrayC1EOS0_
00000000000fe888 t __ZN5godot18PackedFloat64ArrayC1EPKNS_7VariantE
00000000000fea70 t __ZN5godot18PackedFloat64ArrayC1ERKNS_5ArrayE
00000000000fe9c8 t __ZN5godot18PackedFloat64ArrayC1ERKS0_
00000000000fe928 t __ZN5godot18PackedFloat64ArrayC1Ev
00000000000feaa4 t __ZN5godot18PackedFloat64ArrayC2EOS0_
00000000000fe810 t __ZN5godot18PackedFloat64ArrayC2EPKNS_7VariantE
00000000000fe9fc t __ZN5godot18PackedFloat64ArrayC2ERKNS_5ArrayE
00000000000fe954 t __ZN5godot18PackedFloat64ArrayC2ERKS0_
00000000000fe8bc t __ZN5godot18PackedFloat64ArrayC2Ev
00000000000feb78 t __ZN5godot18PackedFloat64ArrayD1Ev
00000000000feb40 t __ZN5godot18PackedFloat64ArrayD2Ev
00000000000ff65c t __ZN5godot18PackedFloat64ArrayaSEOS0_
00000000000ff608 t __ZN5godot18PackedFloat64ArrayaSERKS0_
00000000000db128 t __ZN5godot18PackedFloat64ArrayixEx
0000000000102260 t __ZN5godot18PackedVector2Array12append_arrayERKS0_
00000000001011ac t __ZN5godot18PackedVector2Array13init_bindingsEv
00000000001d8888 s __ZN5godot18PackedVector2Array16_method_bindingsE
00000000001010e0 t __ZN5godot18PackedVector2Array38_init_bindings_constructors_destructorEv
0000000000102054 t __ZN5godot18PackedVector2Array3setExRKNS_7Vector2E
0000000000102410 t __ZN5godot18PackedVector2Array4fillERKNS_7Vector2E
00000000000db514 t __ZN5godot18PackedVector2Array4ptrwEv
0000000000102710 t __ZN5godot18PackedVector2Array4sortEv
00000000001024f8 t __ZN5godot18PackedVector2Array5clearEv
0000000000102220 t __ZN5godot18PackedVector2Array6appendERKNS_7Vector2E
0000000000102348 t __ZN5godot18PackedVector2Array6insertExRKNS_7Vector2E
00000000001024a4 t __ZN5godot18PackedVector2Array6resizeEx
0000000000102740 t __ZN5godot18PackedVector2Array7bsearchERKNS_7Vector2Eb
0000000000102568 t __ZN5godot18PackedVector2Array7reverseEv
0000000000102814 t __ZN5godot18PackedVector2Array9duplicateEv
0000000000102180 t __ZN5godot18PackedVector2Array9push_backERKNS_7Vector2E
00000000001022f4 t __ZN5godot18PackedVector2Array9remove_atEx
0000000000101e98 t __ZN5godot18PackedVector2ArrayC1EOS0_
0000000000101c14 t __ZN5godot18PackedVector2ArrayC1EPKNS_7VariantE
0000000000101dfc t __ZN5godot18PackedVector2ArrayC1ERKNS_5ArrayE
0000000000101d54 t __ZN5godot18PackedVector2ArrayC1ERKS0_
0000000000101cb4 t __ZN5godot18PackedVector2ArrayC1Ev
0000000000101e30 t __ZN5godot18PackedVector2ArrayC2EOS0_
0000000000101b9c t __ZN5godot18PackedVector2ArrayC2EPKNS_7VariantE
0000000000101d88 t __ZN5godot18PackedVector2ArrayC2ERKNS_5ArrayE
0000000000101ce0 t __ZN5godot18PackedVector2ArrayC2ERKS0_
0000000000101c48 t __ZN5godot18PackedVector2ArrayC2Ev
0000000000101f04 t __ZN5godot18PackedVector2ArrayD1Ev
0000000000101ecc t __ZN5godot18PackedVector2ArrayD2Ev
0000000000102d60 t __ZN5godot18PackedVector2ArrayaSEOS0_
0000000000102d0c t __ZN5godot18PackedVector2ArrayaSERKS0_
00000000000db4a0 t __ZN5godot18PackedVector2ArrayixEx
0000000000103f74 t __ZN5godot18PackedVector3Array12append_arrayERKS0_
0000000000102eb4 t __ZN5godot18PackedVector3Array13init_bindingsEv
00000000001d89b8 s __ZN5godot18PackedVector3Array16_method_bindingsE
0000000000102de8 t __ZN5godot18PackedVector3Array38_init_bindings_constructors_destructorEv
0000000000103d68 t __ZN5godot18PackedVector3Array3setExRKNS_7Vector3E
0000000000104124 t __ZN5godot18PackedVector3Array4fillERKNS_7Vector3E
00000000000db5fc t __ZN5godot18PackedVector3Array4ptrwEv
0000000000104424 t __ZN5godot18PackedVector3Array4sortEv
000000000010420c t __ZN5godot18PackedVector3Array5clearEv
0000000000103f34 t __ZN5godot18PackedVector3Array6appendERKNS_7Vector3E
000000000010405c t __ZN5godot18PackedVector3Array6insertExRKNS_7Vector3E
00000000001041b8 t __ZN5godot18PackedVector3Array6resizeEx
0000000000104454 t __ZN5godot18PackedVector3Array7bsearchERKNS_7Vector3Eb
000000000010427c t __ZN5godot18PackedVector3Array7reverseEv
0000000000104528 t __ZN5godot18PackedVector3Array9duplicateEv
0000000000103e94 t __ZN5godot18PackedVector3Array9push_backERKNS_7Vector3E
0000000000104008 t __ZN5godot18PackedVector3Array9remove_atEx
0000000000103ba0 t __ZN5godot18PackedVector3ArrayC1EOS0_
000000000010391c t __ZN5godot18PackedVector3ArrayC1EPKNS_7VariantE
0000000000103b04 t __ZN5godot18PackedVector3ArrayC1ERKNS_5ArrayE
0000000000103a5c t __ZN5godot18PackedVector3ArrayC1ERKS0_
00000000001039bc t __ZN5godot18PackedVector3ArrayC1Ev
0000000000103b38 t __ZN5godot18PackedVector3ArrayC2EOS0_
00000000001038a4 t __ZN5godot18PackedVector3ArrayC2EPKNS_7VariantE
0000000000103a90 t __ZN5godot18PackedVector3ArrayC2ERKNS_5ArrayE
00000000001039e8 t __ZN5godot18PackedVector3ArrayC2ERKS0_
0000000000103950 t __ZN5godot18PackedVector3ArrayC2Ev
0000000000103c0c t __ZN5godot18PackedVector3ArrayD1Ev
0000000000103bd4 t __ZN5godot18PackedVector3ArrayD2Ev
0000000000104a74 t __ZN5godot18PackedVector3ArrayaSEOS0_
0000000000104a20 t __ZN5godot18PackedVector3ArrayaSERKS0_
00000000000db588 t __ZN5godot18PackedVector3ArrayixEx
00000000001078b4 t __ZN5godot18PackedVector4Array12append_arrayERKS0_
000000000010685c t __ZN5godot18PackedVector4Array13init_bindingsEv
00000000001d8c10 s __ZN5godot18PackedVector4Array16_method_bindingsE
0000000000106790 t __ZN5godot18PackedVector4Array38_init_bindings_constructors_destructorEv
00000000001076a8 t __ZN5godot18PackedVector4Array3setExRKNS_7Vector4E
0000000000107a64 t __ZN5godot18PackedVector4Array4fillERKNS_7Vector4E
00000000000db6e4 t __ZN5godot18PackedVector4Array4ptrwEv
0000000000107d64 t __ZN5godot18PackedVector4Array4sortEv
0000000000107b4c t __ZN5godot18PackedVector4Array5clearEv
0000000000107874 t __ZN5godot18PackedVector4Array6appendERKNS_7Vector4E
000000000010799c t __ZN5godot18PackedVector4Array6insertExRKNS_7Vector4E
0000000000107af8 t __ZN5godot18PackedVector4Array6resizeEx
0000000000107d94 t __ZN5godot18PackedVector4Array7bsearchERKNS_7Vector4Eb
0000000000107bbc t __ZN5godot18PackedVector4Array7reverseEv
0000000000107e68 t __ZN5godot18PackedVector4Array9duplicateEv
00000000001077d4 t __ZN5godot18PackedVector4Array9push_backERKNS_7Vector4E
0000000000107948 t __ZN5godot18PackedVector4Array9remove_atEx
0000000000107528 t __ZN5godot18PackedVector4ArrayC1EOS0_
00000000001072a4 t __ZN5godot18PackedVector4ArrayC1EPKNS_7VariantE
000000000010748c t __ZN5godot18PackedVector4ArrayC1ERKNS_5ArrayE
00000000001073e4 t __ZN5godot18PackedVector4ArrayC1ERKS0_
0000000000107344 t __ZN5godot18PackedVector4ArrayC1Ev
00000000001074c0 t __ZN5godot18PackedVector4ArrayC2EOS0_
000000000010722c t __ZN5godot18PackedVector4ArrayC2EPKNS_7VariantE
0000000000107418 t __ZN5godot18PackedVector4ArrayC2ERKNS_5ArrayE
0000000000107370 t __ZN5godot18PackedVector4ArrayC2ERKS0_
00000000001072d8 t __ZN5godot18PackedVector4ArrayC2Ev
0000000000107594 t __ZN5godot18PackedVector4ArrayD1Ev
000000000010755c t __ZN5godot18PackedVector4ArrayD2Ev
0000000000108374 t __ZN5godot18PackedVector4ArrayaSEOS0_
0000000000108320 t __ZN5godot18PackedVector4ArrayaSERKS0_
00000000000db670 t __ZN5godot18PackedVector4ArrayixEx
000000000001a2c0 t __ZN5godot18call_with_ptr_argsI13MinecraftNodeJEEEvPT_MS2_FvDpT0_EPKPKvPv
000000000001a12c t __ZN5godot18call_with_ptr_argsI13MinecraftNodeJdEEEvPT_MS2_FvDpT0_EPKPKvPv
0000000000018df8 t __ZN5godot18call_with_ptr_argsINS_20_gde_UnexistingClassEJEEEvPT_MS2_FvDpT0_EPKPKvPv
00000000000176c8 t __ZN5godot18call_with_ptr_argsINS_20_gde_UnexistingClassEJRKNS_3RefINS_8MaterialEEEEEEvPT_MS7_FvDpT0_EPKPKvPv
0000000000019e50 t __ZN5godot18call_with_ptr_argsINS_20_gde_UnexistingClassEJdEEEvPT_MS2_FvDpT0_EPKPKvPv
0000000000015bec t __ZN5godot18call_with_ptr_argsINS_20_gde_UnexistingClassEJfEEEvPT_MS2_FvDpT0_EPKPKvPv
0000000000013ed4 t __ZN5godot18call_with_ptr_argsINS_20_gde_UnexistingClassEJiEEEvPT_MS2_FvDpT0_EPKPKvPv
00000000000183e0 t __ZN5godot18call_with_ptr_argsINS_20_gde_UnexistingClassENS_3RefINS_8MaterialEEEJEEEvPT_MS5_KFT0_DpT1_EPKPKvPv
00000000000165c4 t __ZN5godot18call_with_ptr_argsINS_20_gde_UnexistingClassEfJEEEvPT_MS2_KFT0_DpT1_EPKPKvPv
0000000000014e0c t __ZN5godot18call_with_ptr_argsINS_20_gde_UnexistingClassEiJEEEvPT_MS2_KFT0_DpT1_EPKPKvPv
0000000000018638 t __ZN5godot18create_method_bindI13MinecraftNodeJEEEPNS_10MethodBindEMT_FvDpT0_E
000000000001670c t __ZN5godot18create_method_bindI13MinecraftNodeJRKNS_3RefINS_8MaterialEEEEEEPNS_10MethodBindEMT_FvDpT0_E
00000000000191b4 t __ZN5godot18create_method_bindI13MinecraftNodeJdEEEPNS_10MethodBindEMT_FvDpT0_E
0000000000014f50 t __ZN5godot18create_method_bindI13MinecraftNodeJfEEEPNS_10MethodBindEMT_FvDpT0_E
0000000000012c14 t __ZN5godot18create_method_bindI13MinecraftNodeJiEEEPNS_10MethodBindEMT_FvDpT0_E
0000000000017a58 t __ZN5godot18create_method_bindI13MinecraftNodeNS_3RefINS_8MaterialEEEJEEEPNS_10MethodBindEMT_KFT0_DpT1_E
0000000000015d28 t __ZN5godot18create_method_bindI13MinecraftNodefJEEEPNS_10MethodBindEMT_KFT0_DpT1_E
00000000000144e4 t __ZN5godot18create_method_bindI13MinecraftNodeiJEEEPNS_10MethodBindEMT_KFT0_DpT1_E
0000000000001008 t __ZN5godot19memdelete_allocatorINS_4ListINS_12PropertyInfoENS_16DefaultAllocatorEE5_DataES3_EEvPT_
00000000000012a4 t __ZN5godot19memdelete_allocatorINS_4ListINS_12PropertyInfoENS_16DefaultAllocatorEE7ElementES3_EEvPT_
00000000000605e8 t __ZN5godot19memnew_arr_templateI22GDExtensionVariantTypeEEPT_mPKc
000000000016e88c t __ZN5godot20ConvexPolygonShape3D16get_class_staticEv
00000000001cdd68 s __ZN5godot20ConvexPolygonShape3D22_gde_binding_callbacksE
000000000016e960 t __ZN5godot20ConvexPolygonShape3D26_gde_binding_free_callbackEPvS1_S1_
000000000016e91c t __ZN5godot20ConvexPolygonShape3D28_gde_binding_create_callbackEPvS1_
000000000016e9a4 t __ZN5godot20ConvexPolygonShape3D31_gde_binding_reference_callbackEPvS1_h
00000000001d0b40 d __ZN5godot20ConvexPolygonShape3D37_gde_engine_class_registration_helperE
000000000016e9c0 t __ZN5godot20ConvexPolygonShape3DC1EPv
000000000016e9f4 t __ZN5godot20ConvexPolygonShape3DC2EPv
000000000016ea64 t __ZN5godot20ConvexPolygonShape3DD0Ev
000000000016ea38 t __ZN5godot20ConvexPolygonShape3DD1Ev
000000000016ea94 t __ZN5godot20ConvexPolygonShape3DD2Ev
0000000000197744 t __ZN5godot20ResourceFormatLoader16get_class_staticEv
00000000001ce478 s __ZN5godot20ResourceFormatLoader22_gde_binding_callbacksE
0000000000197818 t __ZN5godot20ResourceFormatLoader26_gde_binding_free_callbackEPvS1_S1_
00000000001977d4 t __ZN5godot20ResourceFormatLoader28_gde_binding_create_callbackEPvS1_
000000000019785c t __ZN5godot20ResourceFormatLoader31_gde_binding_reference_callbackEPvS1_h
00000000001d0e50 d __ZN5godot20ResourceFormatLoader37_gde_engine_class_registration_helperE
0000000000197878 t __ZN5godot20ResourceFormatLoaderC1EPv
00000000001978ac t __ZN5godot20ResourceFormatLoaderC2EPv
0000000000197694 t __ZN5godot20ResourceFormatLoaderD0Ev
0000000000197668 t __ZN5godot20ResourceFormatLoaderD1Ev
00000000001976c4 t __ZN5godot20ResourceFormatLoaderD2Ev
000000000016e604 t __ZN5godot21ConcavePolygonShape3D16get_class_staticEv
00000000001cdcf0 s __ZN5godot21ConcavePolygonShape3D22_gde_binding_callbacksE
000000000016e6d8 t __ZN5godot21ConcavePolygonShape3D26_gde_binding_free_callbackEPvS1_S1_
000000000016e694 t __ZN5godot21ConcavePolygonShape3D28_gde_binding_create_callbackEPvS1_
000000000016e71c t __ZN5godot21ConcavePolygonShape3D31_gde_binding_reference_callbackEPvS1_h
00000000001d0b30 d __ZN5godot21ConcavePolygonShape3D37_gde_engine_class_registration_helperE
000000000016e738 t __ZN5godot21ConcavePolygonShape3DC1EPv
000000000016e76c t __ZN5godot21ConcavePolygonShape3DC2EPv
000000000016e7dc t __ZN5godot21ConcavePolygonShape3DD0Ev
000000000016e7b0 t __ZN5godot21ConcavePolygonShape3DD1Ev
000000000016e80c t __ZN5godot21ConcavePolygonShape3DD2Ev
0000000000079868 t __ZN5godot22_err_print_index_errorEPKcS1_ixxS1_S1_RKNS_6StringEbb
0000000000079614 t __ZN5godot22_err_print_index_errorEPKcS1_ixxS1_S1_S1_bb
00000000000149a8 t __ZN5godot22call_get_argument_typeIJEEE22GDExtensionVariantTypei
0000000000016b90 t __ZN5godot22call_get_argument_typeIJRKNS_3RefINS_8MaterialEEEEEE22GDExtensionVariantTypei
0000000000019638 t __ZN5godot22call_get_argument_typeIJdEEE22GDExtensionVariantTypei
00000000000153d4 t __ZN5godot22call_get_argument_typeIJfEEE22GDExtensionVariantTypei
00000000000133e8 t __ZN5godot22call_get_argument_typeIJiEEE22GDExtensionVariantTypei
000000000005c7d4 t __ZN5godot22postinitialize_handlerEPNS_7WrappedE
000000000001a320 t __ZN5godot25call_with_ptr_args_helperI13MinecraftNodeJEJEEEvPT_MS2_FvDpT0_EPKPKvNS_13IndexSequenceIJXspT1_EEEE
000000000001a18c t __ZN5godot25call_with_ptr_args_helperI13MinecraftNodeJdEJLm0EEEEvPT_MS2_FvDpT0_EPKPKvNS_13IndexSequenceIJXspT1_EEEE
0000000000018e58 t __ZN5godot25call_with_ptr_args_helperINS_20_gde_UnexistingClassEJEJEEEvPT_MS2_FvDpT0_EPKPKvNS_13IndexSequenceIJXspT1_EEEE
0000000000017728 t __ZN5godot25call_with_ptr_args_helperINS_20_gde_UnexistingClassEJRKNS_3RefINS_8MaterialEEEEJLm0EEEEvPT_MS7_FvDpT0_EPKPKvNS_13IndexSequenceIJXspT1_EEEE
0000000000019eb0 t __ZN5godot25call_with_ptr_args_helperINS_20_gde_UnexistingClassEJdEJLm0EEEEvPT_MS2_FvDpT0_EPKPKvNS_13IndexSequenceIJXspT1_EEEE
0000000000015c4c t __ZN5godot25call_with_ptr_args_helperINS_20_gde_UnexistingClassEJfEJLm0EEEEvPT_MS2_FvDpT0_EPKPKvNS_13IndexSequenceIJXspT1_EEEE
0000000000013f34 t __ZN5godot25call_with_ptr_args_helperINS_20_gde_UnexistingClassEJiEJLm0EEEEvPT_MS2_FvDpT0_EPKPKvNS_13IndexSequenceIJXspT1_EEEE
0000000000018ab4 t __ZN5godot25call_with_variant_args_dvINS_20_gde_UnexistingClassEJEEEvPT_MS2_FvDpT0_EPKPKviR20GDExtensionCallErrorRKNSt3__16vectorINS_7VariantENSE_9allocatorISG_EEEE
0000000000016f00 t __ZN5godot25call_with_variant_args_dvINS_20_gde_UnexistingClassEJRKNS_3RefINS_8MaterialEEEEEEvPT_MS7_FvDpT0_EPKPKviR20GDExtensionCallErrorRKNSt3__16vectorINS_7VariantENSJ_9allocatorISL_EEEE
00000000000199a8 t __ZN5godot25call_with_variant_args_dvINS_20_gde_UnexistingClassEJdEEEvPT_MS2_FvDpT0_EPKPKviR20GDExtensionCallErrorRKNSt3__16vectorINS_7VariantENSE_9allocatorISG_EEEE
0000000000015744 t __ZN5godot25call_with_variant_args_dvINS_20_gde_UnexistingClassEJfEEEvPT_MS2_FvDpT0_EPKPKviR20GDExtensionCallErrorRKNSt3__16vectorINS_7VariantENSE_9allocatorISG_EEEE
00000000000139a0 t __ZN5godot25call_with_variant_args_dvINS_20_gde_UnexistingClassEJiEEEvPT_MS2_FvDpT0_EPKPKviR20GDExtensionCallErrorRKNSt3__16vectorINS_7VariantENSE_9allocatorISG_EEEE
00000000000149e4 t __ZN5godot26call_get_argument_metadataIJEEE38GDExtensionClassMethodArgumentMetadatai
0000000000016e3c t __ZN5godot26call_get_argument_metadataIJRKNS_3RefINS_8MaterialEEEEEE38GDExtensionClassMethodArgumentMetadatai
00000000000198e0 t __ZN5godot26call_get_argument_metadataIJdEEE38GDExtensionClassMethodArgumentMetadatai
000000000001567c t __ZN5godot26call_get_argument_metadataIJfEEE38GDExtensionClassMethodArgumentMetadatai
00000000000138d8 t __ZN5godot26call_get_argument_metadataIJiEEE38GDExtensionClassMethodArgumentMetadatai
00000000000149c8 t __ZN5godot27call_get_argument_type_infoIJEEEviRNS_12PropertyInfoE
0000000000016c58 t __ZN5godot27call_get_argument_type_infoIJRKNS_3RefINS_8MaterialEEEEEEviRNS_12PropertyInfoE
0000000000019700 t __ZN5godot27call_get_argument_type_infoIJdEEEviRNS_12PropertyInfoE
000000000001549c t __ZN5godot27call_get_argument_type_infoIJfEEEviRNS_12PropertyInfoE
00000000000134dc t __ZN5godot27call_get_argument_type_infoIJiEEEviRNS_12PropertyInfoE
0000000000016c08 t __ZN5godot29call_get_argument_type_helperIRKNS_3RefINS_8MaterialEEEEEviRiR22GDExtensionVariantType
00000000000196b0 t __ZN5godot29call_get_argument_type_helperIdEEviRiR22GDExtensionVariantType
000000000001544c t __ZN5godot29call_get_argument_type_helperIfEEviRiR22GDExtensionVariantType
0000000000013460 t __ZN5godot29call_get_argument_type_helperIiEEviRiR22GDExtensionVariantType
0000000000018d54 t __ZN5godot29call_with_variant_args_helperINS_20_gde_UnexistingClassEJEJEEEvPT_MS2_FvDpT0_EPPKNS_7VariantER20GDExtensionCallErrorNS_13IndexSequenceIJXspT1_EEEE
00000000000171ac t __ZN5godot29call_with_variant_args_helperINS_20_gde_UnexistingClassEJRKNS_3RefINS_8MaterialEEEEJLm0EEEEvPT_MS7_FvDpT0_EPPKNS_7VariantER20GDExtensionCallErrorNS_13IndexSequenceIJXspT1_EEEE
0000000000019c54 t __ZN5godot29call_with_variant_args_helperINS_20_gde_UnexistingClassEJdEJLm0EEEEvPT_MS2_FvDpT0_EPPKNS_7VariantER20GDExtensionCallErrorNS_13IndexSequenceIJXspT1_EEEE
00000000000159f0 t __ZN5godot29call_with_variant_args_helperINS_20_gde_UnexistingClassEJfEJLm0EEEEvPT_MS2_FvDpT0_EPPKNS_7VariantER20GDExtensionCallErrorNS_13IndexSequenceIJXspT1_EEEE
0000000000013cc0 t __ZN5godot29call_with_variant_args_helperINS_20_gde_UnexistingClassEJiEJLm0EEEEvPT_MS2_FvDpT0_EPPKNS_7VariantER20GDExtensionCallErrorNS_13IndexSequenceIJXspT1_EEEE
0000000000018444 t __ZN5godot30call_with_ptr_args_retc_helperINS_20_gde_UnexistingClassENS_3RefINS_8MaterialEEEJEJEEEvPT_MS5_KFT0_DpT1_EPKPKvPvNS_13IndexSequenceIJXspT2_EEEE
0000000000016628 t __ZN5godot30call_with_ptr_args_retc_helperINS_20_gde_UnexistingClassEfJEJEEEvPT_MS2_KFT0_DpT1_EPKPKvPvNS_13IndexSequenceIJXspT2_EEEE
0000000000014e70 t __ZN5godot30call_with_ptr_args_retc_helperINS_20_gde_UnexistingClassEiJEJEEEvPT_MS2_KFT0_DpT1_EPKPKvPvNS_13IndexSequenceIJXspT2_EEEE
0000000000017ff0 t __ZN5godot30call_with_variant_args_retc_dvINS_20_gde_UnexistingClassENS_3RefINS_8MaterialEEEJEEEvPT_MS5_KFT0_DpT1_EPKPKviRNS_7VariantER20GDExtensionCallErrorRKNSt3__16vectorISG_NSK_9allocatorISG_EEEE
00000000000161ec t __ZN5godot30call_with_variant_args_retc_dvINS_20_gde_UnexistingClassEfJEEEvPT_MS2_KFT0_DpT1_EPKPKviRNS_7VariantER20GDExtensionCallErrorRKNSt3__16vectorISD_NSH_9allocatorISD_EEEE
0000000000014a04 t __ZN5godot30call_with_variant_args_retc_dvINS_20_gde_UnexistingClassEiJEEEvPT_MS2_KFT0_DpT1_EPKPKviRNS_7VariantER20GDExtensionCallErrorRKNSt3__16vectorISD_NSH_9allocatorISD_EEEE
0000000000029ac0 t __ZN5godot31MeshConvexDecompositionSettings16get_class_staticEv
00000000001ccb98 s __ZN5godot31MeshConvexDecompositionSettings22_gde_binding_callbacksE
0000000000029b94 t __ZN5godot31MeshConvexDecompositionSettings26_gde_binding_free_callbackEPvS1_S1_
0000000000029b50 t __ZN5godot31MeshConvexDecompositionSettings28_gde_binding_create_callbackEPvS1_
0000000000029bd8 t __ZN5godot31MeshConvexDecompositionSettings31_gde_binding_reference_callbackEPvS1_h
00000000001d0470 d __ZN5godot31MeshConvexDecompositionSettings37_gde_engine_class_registration_helperE
0000000000029bf4 t __ZN5godot31MeshConvexDecompositionSettingsC1EPv
0000000000029c28 t __ZN5godot31MeshConvexDecompositionSettingsC2EPv
0000000000029c98 t __ZN5godot31MeshConvexDecompositionSettingsD0Ev
0000000000029c6c t __ZN5godot31MeshConvexDecompositionSettingsD1Ev
0000000000029cc8 t __ZN5godot31MeshConvexDecompositionSettingsD2Ev
0000000000016eb4 t __ZN5godot33call_get_argument_metadata_helperIRKNS_3RefINS_8MaterialEEEEEviRiR38GDExtensionClassMethodArgumentMetadata
0000000000019958 t __ZN5godot33call_get_argument_metadata_helperIdEEviRiR38GDExtensionClassMethodArgumentMetadata
00000000000156f4 t __ZN5godot33call_get_argument_metadata_helperIfEEviRiR38GDExtensionClassMethodArgumentMetadata
0000000000013950 t __ZN5godot33call_get_argument_metadata_helperIiEEviRiR38GDExtensionClassMethodArgumentMetadata
0000000000016cc4 t __ZN5godot34call_get_argument_type_info_helperIRKNS_3RefINS_8MaterialEEEEEviRiRNS_12PropertyInfoE
000000000001976c t __ZN5godot34call_get_argument_type_info_helperIdEEviRiRNS_12PropertyInfoE
0000000000015508 t __ZN5godot34call_get_argument_type_info_helperIfEEviRiRNS_12PropertyInfoE
0000000000013628 t __ZN5godot34call_get_argument_type_info_helperIiEEviRiRNS_12PropertyInfoE
0000000000018298 t __ZN5godot34call_with_variant_args_retc_helperINS_20_gde_UnexistingClassENS_3RefINS_8MaterialEEEJEJEEEvPT_MS5_KFT0_DpT1_EPPKNS_7VariantERSC_R20GDExtensionCallErrorNS_13IndexSequenceIJXspT2_EEEE
0000000000016494 t __ZN5godot34call_with_variant_args_retc_helperINS_20_gde_UnexistingClassEfJEJEEEvPT_MS2_KFT0_DpT1_EPPKNS_7VariantERS9_R20GDExtensionCallErrorNS_13IndexSequenceIJXspT2_EEEE
0000000000014cc4 t __ZN5godot34call_with_variant_args_retc_helperINS_20_gde_UnexistingClassEiJEJEEEvPT_MS2_KFT0_DpT1_EPPKNS_7VariantERS9_R20GDExtensionCallErrorNS_13IndexSequenceIJXspT2_EEEE
00000000000ebe14 t __ZN5godot3RID13init_bindingsEv
00000000001d7a28 s __ZN5godot3RID16_method_bindingsE
00000000000ebd88 t __ZN5godot3RID38_init_bindings_constructors_destructorEv
00000000000ec374 t __ZN5godot3RIDC1EOS0_
00000000000ec144 t __ZN5godot3RIDC1EPKNS_7VariantE
00000000000ec2d8 t __ZN5godot3RIDC1ERKS0_
00000000000ec1e4 t __ZN5godot3RIDC1Ev
00000000000ec30c t __ZN5godot3RIDC2EOS0_
00000000000ec0cc t __ZN5godot3RIDC2EPKNS_7VariantE
00000000000ec210 t __ZN5godot3RIDC2ERKS0_
00000000000ec178 t __ZN5godot3RIDC2Ev
00000000000ec68c t __ZN5godot3RIDaSEOS0_
00000000000ec64c t __ZN5godot3RIDaSERKS0_
00000000001592f8 t __ZN5godot3RefINS_10FileAccessEE25_gde_internal_constructorEPNS_6ObjectE
000000000005773c t __ZN5godot3RefINS_10FileAccessEE5unrefEv
00000000001592cc t __ZN5godot3RefINS_10FileAccessEEC1Ev
0000000000160300 t __ZN5godot3RefINS_10FileAccessEEC2Ev
000000000001e678 t __ZN5godot3RefINS_10FileAccessEED1Ev
0000000000057710 t __ZN5godot3RefINS_10FileAccessEED2Ev
000000000011e8b4 t __ZN5godot3RefINS_10InputEventEE25_gde_internal_constructorEPNS_6ObjectE
0000000000120c70 t __ZN5godot3RefINS_10InputEventEE5unrefEv
000000000011e888 t __ZN5godot3RefINS_10InputEventEEC1Ev
0000000000120c00 t __ZN5godot3RefINS_10InputEventEEC2Ev
0000000000120c18 t __ZN5godot3RefINS_10InputEventEED1Ev
0000000000120c44 t __ZN5godot3RefINS_10InputEventEED2Ev
0000000000192a4c t __ZN5godot3RefINS_10SceneStateEE25_gde_internal_constructorEPNS_6ObjectE
0000000000192e64 t __ZN5godot3RefINS_10SceneStateEE5unrefEv
0000000000192a20 t __ZN5godot3RefINS_10SceneStateEEC1Ev
0000000000192df4 t __ZN5godot3RefINS_10SceneStateEEC2Ev
0000000000192e0c t __ZN5godot3RefINS_10SceneStateEED1Ev
0000000000192e38 t __ZN5godot3RefINS_10SceneStateEED2Ev
000000000010e744 t __ZN5godot3RefINS_11ButtonGroupEE25_gde_internal_constructorEPNS_6ObjectE
000000000010ef64 t __ZN5godot3RefINS_11ButtonGroupEE5unrefEv
000000000010e718 t __ZN5godot3RefINS_11ButtonGroupEEC1Ev
000000000010eef4 t __ZN5godot3RefINS_11ButtonGroupEEC2Ev
000000000010ef0c t __ZN5godot3RefINS_11ButtonGroupEED1Ev
000000000010ef38 t __ZN5godot3RefINS_11ButtonGroupEED2Ev
00000000000321d8 t __ZN5godot3RefINS_11PackedSceneEE3refERKS2_
0000000000032004 t __ZN5godot3RefINS_11PackedSceneEE5unrefEv
0000000000032060 t __ZN5godot3RefINS_11PackedSceneEEC1Ev
000000000001d144 t __ZN5godot3RefINS_11PackedSceneEEC1INS_8ResourceEEERKNS0_IT_EE
0000000000032284 t __ZN5godot3RefINS_11PackedSceneEEC2Ev
0000000000031f68 t __ZN5godot3RefINS_11PackedSceneEEC2INS_8ResourceEEERKNS0_IT_EE
000000000001d208 t __ZN5godot3RefINS_11PackedSceneEED1Ev
000000000003229c t __ZN5godot3RefINS_11PackedSceneEED2Ev
000000000016de8c t __ZN5godot3RefINS_12TriangleMeshEE25_gde_internal_constructorEPNS_6ObjectE
000000000016efb8 t __ZN5godot3RefINS_12TriangleMeshEE5unrefEv
000000000016de60 t __ZN5godot3RefINS_12TriangleMeshEEC1Ev
000000000016ef48 t __ZN5godot3RefINS_12TriangleMeshEEC2Ev
000000000016ef60 t __ZN5godot3RefINS_12TriangleMeshEED1Ev
000000000016ef8c t __ZN5godot3RefINS_12TriangleMeshEED2Ev
000000000001c77c t __ZN5godot3RefINS_13FastNoiseLiteEE11instantiateEv
000000000002f5d0 t __ZN5godot3RefINS_13FastNoiseLiteEE11ref_pointerEPS1_
000000000002f358 t __ZN5godot3RefINS_13FastNoiseLiteEE3refERKS2_
000000000002f2c8 t __ZN5godot3RefINS_13FastNoiseLiteEE5unrefEv
000000000002f404 t __ZN5godot3RefINS_13FastNoiseLiteEEC1EPS1_
000000000001c750 t __ZN5godot3RefINS_13FastNoiseLiteEEC1Ev
000000000002f57c t __ZN5godot3RefINS_13FastNoiseLiteEEC2EPS1_
000000000002f284 t __ZN5godot3RefINS_13FastNoiseLiteEEC2Ev
000000000001cb28 t __ZN5godot3RefINS_13FastNoiseLiteEED1Ev
000000000002f29c t __ZN5godot3RefINS_13FastNoiseLiteEED2Ev
00000000001701fc t __ZN5godot3RefINS_13SkinReferenceEE25_gde_internal_constructorEPNS_6ObjectE
0000000000172384 t __ZN5godot3RefINS_13SkinReferenceEE5unrefEv
00000000001701d0 t __ZN5godot3RefINS_13SkinReferenceEEC1Ev
0000000000172314 t __ZN5godot3RefINS_13SkinReferenceEEC2Ev
000000000017232c t __ZN5godot3RefINS_13SkinReferenceEED1Ev
0000000000172358 t __ZN5godot3RefINS_13SkinReferenceEED2Ev
000000000017e454 t __ZN5godot3RefINS_14MultiplayerAPIEE25_gde_internal_constructorEPNS_6ObjectE
0000000000181470 t __ZN5godot3RefINS_14MultiplayerAPIEE5unrefEv
000000000017e428 t __ZN5godot3RefINS_14MultiplayerAPIEEC1Ev
0000000000181400 t __ZN5godot3RefINS_14MultiplayerAPIEEC2Ev
0000000000181418 t __ZN5godot3RefINS_14MultiplayerAPIEED1Ev
0000000000181444 t __ZN5godot3RefINS_14MultiplayerAPIEED2Ev
000000000016d8b0 t __ZN5godot3RefINS_20ConvexPolygonShape3DEE25_gde_internal_constructorEPNS_6ObjectE
000000000016eeb8 t __ZN5godot3RefINS_20ConvexPolygonShape3DEE5unrefEv
000000000016d884 t __ZN5godot3RefINS_20ConvexPolygonShape3DEEC1Ev
000000000016ee48 t __ZN5godot3RefINS_20ConvexPolygonShape3DEEC2Ev
000000000016ee60 t __ZN5godot3RefINS_20ConvexPolygonShape3DEED1Ev
000000000016ee8c t __ZN5godot3RefINS_20ConvexPolygonShape3DEED2Ev
000000000016d564 t __ZN5godot3RefINS_21ConcavePolygonShape3DEE25_gde_internal_constructorEPNS_6ObjectE
000000000016edb8 t __ZN5godot3RefINS_21ConcavePolygonShape3DEE5unrefEv
000000000016d538 t __ZN5godot3RefINS_21ConcavePolygonShape3DEEC1Ev
000000000016ed48 t __ZN5godot3RefINS_21ConcavePolygonShape3DEEC2Ev
000000000016ed60 t __ZN5godot3RefINS_21ConcavePolygonShape3DEED1Ev
000000000016ed8c t __ZN5godot3RefINS_21ConcavePolygonShape3DEED2Ev
00000000001300a0 t __ZN5godot3RefINS_4FontEE25_gde_internal_constructorEPNS_6ObjectE
000000000013725c t __ZN5godot3RefINS_4FontEE5unrefEv
0000000000130074 t __ZN5godot3RefINS_4FontEEC1Ev
00000000001371ec t __ZN5godot3RefINS_4FontEEC2Ev
0000000000137204 t __ZN5godot3RefINS_4FontEED1Ev
0000000000137230 t __ZN5godot3RefINS_4FontEED2Ev
000000000016dba8 t __ZN5godot3RefINS_4MeshEE25_gde_internal_constructorEPNS_6ObjectE
000000000002fc14 t __ZN5godot3RefINS_4MeshEE3refERKS2_
000000000002fa40 t __ZN5godot3RefINS_4MeshEE5unrefEv
000000000002fa9c t __ZN5godot3RefINS_4MeshEEC1Ev
000000000001cea8 t __ZN5godot3RefINS_4MeshEEC1INS_7BoxMeshEEERKNS0_IT_EE
000000000001ca9c t __ZN5godot3RefINS_4MeshEEC1INS_9ArrayMeshEEERKNS0_IT_EE
000000000002fcc0 t __ZN5godot3RefINS_4MeshEEC2Ev
0000000000031e10 t __ZN5godot3RefINS_4MeshEEC2INS_7BoxMeshEEERKNS0_IT_EE
000000000002f9a4 t __ZN5godot3RefINS_4MeshEEC2INS_9ArrayMeshEEERKNS0_IT_EE
000000000001cad0 t __ZN5godot3RefINS_4MeshEED1Ev
000000000002fcd8 t __ZN5godot3RefINS_4MeshEED2Ev
000000000016ff1c t __ZN5godot3RefINS_4SkinEE25_gde_internal_constructorEPNS_6ObjectE
0000000000172284 t __ZN5godot3RefINS_4SkinEE5unrefEv
000000000016fef0 t __ZN5godot3RefINS_4SkinEEC1Ev
0000000000172214 t __ZN5godot3RefINS_4SkinEEC2Ev
000000000017222c t __ZN5godot3RefINS_4SkinEED1Ev
0000000000172258 t __ZN5godot3RefINS_4SkinEED2Ev
0000000000141668 t __ZN5godot3RefINS_5ImageEE25_gde_internal_constructorEPNS_6ObjectE
000000000014f9f4 t __ZN5godot3RefINS_5ImageEE5unrefEv
000000000014163c t __ZN5godot3RefINS_5ImageEEC1Ev
000000000014f984 t __ZN5godot3RefINS_5ImageEEC2Ev
000000000014f99c t __ZN5godot3RefINS_5ImageEED1Ev
000000000014f9c8 t __ZN5godot3RefINS_5ImageEED2Ev
000000000012db90 t __ZN5godot3RefINS_5ThemeEE25_gde_internal_constructorEPNS_6ObjectE
000000000013705c t __ZN5godot3RefINS_5ThemeEE5unrefEv
000000000012db64 t __ZN5godot3RefINS_5ThemeEEC1Ev
0000000000136fec t __ZN5godot3RefINS_5ThemeEEC2Ev
0000000000137004 t __ZN5godot3RefINS_5ThemeEED1Ev
0000000000137030 t __ZN5godot3RefINS_5ThemeEED2Ev
000000000017c9d4 t __ZN5godot3RefINS_5TweenEE25_gde_internal_constructorEPNS_6ObjectE
0000000000181370 t __ZN5godot3RefINS_5TweenEE5unrefEv
000000000017c9a8 t __ZN5godot3RefINS_5TweenEEC1Ev
0000000000181300 t __ZN5godot3RefINS_5TweenEEC2Ev
0000000000181318 t __ZN5godot3RefINS_5TweenEED1Ev
0000000000181344 t __ZN5godot3RefINS_5TweenEED2Ev
000000000001cd00 t __ZN5godot3RefINS_7BoxMeshEE11instantiateEv
000000000002ffc8 t __ZN5godot3RefINS_7BoxMeshEE11ref_pointerEPS1_
000000000002fdd8 t __ZN5godot3RefINS_7BoxMeshEE3refERKS2_
000000000002fd48 t __ZN5godot3RefINS_7BoxMeshEE5unrefEv
000000000002fe84 t __ZN5godot3RefINS_7BoxMeshEEC1EPS1_
000000000001ccd4 t __ZN5godot3RefINS_7BoxMeshEEC1Ev
000000000002ff74 t __ZN5godot3RefINS_7BoxMeshEEC2EPS1_
000000000002fd04 t __ZN5godot3RefINS_7BoxMeshEEC2Ev
000000000001cf08 t __ZN5godot3RefINS_7BoxMeshEED1Ev
000000000002fd1c t __ZN5godot3RefINS_7BoxMeshEED2Ev
000000000011cdd0 t __ZN5godot3RefINS_7World2DEE25_gde_internal_constructorEPNS_6ObjectE
0000000000120b70 t __ZN5godot3RefINS_7World2DEE5unrefEv
000000000011cda4 t __ZN5godot3RefINS_7World2DEEC1Ev
0000000000120b00 t __ZN5godot3RefINS_7World2DEEC2Ev
0000000000120b18 t __ZN5godot3RefINS_7World2DEED1Ev
0000000000120b44 t __ZN5godot3RefINS_7World2DEED2Ev
0000000000185fa4 t __ZN5godot3RefINS_7World3DEE25_gde_internal_constructorEPNS_6ObjectE
000000000018a510 t __ZN5godot3RefINS_7World3DEE5unrefEv
0000000000185f78 t __ZN5godot3RefINS_7World3DEEC1Ev
000000000018a4a0 t __ZN5godot3RefINS_7World3DEEC2Ev
000000000018a4b8 t __ZN5godot3RefINS_7World3DEED1Ev
000000000018a4e4 t __ZN5godot3RefINS_7World3DEED2Ev
0000000000017900 t __ZN5godot3RefINS_8MaterialEE11ref_pointerEPS1_
000000000011d26c t __ZN5godot3RefINS_8MaterialEE25_gde_internal_constructorEPNS_6ObjectE
00000000000179e0 t __ZN5godot3RefINS_8MaterialEE3refERKS2_
0000000000017638 t __ZN5godot3RefINS_8MaterialEE5unrefEv
0000000000017860 t __ZN5godot3RefINS_8MaterialEEC1EPS1_
0000000000017400 t __ZN5godot3RefINS_8MaterialEEC1ERKNS_7VariantE
00000000000185cc t __ZN5godot3RefINS_8MaterialEEC1ERKS2_
0000000000017834 t __ZN5godot3RefINS_8MaterialEEC1Ev
00000000000178ac t __ZN5godot3RefINS_8MaterialEEC2EPS1_
0000000000017434 t __ZN5godot3RefINS_8MaterialEEC2ERKNS_7VariantE
0000000000018600 t __ZN5godot3RefINS_8MaterialEEC2ERKS2_
0000000000017894 t __ZN5godot3RefINS_8MaterialEEC2Ev
00000000000173d4 t __ZN5godot3RefINS_8MaterialEED1Ev
000000000001760c t __ZN5godot3RefINS_8MaterialEED2Ev
00000000000179b4 t __ZN5godot3RefINS_8MaterialEEaSERKS2_
000000000016b9b8 t __ZN5godot3RefINS_8ResourceEE25_gde_internal_constructorEPNS_6ObjectE
0000000000031ed8 t __ZN5godot3RefINS_8ResourceEE5unrefEv
000000000016b98c t __ZN5godot3RefINS_8ResourceEEC1Ev
000000000016bbac t __ZN5godot3RefINS_8ResourceEEC2Ev
000000000001d234 t __ZN5godot3RefINS_8ResourceEED1Ev
0000000000031eac t __ZN5godot3RefINS_8ResourceEED2Ev
000000000010e27c t __ZN5godot3RefINS_8ShortcutEE25_gde_internal_constructorEPNS_6ObjectE
000000000010ee64 t __ZN5godot3RefINS_8ShortcutEE5unrefEv
000000000010e250 t __ZN5godot3RefINS_8ShortcutEEC1Ev
000000000010edf4 t __ZN5godot3RefINS_8ShortcutEEC2Ev
000000000010ee0c t __ZN5godot3RefINS_8ShortcutEED1Ev
000000000010ee38 t __ZN5godot3RefINS_8ShortcutEED2Ev
000000000012fd8c t __ZN5godot3RefINS_8StyleBoxEE25_gde_internal_constructorEPNS_6ObjectE
000000000013715c t __ZN5godot3RefINS_8StyleBoxEE5unrefEv
000000000012fd60 t __ZN5godot3RefINS_8StyleBoxEEC1Ev
00000000001370ec t __ZN5godot3RefINS_8StyleBoxEEC2Ev
0000000000137104 t __ZN5godot3RefINS_8StyleBoxEED1Ev
0000000000137130 t __ZN5godot3RefINS_8StyleBoxEED2Ev
000000000001c84c t __ZN5godot3RefINS_9ArrayMeshEE11instantiateEv
000000000002f91c t __ZN5godot3RefINS_9ArrayMeshEE11ref_pointerEPS1_
000000000010ba24 t __ZN5godot3RefINS_9ArrayMeshEE25_gde_internal_constructorEPNS_6ObjectE
000000000002f72c t __ZN5godot3RefINS_9ArrayMeshEE3refERKS2_
000000000002f69c t __ZN5godot3RefINS_9ArrayMeshEE5unrefEv
000000000002f7d8 t __ZN5godot3RefINS_9ArrayMeshEEC1EPS1_
000000000001c820 t __ZN5godot3RefINS_9ArrayMeshEEC1Ev
000000000002f8c8 t __ZN5godot3RefINS_9ArrayMeshEEC2EPS1_
000000000002f658 t __ZN5godot3RefINS_9ArrayMeshEEC2Ev
000000000001cafc t __ZN5godot3RefINS_9ArrayMeshEED1Ev
000000000002f670 t __ZN5godot3RefINS_9ArrayMeshEED2Ev
00000000001119d8 t __ZN5godot3RefINS_9Texture2DEE25_gde_internal_constructorEPNS_6ObjectE
0000000000112f3c t __ZN5godot3RefINS_9Texture2DEE5unrefEv
00000000001119ac t __ZN5godot3RefINS_9Texture2DEEC1Ev
0000000000112ecc t __ZN5godot3RefINS_9Texture2DEEC2Ev
0000000000112ee4 t __ZN5godot3RefINS_9Texture2DEED1Ev
0000000000112f10 t __ZN5godot3RefINS_9Texture2DEED2Ev
000000000011febc t __ZN5godot4Font16get_class_staticEv
00000000001cd578 s __ZN5godot4Font22_gde_binding_callbacksE
000000000011ff90 t __ZN5godot4Font26_gde_binding_free_callbackEPvS1_S1_
000000000011ff4c t __ZN5godot4Font28_gde_binding_create_callbackEPvS1_
000000000011ffd4 t __ZN5godot4Font31_gde_binding_reference_callbackEPvS1_h
00000000001d0710 d __ZN5godot4Font37_gde_engine_class_registration_helperE
000000000011fff0 t __ZN5godot4FontC1EPv
0000000000120024 t __ZN5godot4FontC2EPv
0000000000120094 t __ZN5godot4FontD0Ev
0000000000120068 t __ZN5godot4FontD1Ev
00000000001200c4 t __ZN5godot4FontD2Ev
00000000000010ec t __ZN5godot4ListINS_12PropertyInfoENS_16DefaultAllocatorEE5_Data5eraseEPKNS3_7ElementE
0000000000000f4c t __ZN5godot4ListINS_12PropertyInfoENS_16DefaultAllocatorEE5clearEv
000000000000103c t __ZN5godot4ListINS_12PropertyInfoENS_16DefaultAllocatorEE5eraseEPKNS3_7ElementE
00000000000012e0 t __ZN5godot4ListINS_12PropertyInfoENS_16DefaultAllocatorEE7ElementD1Ev
000000000000130c t __ZN5godot4ListINS_12PropertyInfoENS_16DefaultAllocatorEE7ElementD2Ev
000000000005c6f0 t __ZN5godot4ListINS_12PropertyInfoENS_16DefaultAllocatorEEC1Ev
000000000005ceac t __ZN5godot4ListINS_12PropertyInfoENS_16DefaultAllocatorEEC2Ev
0000000000000e28 t __ZN5godot4ListINS_12PropertyInfoENS_16DefaultAllocatorEED1Ev
0000000000000eb0 t __ZN5godot4ListINS_12PropertyInfoENS_16DefaultAllocatorEED2Ev
00000000000c01e4 t __ZN5godot4Math10deg_to_radEd
00000000000c82ac t __ZN5godot4Math10deg_to_radEf
00000000000c8248 t __ZN5godot4Math10rad_to_degEd
00000000000c722c t __ZN5godot4Math10rad_to_degEf
000000000007fb68 t __ZN5godot4Math14is_zero_approxEf
0000000000086510 t __ZN5godot4Math15is_equal_approxEff
0000000000080350 t __ZN5godot4Math15is_equal_approxEfff
00000000000cf11c t __ZN5godot4Math17cubic_interpolateEfffff
00000000000cfc0c t __ZN5godot4Math25cubic_interpolate_in_timeEffffffff
00000000000b2574 t __ZN5godot4Math3absIdEET_S2_
000000000007a294 t __ZN5godot4Math3absIfEET_S2_
00000000000865dc t __ZN5godot4Math3cosEf
00000000000ce514 t __ZN5godot4Math3sinEd
00000000000865f0 t __ZN5godot4Math3sinEf
00000000000c8298 t __ZN5godot4Math3tanEd
00000000000ce738 t __ZN5godot4Math4absfEf
0000000000098b04 t __ZN5godot4Math4acosEf
000000000009bc1c t __ZN5godot4Math4asinEf
00000000000c8284 t __ZN5godot4Math4atanEd
00000000000865c8 t __ZN5godot4Math4atanEf
00000000000b3b48 t __ZN5godot4Math4lerpEfff
00000000000cf0f8 t __ZN5godot4Math4signIfEET_S2_
000000000007a2b8 t __ZN5godot4Math4sqrtEf
000000000009bbf0 t __ZN5godot4Math5atan2Eff
00000000000b7a08 t __ZN5godot4Math5floorEd
000000000001ce40 t __ZN5godot4Math5floorEf
00000000000b6318 t __ZN5godot4Math7snappedEdd
00000000000b7740 t __ZN5godot4Math9is_finiteEf
0000000000028f84 t __ZN5godot4Mesh16get_class_staticEv
000000000016cd98 t __ZN5godot4Mesh20surface_set_materialEiRKNS_3RefINS_8MaterialEEE
000000000016e1d8 t __ZN5godot4Mesh21_set_blend_shape_nameEiRKNS_10StringNameE
000000000016e13c t __ZN5godot4Mesh21_surface_set_materialEiRKNS_3RefINS_8MaterialEEE
00000000001cca10 s __ZN5godot4Mesh22_gde_binding_callbacksE
000000000016be6c t __ZN5godot4Mesh22set_lightmap_size_hintERKNS_8Vector2iE
0000000000029058 t __ZN5godot4Mesh26_gde_binding_free_callbackEPvS1_S1_
0000000000029014 t __ZN5godot4Mesh28_gde_binding_create_callbackEPvS1_
000000000002909c t __ZN5godot4Mesh31_gde_binding_reference_callbackEPvS1_h
00000000001d0420 d __ZN5godot4Mesh37_gde_engine_class_registration_helperE
00000000000290b8 t __ZN5godot4MeshC1EPv
000000000002f884 t __ZN5godot4MeshC2EPKc
00000000000290ec t __ZN5godot4MeshC2EPv
000000000016e2f8 t __ZN5godot4MeshD0Ev
000000000016e2cc t __ZN5godot4MeshD1Ev
00000000000293b8 t __ZN5godot4MeshD2Ev
0000000000180530 t __ZN5godot4Node10_exit_treeEv
0000000000176634 t __ZN5godot4Node10move_childEPS0_i
00000000001770e0 t __ZN5godot4Node10print_treeEv
000000000017d8d0 t __ZN5godot4Node10queue_freeEv
000000000017cd54 t __ZN5godot4Node10replace_byEPS0_b
000000000017e574 t __ZN5godot4Node10rpc_configERKNS_10StringNameERKNS_7VariantE
0000000000180520 t __ZN5godot4Node11_enter_treeEv
0000000000172b9c t __ZN5godot4Node11add_siblingEPS0_b
00000000001784a8 t __ZN5godot4Node11set_processEb
00000000001760a8 t __ZN5godot4Node12add_to_groupERKNS_10StringNameEb
000000000017c814 t __ZN5godot4Node12create_tweenEv
00000000001733ec t __ZN5godot4Node12remove_childEPS0_
000000000017f54c t __ZN5godot4Node12rpc_internalEPPKNS_7VariantEx
000000000017da4c t __ZN5godot4Node13request_readyEv
0000000000177bbc t __ZN5godot4Node14propagate_callERKNS_10StringNameERKNS_5ArrayEb
0000000000180598 t __ZN5godot4Node15_shortcut_inputERKNS_3RefINS_10InputEventEEE
00000000001773d8 t __ZN5godot4Node15get_tree_stringEv
000000000017f728 t __ZN5godot4Node15rpc_id_internalEPPKNS_7VariantEx
00000000001801b4 t __ZN5godot4Node15set_thread_safeERKNS_10StringNameERKNS_7VariantE
000000000018050c t __ZN5godot4Node16_physics_processEd
00000000001805ac t __ZN5godot4Node16_unhandled_inputERKNS_3RefINS_10InputEventEEE
0000000000001f3c t __ZN5godot4Node16get_class_staticEv
0000000000179c00 t __ZN5godot4Node16set_process_modeENS0_11ProcessModeE
000000000017725c t __ZN5godot4Node17print_tree_prettyEv
0000000000019f88 t __ZN5godot4Node17register_virtualsI13MinecraftNodeNS_6Node3DEEEvv
00000000001762ec t __ZN5godot4Node17remove_from_groupERKNS_10StringNameE
0000000000178e80 t __ZN5godot4Node17set_process_inputEb
0000000000180350 t __ZN5godot4Node18notify_thread_safeEi
0000000000172a30 t __ZN5godot4Node18print_orphan_nodesEv
000000000017ab3c t __ZN5godot4Node18set_display_foldedEb
0000000000177e20 t __ZN5godot4Node19set_physics_processEb
00000000001776f8 t __ZN5godot4Node19set_scene_file_pathERKNS_6StringE
00000000001805c0 t __ZN5godot4Node20_unhandled_key_inputERKNS_3RefINS_10InputEventEEE
000000000017ae9c t __ZN5godot4Node20set_process_internalEb
000000000017865c t __ZN5godot4Node20set_process_priorityEi
0000000000175214 t __ZN5godot4Node21get_node_and_resourceERKNS_8NodePathE
000000000017d2b0 t __ZN5godot4Node21set_editable_instanceEPS0_b
00000000001cc210 s __ZN5godot4Node22_gde_binding_callbacksE
0000000000177568 t __ZN5godot4Node22get_tree_string_prettyEv
0000000000177a14 t __ZN5godot4Node22propagate_notificationEi
000000000017e964 t __ZN5godot4Node22set_editor_descriptionERKNS_6StringE
000000000017bd6c t __ZN5godot4Node23set_auto_translate_modeENS0_17AutoTranslateModeE
000000000017a0e8 t __ZN5godot4Node24set_process_thread_groupENS0_18ProcessThreadGroupE
000000000017ec80 t __ZN5godot4Node24set_unique_name_in_ownerEb
000000000017ffbc t __ZN5godot4Node25call_thread_safe_internalEPPKNS_7VariantEx
000000000017fc78 t __ZN5godot4Node25set_deferred_thread_groupERKNS_10StringNameERKNS_7VariantE
000000000017dd74 t __ZN5godot4Node25set_multiplayer_authorityEib
0000000000002010 t __ZN5godot4Node26_gde_binding_free_callbackEPvS1_S1_
00000000001791e0 t __ZN5godot4Node26set_process_shortcut_inputEb
000000000017bbf0 t __ZN5godot4Node27reset_physics_interpolationEv
000000000017a424 t __ZN5godot4Node27set_process_thread_messagesENS_8BitFieldINS0_21ProcessThreadMessagesEEE
0000000000179540 t __ZN5godot4Node27set_process_unhandled_inputEb
0000000000001fcc t __ZN5godot4Node28_gde_binding_create_callbackEPvS1_
000000000017fe14 t __ZN5godot4Node28notify_deferred_thread_groupEi
000000000017b1fc t __ZN5godot4Node28set_physics_process_internalEb
0000000000178998 t __ZN5godot4Node28set_physics_process_priorityEi
000000000017f904 t __ZN5godot4Node29update_configuration_warningsEv
000000000017b55c t __ZN5godot4Node30set_physics_interpolation_modeENS0_24PhysicsInterpolationModeE
000000000017a800 t __ZN5godot4Node30set_process_thread_group_orderEi
0000000000002054 t __ZN5godot4Node31_gde_binding_reference_callbackEPvS1_h
00000000001798a0 t __ZN5godot4Node31set_process_unhandled_key_inputEb
000000000017c0a8 t __ZN5godot4Node32set_translation_domain_inheritedEv
000000000017fa80 t __ZN5godot4Node35call_deferred_thread_group_internalEPPKNS_7VariantEx
000000000017cf50 t __ZN5godot4Node35set_scene_instance_load_placeholderEb
00000000001d0250 d __ZN5godot4Node37_gde_engine_class_registration_helperE
0000000000180584 t __ZN5godot4Node6_inputERKNS_3RefINS_10InputEventEEE
0000000000180540 t __ZN5godot4Node6_readyEv
00000000001804f8 t __ZN5godot4Node8_processEd
00000000001735b0 t __ZN5godot4Node8reparentEPS0_b
0000000000172e18 t __ZN5godot4Node8set_nameERKNS_6StringE
0000000000173134 t __ZN5godot4Node9add_childEPS0_bNS0_12InternalModeE
0000000000176bc0 t __ZN5godot4Node9set_ownerEPS0_
0000000000002070 t __ZN5godot4NodeC1EPv
000000000001e700 t __ZN5godot4NodeC2EPKc
00000000000020a4 t __ZN5godot4NodeC2EPv
0000000000180600 t __ZN5godot4NodeD0Ev
00000000001805d4 t __ZN5godot4NodeD1Ev
0000000000002370 t __ZN5godot4NodeD2Ev
000000000008af50 t __ZN5godot4SIGNIfEEKT_S1_
0000000000171d58 t __ZN5godot4Skin16get_class_staticEv
00000000001cde38 s __ZN5godot4Skin22_gde_binding_callbacksE
0000000000171e2c t __ZN5godot4Skin26_gde_binding_free_callbackEPvS1_S1_
0000000000171de8 t __ZN5godot4Skin28_gde_binding_create_callbackEPvS1_
0000000000171e70 t __ZN5godot4Skin31_gde_binding_reference_callbackEPvS1_h
00000000001d0bb0 d __ZN5godot4Skin37_gde_engine_class_registration_helperE
0000000000171e8c t __ZN5godot4SkinC1EPv
0000000000171ec0 t __ZN5godot4SkinC2EPv
0000000000171f30 t __ZN5godot4SkinD0Ev
0000000000171f04 t __ZN5godot4SkinD1Ev
0000000000171f60 t __ZN5godot4SkinD2Ev
00000000000d6f4c t __ZN5godot4itosEx
00000000000d6fbc t __ZN5godot4rtosEd
00000000000f3d0c t __ZN5godot5Array10push_frontERKNS_7VariantE
00000000000f4448 t __ZN5godot5Array11sort_customERKNS_8CallableE
00000000000f3d7c t __ZN5godot5Array12append_arrayERKS0_
00000000000f1680 t __ZN5godot5Array13init_bindingsEv
00000000000f4da8 t __ZN5godot5Array14make_read_onlyEv
00000000001d7df0 s __ZN5godot5Array16_method_bindingsE
00000000000f1474 t __ZN5godot5Array38_init_bindings_constructors_destructorEv
00000000000f3bb4 t __ZN5godot5Array3setExRKNS_7VariantE
00000000000f3f80 t __ZN5godot5Array4fillERKNS_7VariantE
0000000000063438 t __ZN5godot5Array4makeIJNS_10StringNameEEEES0_DpT_
0000000000062f5c t __ZN5godot5Array4makeIJNS_10StringNameES2_EEES0_DpT_
00000000000632a0 t __ZN5godot5Array4makeIJNS_10StringNameES2_S2_S2_EEES0_DpT_
0000000000062240 t __ZN5godot5Array4makeIJNS_6StringES2_NS_10StringNameEEEES0_DpT_
00000000000f4418 t __ZN5godot5Array4sortEv
00000000000f39b0 t __ZN5godot5Array5clearEv
00000000000f3fb8 t __ZN5godot5Array5eraseERKNS_7VariantE
00000000000f3d44 t __ZN5godot5Array6appendERKNS_7VariantE
00000000000f3a10 t __ZN5godot5Array6assignERKS0_
00000000000f3e08 t __ZN5godot5Array6insertExRKNS_7VariantE
00000000000f43bc t __ZN5godot5Array6pop_atEx
00000000000f3db4 t __ZN5godot5Array6resizeEx
00000000000f466c t __ZN5godot5Array7reverseEv
00000000000f4480 t __ZN5godot5Array7shuffleEv
00000000000f434c t __ZN5godot5Array8pop_backEv
00000000000f4384 t __ZN5godot5Array9pop_frontEv
00000000000f3c78 t __ZN5godot5Array9push_backERKNS_7VariantE
00000000000f3ed0 t __ZN5godot5Array9remove_atEx
00000000000db798 t __ZN5godot5Array9set_typedEjRKNS_10StringNameERKNS_7VariantE
00000000000f38b0 t __ZN5godot5ArrayC1EOS0_
00000000000f2b3c t __ZN5godot5ArrayC1EPKNS_7VariantE
00000000000f2f38 t __ZN5godot5ArrayC1ERKNS_15PackedByteArrayE
00000000000f3718 t __ZN5godot5ArrayC1ERKNS_16PackedColorArrayE
00000000000f3034 t __ZN5godot5ArrayC1ERKNS_16PackedInt32ArrayE
00000000000f3130 t __ZN5godot5ArrayC1ERKNS_16PackedInt64ArrayE
00000000000f3424 t __ZN5godot5ArrayC1ERKNS_17PackedStringArrayE
00000000000f322c t __ZN5godot5ArrayC1ERKNS_18PackedFloat32ArrayE
00000000000f3328 t __ZN5godot5ArrayC1ERKNS_18PackedFloat64ArrayE
00000000000f3520 t __ZN5godot5ArrayC1ERKNS_18PackedVector2ArrayE
00000000000f361c t __ZN5godot5ArrayC1ERKNS_18PackedVector3ArrayE
00000000000f3814 t __ZN5godot5ArrayC1ERKNS_18PackedVector4ArrayE
00000000000f2cd0 t __ZN5godot5ArrayC1ERKS0_
00000000000f2e24 t __ZN5godot5ArrayC1ERKS0_xRKNS_10StringNameERKNS_7VariantE
00000000000f2bdc t __ZN5godot5ArrayC1Ev
00000000000f3848 t __ZN5godot5ArrayC2EOS0_
00000000000f2ac4 t __ZN5godot5ArrayC2EPKNS_7VariantE
00000000000f2e70 t __ZN5godot5ArrayC2ERKNS_15PackedByteArrayE
00000000000f3650 t __ZN5godot5ArrayC2ERKNS_16PackedColorArrayE
00000000000f2f6c t __ZN5godot5ArrayC2ERKNS_16PackedInt32ArrayE
00000000000f3068 t __ZN5godot5ArrayC2ERKNS_16PackedInt64ArrayE
00000000000f335c t __ZN5godot5ArrayC2ERKNS_17PackedStringArrayE
00000000000f3164 t __ZN5godot5ArrayC2ERKNS_18PackedFloat32ArrayE
00000000000f3260 t __ZN5godot5ArrayC2ERKNS_18PackedFloat64ArrayE
00000000000f3458 t __ZN5godot5ArrayC2ERKNS_18PackedVector2ArrayE
00000000000f3554 t __ZN5godot5ArrayC2ERKNS_18PackedVector3ArrayE
00000000000f374c t __ZN5godot5ArrayC2ERKNS_18PackedVector4ArrayE
00000000000f2c08 t __ZN5godot5ArrayC2ERKS0_
00000000000f2d04 t __ZN5godot5ArrayC2ERKS0_xRKNS_10StringNameERKNS_7VariantE
00000000000f2b70 t __ZN5godot5ArrayC2Ev
00000000000f391c t __ZN5godot5ArrayD1Ev
00000000000f38e4 t __ZN5godot5ArrayD2Ev
00000000000f5170 t __ZN5godot5ArrayaSEOS0_
00000000000f511c t __ZN5godot5ArrayaSERKS0_
00000000000db758 t __ZN5godot5ArrayixEx
0000000000092138 t __ZN5godot5Basis10from_eulerERKNS_7Vector3ENS_10EulerOrderE
0000000000086968 t __ZN5godot5Basis10from_scaleERKNS_7Vector3E
00000000000b455c t __ZN5godot5Basis10looking_atERKNS_7Vector3ES3_b
00000000000803cc t __ZN5godot5Basis11diagonalizeEv
000000000007d904 t __ZN5godot5Basis11scale_localERKNS_7Vector3E
000000000008eb08 t __ZN5godot5Basis12rotate_localERKNS_7Vector3Ef
00000000000b2c78 t __ZN5godot5Basis13_set_diagonalERKNS_7Vector3E
000000000007cff4 t __ZN5godot5Basis13orthogonalizeEv
000000000007bb00 t __ZN5godot5Basis14orthonormalizeEv
0000000000098b18 t __ZN5godot5Basis14set_axis_angleERKNS_7Vector3Ef
00000000000b2598 t __ZN5godot5Basis14set_quaternionERKNS_10QuaternionE
000000000009874c t __ZN5godot5Basis15rotate_to_alignENS_7Vector3ES1_
00000000000b30e8 t __ZN5godot5Basis15set_euler_scaleERKNS_7Vector3ES3_NS_10EulerOrderE
0000000000088b4c t __ZN5godot5Basis16scale_orthogonalERKNS_7Vector3E
0000000000089a2c t __ZN5godot5Basis18make_scale_uniformEv
00000000000b2c30 t __ZN5godot5Basis20set_axis_angle_scaleERKNS_7Vector3EfS3_
00000000000b3130 t __ZN5godot5Basis20set_quaternion_scaleERKNS_10QuaternionERKNS_7Vector3E
0000000000086a4c t __ZN5godot5Basis5scaleERKNS_7Vector3E
00000000000799d8 t __ZN5godot5Basis6from_zERKNS_7Vector3E
000000000007a2d0 t __ZN5godot5Basis6invertEv
0000000000093fc4 t __ZN5godot5Basis6rotateERKNS_10QuaternionE
0000000000092384 t __ZN5godot5Basis6rotateERKNS_7Vector3ENS_10EulerOrderE
000000000008eab8 t __ZN5godot5Basis6rotateERKNS_7Vector3Ef
00000000000b3b78 t __ZN5godot5Basis9rotate_shEPf
000000000009bc44 t __ZN5godot5Basis9set_eulerERKNS_7Vector3ENS_10EulerOrderE
0000000000086640 t __ZN5godot5Basis9transposeEv
0000000000093f90 t __ZN5godot5BasisC1ERKNS_10QuaternionE
000000000008ea7c t __ZN5godot5BasisC1ERKNS_7Vector3Ef
00000000000869cc t __ZN5godot5BasisC1Efffffffff
00000000000b5b8c t __ZN5godot5BasisC2ERKNS_10QuaternionE
00000000000b5948 t __ZN5godot5BasisC2ERKNS_7Vector3Ef
00000000000b5214 t __ZN5godot5BasisC2Efffffffff
0000000000098a90 t __ZN5godot5CLAMPIfffEEDaT_T0_T1_
000000000014f73c t __ZN5godot5Image16get_class_staticEv
00000000001cd960 s __ZN5godot5Image22_gde_binding_callbacksE
000000000014f810 t __ZN5godot5Image26_gde_binding_free_callbackEPvS1_S1_
000000000014f7cc t __ZN5godot5Image28_gde_binding_create_callbackEPvS1_
000000000014f854 t __ZN5godot5Image31_gde_binding_reference_callbackEPvS1_h
00000000001d08f8 d __ZN5godot5Image37_gde_engine_class_registration_helperE
000000000014f870 t __ZN5godot5ImageC1EPv
000000000014f8a4 t __ZN5godot5ImageC2EPv
000000000014f914 t __ZN5godot5ImageD0Ev
000000000014f8e8 t __ZN5godot5ImageD1Ev
000000000014f944 t __ZN5godot5ImageD2Ev
0000000000169360 t __ZN5godot5Input10warp_mouseERKNS_7Vector2E
0000000000168424 t __ZN5godot5Input11set_gravityERKNS_7Vector3E
00000000001694ec t __ZN5godot5Input12action_pressERKNS_10StringNameEf
00000000001665d4 t __ZN5godot5Input12get_joy_nameEi
0000000000166188 t __ZN5godot5Input12is_joy_knownEi
0000000000164034 t __ZN5godot5Input13get_singletonEv
00000000001688c8 t __ZN5godot5Input13set_gyroscopeERKNS_7Vector3E
0000000000169728 t __ZN5godot5Input14action_releaseERKNS_10StringNameE
0000000000169024 t __ZN5godot5Input14set_mouse_modeENS0_9MouseModeE
0000000000165db8 t __ZN5godot5Input15add_joy_mappingERKNS_6StringEb
0000000000028d84 t __ZN5godot5Input16get_class_staticEv
000000000016873c t __ZN5godot5Input16set_magnetometerERKNS_7Vector3E
0000000000167a2c t __ZN5godot5Input16vibrate_handheldEif
0000000000169e14 t __ZN5godot5Input17parse_input_eventERKNS_3RefINS_10InputEventEEE
00000000001685b0 t __ZN5godot5Input17set_accelerometerERKNS_7Vector3E
0000000000165ffc t __ZN5godot5Input18remove_joy_mappingERKNS_6StringE
0000000000167884 t __ZN5godot5Input18stop_joy_vibrationEi
00000000001675ac t __ZN5godot5Input19start_joy_vibrationEifff
000000000016a35c t __ZN5godot5Input21flush_buffered_eventsEv
0000000000166dd4 t __ZN5godot5Input21get_connected_joypadsEv
00000000001cc9f8 s __ZN5godot5Input22_gde_binding_callbacksE
0000000000168a54 t __ZN5godot5Input23get_last_mouse_velocityEv
0000000000169bf0 t __ZN5godot5Input23set_custom_mouse_cursorERKNS_3RefINS_8ResourceEEENS0_11CursorShapeERKNS_7Vector2E
00000000001698b4 t __ZN5godot5Input24set_default_cursor_shapeENS0_11CursorShapeE
0000000000169ffc t __ZN5godot5Input25set_use_accumulated_inputEb
0000000000028e58 t __ZN5godot5Input26_gde_binding_free_callbackEPvS1_S1_
00000000001673e8 t __ZN5godot5Input26get_joy_vibration_durationEi
00000000001670f0 t __ZN5godot5Input26get_joy_vibration_strengthEi
000000000016a1b0 t __ZN5godot5Input26is_using_accumulated_inputEv
0000000000028e14 t __ZN5godot5Input28_gde_binding_create_callbackEPvS1_
000000000016a4d8 t __ZN5godot5Input28set_emulate_mouse_from_touchEb
000000000016a838 t __ZN5godot5Input28set_emulate_touch_from_mouseEb
0000000000168c4c t __ZN5godot5Input30get_last_mouse_screen_velocityEv
0000000000028e9c t __ZN5godot5Input31_gde_binding_reference_callbackEPvS1_h
00000000001d0410 d __ZN5godot5Input37_gde_engine_class_registration_helperE
00000000001d8d50 s __ZN5godot5Input9singletonE
0000000000028eb8 t __ZN5godot5InputC1EPv
0000000000028eec t __ZN5godot5InputC2EPv
0000000000164214 t __ZN5godot5InputD0Ev
00000000001641e8 t __ZN5godot5InputD1Ev
0000000000164178 t __ZN5godot5InputD2Ev
000000000002a3d0 t __ZN5godot5Noise16get_class_staticEv
00000000001ccc98 s __ZN5godot5Noise22_gde_binding_callbacksE
000000000002a4a4 t __ZN5godot5Noise26_gde_binding_free_callbackEPvS1_S1_
000000000002a460 t __ZN5godot5Noise28_gde_binding_create_callbackEPvS1_
000000000002a4e8 t __ZN5godot5Noise31_gde_binding_reference_callbackEPvS1_h
00000000001d04b0 d __ZN5godot5Noise37_gde_engine_class_registration_helperE
000000000002a504 t __ZN5godot5NoiseC1EPv
000000000002f4b0 t __ZN5godot5NoiseC2EPKc
000000000002a538 t __ZN5godot5NoiseC2EPv
000000000002a5a8 t __ZN5godot5NoiseD0Ev
000000000002a57c t __ZN5godot5NoiseD1Ev
000000000002a5d8 t __ZN5godot5NoiseD2Ev
00000000000db8f8 t __ZN5godot5Plane10set_normalERKNS_7Vector3E
00000000000db924 t __ZN5godot5Plane9normalizeEv
00000000000cabe0 t __ZN5godot5Rect2C1Ev
00000000000ccf9c t __ZN5godot5Rect2C2Ev
0000000000136db8 t __ZN5godot5Theme16get_class_staticEv
00000000001cd890 s __ZN5godot5Theme22_gde_binding_callbacksE
0000000000136e8c t __ZN5godot5Theme26_gde_binding_free_callbackEPvS1_S1_
0000000000136e48 t __ZN5godot5Theme28_gde_binding_create_callbackEPvS1_
0000000000136ed0 t __ZN5godot5Theme31_gde_binding_reference_callbackEPvS1_h
00000000001d0840 d __ZN5godot5Theme37_gde_engine_class_registration_helperE
0000000000136eec t __ZN5godot5ThemeC1EPv
0000000000136f20 t __ZN5godot5ThemeC2EPv
0000000000136f90 t __ZN5godot5ThemeD0Ev
0000000000136f64 t __ZN5godot5ThemeD1Ev
0000000000136fc0 t __ZN5godot5ThemeD2Ev
0000000000180b94 t __ZN5godot5Tween16get_class_staticEv
00000000001ce068 s __ZN5godot5Tween22_gde_binding_callbacksE
0000000000180c68 t __ZN5godot5Tween26_gde_binding_free_callbackEPvS1_S1_
0000000000180c24 t __ZN5godot5Tween28_gde_binding_create_callbackEPvS1_
0000000000180cac t __ZN5godot5Tween31_gde_binding_reference_callbackEPvS1_h
00000000001d0c28 d __ZN5godot5Tween37_gde_engine_class_registration_helperE
0000000000180cc8 t __ZN5godot5TweenC1EPv
0000000000180cfc t __ZN5godot5TweenC2EPv
0000000000180d6c t __ZN5godot5TweenD0Ev
0000000000180d40 t __ZN5godot5TweenD1Ev
0000000000180d9c t __ZN5godot5TweenD2Ev
00000000000d6fec t __ZN5godot5rtossEd
00000000000d6f84 t __ZN5godot5uitosEy
0000000000111314 t __ZN5godot6Button12set_languageERKNS_6StringE
0000000000111e58 t __ZN5godot6Button13set_clip_textEb
0000000000111630 t __ZN5godot6Button15set_button_iconERKNS_3RefINS_9Texture2DEEE
0000000000112b6c t __ZN5godot6Button15set_expand_iconEb
0000000000003100 t __ZN5godot6Button16get_class_staticEv
0000000000110c9c t __ZN5godot6Button17set_autowrap_modeENS_10TextServer12AutowrapModeE
00000000001124f4 t __ZN5godot6Button18set_icon_alignmentENS_19HorizontalAlignmentE
00000000001121b8 t __ZN5godot6Button18set_text_alignmentENS_19HorizontalAlignmentE
0000000000110fd8 t __ZN5godot6Button18set_text_directionENS_7Control13TextDirectionE
00000000001cc400 s __ZN5godot6Button22_gde_binding_callbacksE
0000000000110960 t __ZN5godot6Button25set_text_overrun_behaviorENS_10TextServer15OverrunBehaviorE
00000000000031d4 t __ZN5godot6Button26_gde_binding_free_callbackEPvS1_S1_
0000000000112830 t __ZN5godot6Button27set_vertical_icon_alignmentENS_17VerticalAlignmentE
0000000000003190 t __ZN5godot6Button28_gde_binding_create_callbackEPvS1_
0000000000003218 t __ZN5godot6Button31_gde_binding_reference_callbackEPvS1_h
00000000001d02d0 d __ZN5godot6Button37_gde_engine_class_registration_helperE
0000000000111af8 t __ZN5godot6Button8set_flatEb
0000000000110510 t __ZN5godot6Button8set_textERKNS_6StringE
0000000000003234 t __ZN5godot6ButtonC1EPv
0000000000003268 t __ZN5godot6ButtonC2EPv
00000000000032d8 t __ZN5godot6ButtonD0Ev
00000000000032ac t __ZN5godot6ButtonD1Ev
0000000000003308 t __ZN5godot6ButtonD2Ev
0000000000150b2c t __ZN5godot6Engine11set_max_fpsEi
000000000014fdd4 t __ZN5godot6Engine13get_singletonEv
0000000000151010 t __ZN5godot6Engine14get_time_scaleEv
0000000000150e68 t __ZN5godot6Engine14set_time_scaleEd
0000000000028b84 t __ZN5godot6Engine16get_class_staticEv
00000000001511a4 t __ZN5godot6Engine16get_frames_drawnEv
0000000000152b78 t __ZN5godot6Engine18register_singletonERKNS_10StringNameEPNS_6ObjectE
0000000000153d70 t __ZN5godot6Engine19set_print_to_stdoutEb
0000000000152d4c t __ZN5godot6Engine20unregister_singletonERKNS_10StringNameE
00000000001cc9e0 s __ZN5godot6Engine22_gde_binding_callbacksE
000000000015065c t __ZN5godot6Engine22set_physics_jitter_fixEd
0000000000153068 t __ZN5godot6Engine24register_script_languageEPNS_14ScriptLanguageE
00000000001540d0 t __ZN5godot6Engine24set_print_error_messagesEb
0000000000153494 t __ZN5godot6Engine25get_script_language_countEv
0000000000028c58 t __ZN5godot6Engine26_gde_binding_free_callbackEPvS1_S1_
00000000001532b8 t __ZN5godot6Engine26unregister_script_languageEPNS_14ScriptLanguageE
0000000000028c14 t __ZN5godot6Engine28_gde_binding_create_callbackEPvS1_
000000000014ffe4 t __ZN5godot6Engine28set_physics_ticks_per_secondEi
0000000000028c9c t __ZN5godot6Engine31_gde_binding_reference_callbackEPvS1_h
0000000000150320 t __ZN5godot6Engine31set_max_physics_steps_per_frameEi
00000000001d0400 d __ZN5godot6Engine37_gde_engine_class_registration_helperE
00000000001d8d48 s __ZN5godot6Engine9singletonE
0000000000028cb8 t __ZN5godot6EngineC1EPv
0000000000028cec t __ZN5godot6EngineC2EPv
000000000014ffb4 t __ZN5godot6EngineD0Ev
000000000014ff88 t __ZN5godot6EngineD1Ev
000000000014ff18 t __ZN5godot6EngineD2Ev
0000000000060174 t __ZN5godot6Memory11free_staticEPvb
000000000005ff78 t __ZN5godot6Memory12alloc_staticEmb
0000000000060048 t __ZN5godot6Memory14realloc_staticEPvmb
0000000000187170 t __ZN5godot6Node3D11set_visibleEb
0000000000186bc4 t __ZN5godot6Node3D12clear_gizmosEv
000000000018842c t __ZN5godot6Node3D12global_scaleERKNS_7Vector3E
0000000000189424 t __ZN5godot6Node3D12set_identityEv
0000000000181da0 t __ZN5godot6Node3D12set_positionERKNS_7Vector3E
0000000000182134 t __ZN5godot6Node3D12set_rotationERKNS_7Vector3E
0000000000188270 t __ZN5godot6Node3D13global_rotateERKNS_7Vector3Ef
000000000018199c t __ZN5godot6Node3D13set_transformERKNS_11Transform3DE
000000000018655c t __ZN5godot6Node3D13update_gizmosEv
00000000000110e8 t __ZN5godot6Node3D14_get_to_stringEv
00000000001892a8 t __ZN5godot6Node3D14orthonormalizeEv
0000000000183268 t __ZN5godot6Node3D14set_quaternionERKNS_10QuaternionE
000000000000213c t __ZN5godot6Node3D16get_class_staticEv
00000000001885b8 t __ZN5godot6Node3D16global_translateERKNS_7Vector3E
00000000000113b4 t __ZN5godot6Node3D16initialize_classEv
0000000000185724 t __ZN5godot6Node3D16set_as_top_levelEb
00000000001846f8 t __ZN5godot6Node3D16set_global_basisERKNS_5BasisE
00000000000113c4 t __ZN5godot6Node3D17_get_bind_methodsEv
0000000000011094 t __ZN5godot6Node3D17_get_notificationEv
0000000000011e8c t __ZN5godot6Node3D17register_virtualsI13MinecraftNodeS0_EEvv
0000000000185a84 t __ZN5godot6Node3D17set_disable_scaleEb
0000000000188900 t __ZN5godot6Node3D18scale_object_localERKNS_7Vector3E
000000000018285c t __ZN5godot6Node3D18set_rotation_orderENS_10EulerOrderE
0000000000188744 t __ZN5godot6Node3D19rotate_object_localERKNS_7Vector3Ef
0000000000184364 t __ZN5godot6Node3D19set_global_positionERKNS_7Vector3E
0000000000184c18 t __ZN5godot6Node3D19set_global_rotationERKNS_7Vector3E
0000000000183ec0 t __ZN5godot6Node3D20set_global_transformERKNS_11Transform3DE
0000000000187cd4 t __ZN5godot6Node3D20set_notify_transformEb
00000000001824c8 t __ZN5godot6Node3D20set_rotation_degreesERKNS_7Vector3E
0000000000189804 t __ZN5godot6Node3D21look_at_from_positionERKNS_7Vector3ES3_S3_b
0000000000186240 t __ZN5godot6Node3D21set_visibility_parentERKNS_8NodePathE
00000000001cc228 s __ZN5godot6Node3D22_gde_binding_callbacksE
0000000000010c18 t __ZN5godot6Node3D22_get_get_property_listEv
0000000000010d74 t __ZN5godot6Node3D22_get_validate_propertyEv
00000000001860c4 t __ZN5godot6Node3D22force_update_transformEv
0000000000182b98 t __ZN5godot6Node3D22set_rotation_edit_modeENS0_16RotationEditModeE
0000000000186d40 t __ZN5godot6Node3D22set_subgizmo_selectionERKNS_3RefINS_11Node3DGizmoEEEiRKNS_11Transform3DE
0000000000188a8c t __ZN5godot6Node3D22translate_object_localERKNS_7Vector3E
0000000000010c6c t __ZN5godot6Node3D24_get_property_can_revertEv
0000000000010ce0 t __ZN5godot6Node3D24_get_property_get_revertEv
0000000000186ff4 t __ZN5godot6Node3D24clear_subgizmo_selectionEv
0000000000002210 t __ZN5godot6Node3D26_gde_binding_free_callbackEPvS1_S1_
0000000000187974 t __ZN5godot6Node3D26set_notify_local_transformEb
0000000000184fac t __ZN5godot6Node3D27set_global_rotation_degreesERKNS_7Vector3E
00000000000021cc t __ZN5godot6Node3D28_gde_binding_create_callbackEPvS1_
0000000000002254 t __ZN5godot6Node3D31_gde_binding_reference_callbackEPvS1_h
00000000001841d8 t __ZN5godot6Node3D33get_global_transform_interpolatedEv
0000000000185570 t __ZN5godot6Node3D33set_ignore_transform_notificationEb
00000000001d0260 d __ZN5godot6Node3D37_gde_engine_class_registration_helperE
00000000001877f8 t __ZN5godot6Node3D4hideEv
000000000018767c t __ZN5godot6Node3D4showEv
0000000000188034 t __ZN5godot6Node3D6rotateERKNS_7Vector3Ef
00000000001895a0 t __ZN5godot6Node3D7look_atERKNS_7Vector3ES3_b
0000000000010bb8 t __ZN5godot6Node3D8_get_getEv
0000000000010b3c t __ZN5godot6Node3D8_get_setEv
0000000000188c18 t __ZN5godot6Node3D8rotate_xEf
0000000000188dc4 t __ZN5godot6Node3D8rotate_yEf
0000000000188f70 t __ZN5godot6Node3D8rotate_zEf
00000000001866d8 t __ZN5godot6Node3D9add_gizmoERKNS_3RefINS_11Node3DGizmoEEE
00000000001836b8 t __ZN5godot6Node3D9set_basisERKNS_5BasisE
0000000000182ed4 t __ZN5godot6Node3D9set_scaleERKNS_7Vector3E
000000000018911c t __ZN5godot6Node3D9translateERKNS_7Vector3E
000000000001ea48 t __ZN5godot6Node3DC1EPKc
0000000000002270 t __ZN5godot6Node3DC1EPv
000000000001cca0 t __ZN5godot6Node3DC1Ev
000000000001e6bc t __ZN5godot6Node3DC2EPKc
00000000000022a4 t __ZN5godot6Node3DC2EPv
000000000001b0b0 t __ZN5godot6Node3DC2Ev
0000000000002314 t __ZN5godot6Node3DD0Ev
00000000000022e8 t __ZN5godot6Node3DD1Ev
0000000000002344 t __ZN5godot6Node3DD2Ev
0000000000190860 t __ZN5godot6Object10disconnectERKNS_10StringNameERKNS_8CallableE
000000000018ddb4 t __ZN5godot6Object10set_scriptERKNS_7VariantE
00000000001920f8 t __ZN5godot6Object11cancel_freeEv
000000000018e2dc t __ZN5godot6Object11remove_metaERKNS_10StringNameE
000000000018cd14 t __ZN5godot6Object11set_indexedERKNS_8NodePathERKNS_7VariantE
000000000018d8b4 t __ZN5godot6Object12notificationEib
000000000018f5bc t __ZN5godot6Object12set_deferredERKNS_10StringNameERKNS_7VariantE
000000000018f1cc t __ZN5godot6Object13call_internalEPPKNS_7VariantEx
000000000018ea8c t __ZN5godot6Object15add_user_signalERKNS_6StringERKNS_5ArrayE
0000000000000b9c t __ZN5godot6Object16get_class_staticEv
000000000001a070 t __ZN5godot6Object17register_virtualsI13MinecraftNodeNS_6Node3DEEEvv
0000000000190e88 t __ZN5godot6Object17set_block_signalsEb
000000000018ee64 t __ZN5godot6Object18remove_user_signalERKNS_10StringNameE
000000000018eff0 t __ZN5godot6Object20emit_signal_internalEPPKNS_7VariantEx
00000000001cc068 s __ZN5godot6Object22_gde_binding_callbacksE
000000000018f3c4 t __ZN5godot6Object22call_deferred_internalEPPKNS_7VariantEx
0000000000191dc0 t __ZN5godot6Object22set_translation_domainERKNS_10StringNameE
0000000000191364 t __ZN5godot6Object23set_message_translationEb
0000000000000c70 t __ZN5godot6Object26_gde_binding_free_callbackEPvS1_S1_
0000000000000c2c t __ZN5godot6Object28_gde_binding_create_callbackEPvS1_
00000000001911e8 t __ZN5godot6Object28notify_property_list_changedEv
0000000000000cb4 t __ZN5godot6Object31_gde_binding_reference_callbackEPvS1_h
00000000001d01f0 d __ZN5godot6Object37_gde_engine_class_registration_helperE
000000000018c9d8 t __ZN5godot6Object3setERKNS_10StringNameERKNS_7VariantE
000000000018f758 t __ZN5godot6Object5callvERKNS_10StringNameERKNS_5ArrayE
000000000003208c t __ZN5godot6Object7cast_toINS_11PackedSceneEEEPT_PS0_
000000000001c91c t __ZN5godot6Object7cast_toINS_14MeshInstance3DEEEPT_PS0_
000000000002fac8 t __ZN5godot6Object7cast_toINS_4MeshEEEPT_PS0_
0000000000019068 t __ZN5godot6Object7cast_toINS_6ButtonEEEPT_PS0_
000000000001cb54 t __ZN5godot6Object7cast_toINS_6Node3DEEEPT_PS0_
0000000000018f1c t __ZN5godot6Object7cast_toINS_7ControlEEEPT_PS0_
00000000000174c0 t __ZN5godot6Object7cast_toINS_8MaterialEEEPT_PS0_
00000000001905ec t __ZN5godot6Object7connectERKNS_10StringNameERKNS_8CallableEj
000000000018e140 t __ZN5godot6Object8set_metaERKNS_10StringNameERKNS_7VariantE
000000000018da94 t __ZN5godot6Object9to_stringEv
0000000000000cd0 t __ZN5godot6ObjectC1EPv
000000000001e744 t __ZN5godot6ObjectC2EPKc
0000000000000d04 t __ZN5godot6ObjectC2EPv
0000000000000d8c t __ZN5godot6ObjectD0Ev
0000000000000d60 t __ZN5godot6ObjectD1Ev
0000000000000dbc t __ZN5godot6ObjectD2Ev
00000000000cac64 t __ZN5godot6Rect2iC1Ev
00000000000cd070 t __ZN5godot6Rect2iC2Ev
0000000000001a88 t __ZN5godot6Shader16get_class_staticEv
00000000001cc180 s __ZN5godot6Shader22_gde_binding_callbacksE
0000000000001b5c t __ZN5godot6Shader26_gde_binding_free_callbackEPvS1_S1_
0000000000001b18 t __ZN5godot6Shader28_gde_binding_create_callbackEPvS1_
0000000000001ba0 t __ZN5godot6Shader31_gde_binding_reference_callbackEPvS1_h
00000000001d0230 d __ZN5godot6Shader37_gde_engine_class_registration_helperE
0000000000001bbc t __ZN5godot6ShaderC1EPv
0000000000001bf0 t __ZN5godot6ShaderC2EPv
0000000000001c60 t __ZN5godot6ShaderD0Ev
0000000000001c34 t __ZN5godot6ShaderD1Ev
0000000000001c90 t __ZN5godot6ShaderD2Ev
00000000000eeb50 t __ZN5godot6Signal10disconnectERKNS_8CallableE
00000000000ee070 t __ZN5godot6Signal13init_bindingsEv
00000000001d7bb0 s __ZN5godot6Signal16_method_bindingsE
00000000000edfa4 t __ZN5godot6Signal38_init_bindings_constructors_destructorEv
00000000000eea88 t __ZN5godot6Signal7connectERKNS_8CallableEx
00000000000ee920 t __ZN5godot6SignalC1EOS0_
00000000000ee608 t __ZN5godot6SignalC1EPKNS_7VariantE
00000000000ee87c t __ZN5godot6SignalC1EPNS_6ObjectERKNS_10StringNameE
00000000000ee79c t __ZN5godot6SignalC1ERKS0_
00000000000ee6a8 t __ZN5godot6SignalC1Ev
00000000000ee8b8 t __ZN5godot6SignalC2EOS0_
00000000000ee590 t __ZN5godot6SignalC2EPKNS_7VariantE
00000000000ee7d0 t __ZN5godot6SignalC2EPNS_6ObjectERKNS_10StringNameE
00000000000ee6d4 t __ZN5godot6SignalC2ERKS0_
00000000000ee63c t __ZN5godot6SignalC2Ev
00000000000ee98c t __ZN5godot6SignalD1Ev
00000000000ee954 t __ZN5godot6SignalD2Ev
00000000000eee84 t __ZN5godot6SignalaSEOS0_
00000000000eee30 t __ZN5godot6SignalaSERKS0_
00000000000e3f94 t __ZN5godot6String10num_uint64Exxb
00000000000d6c6c t __ZN5godot6String10parse_utf8EPKcx
00000000000d6d44 t __ZN5godot6String11parse_utf16EPKDsxb
00000000000e4098 t __ZN5godot6String13humanize_sizeEx
00000000000ddba0 t __ZN5godot6String13init_bindingsEv
00000000000e3bd4 t __ZN5godot6String14num_scientificEd
00000000001d6ed8 s __ZN5godot6String16_method_bindingsE
00000000000ddab4 t __ZN5godot6String38_init_bindings_constructors_destructorEv
00000000000e4040 t __ZN5godot6String3chrEx
00000000000e3ce0 t __ZN5godot6String3numEdx
00000000000d8bac t __ZN5godot6String4ptrwEv
00000000000d6be4 t __ZN5godot6String4utf8EPKcx
00000000000d6cb4 t __ZN5godot6String5utf16EPKDsx
00000000000d8124 t __ZN5godot6String6resizeEx
00000000000d6d98 t __ZN5godot6String8num_realEdb
00000000000e3e1c t __ZN5godot6String9num_int64Exxb
00000000000e1030 t __ZN5godot6StringC1EOS0_
00000000000d6bb0 t __ZN5godot6StringC1EPKDi
00000000000d6b00 t __ZN5godot6StringC1EPKDs
00000000000e0b4c t __ZN5godot6StringC1EPKNS_7VariantE
00000000000d69a0 t __ZN5godot6StringC1EPKc
00000000000d6a50 t __ZN5godot6StringC1EPKw
00000000000e0e30 t __ZN5godot6StringC1ERKNS_10StringNameE
00000000000e0f2c t __ZN5godot6StringC1ERKNS_8NodePathE
00000000000e0d34 t __ZN5godot6StringC1ERKS0_
00000000000e0c40 t __ZN5godot6StringC1Ev
00000000000e0f60 t __ZN5godot6StringC2EOS0_
00000000000d6b34 t __ZN5godot6StringC2EPKDi
00000000000d6a84 t __ZN5godot6StringC2EPKDs
00000000000e0ad4 t __ZN5godot6StringC2EPKNS_7VariantE
00000000000d6924 t __ZN5godot6StringC2EPKc
00000000000d69d4 t __ZN5godot6StringC2EPKw
00000000000e0d68 t __ZN5godot6StringC2ERKNS_10StringNameE
00000000000e0e64 t __ZN5godot6StringC2ERKNS_8NodePathE
00000000000e0c6c t __ZN5godot6StringC2ERKS0_
00000000000e0b80 t __ZN5godot6StringC2Ev
00000000000e109c t __ZN5godot6StringD1Ev
00000000000e1064 t __ZN5godot6StringD2Ev
00000000000e4f68 t __ZN5godot6StringaSEOS0_
00000000000d82e4 t __ZN5godot6StringaSEPKDi
00000000000d8264 t __ZN5godot6StringaSEPKDs
00000000000d8164 t __ZN5godot6StringaSEPKc
00000000000d81e4 t __ZN5godot6StringaSEPKw
00000000000e4f14 t __ZN5godot6StringaSERKS0_
00000000000d8b40 t __ZN5godot6StringixEx
00000000000d8a08 t __ZN5godot6StringpLEDi
00000000000d8ac8 t __ZN5godot6StringpLEPKDi
00000000000d8a48 t __ZN5godot6StringpLEPKc
00000000000d8a88 t __ZN5godot6StringpLEPKw
00000000000d89c8 t __ZN5godot6StringpLERKS0_
00000000000d893c t __ZN5godot6StringplEDi
00000000000d88b4 t __ZN5godot6StringplEPKDi
00000000000d882c t __ZN5godot6StringplEPKDs
00000000000d6ec4 t __ZN5godot6StringplEPKc
00000000000d87a4 t __ZN5godot6StringplEPKw
000000000005f17c t __ZN5godot6VectorINS_10StringNameEE6resizeEx
000000000005feac t __ZN5godot6VectorINS_10StringNameEE8IteratorC1EPS1_
000000000005fee0 t __ZN5godot6VectorINS_10StringNameEE8IteratorC2EPS1_
000000000005e36c t __ZN5godot6VectorINS_10StringNameEE9push_backES1_
000000000005e858 t __ZN5godot6VectorINS_10StringNameEE9remove_atEx
000000000005e070 t __ZN5godot6VectorINS_10StringNameEED1Ev
00000000001a1d44 t __ZN5godot6Window10grab_focusEv
000000000019f144 t __ZN5godot6Window10reset_sizeEv
00000000001a1ec0 t __ZN5godot6Window10start_dragEv
00000000001a07c0 t __ZN5godot6Window11set_visibleEb
000000000019f5e8 t __ZN5godot6Window12set_max_sizeERKNS_8Vector2iE
000000000019f908 t __ZN5godot6Window12set_min_sizeERKNS_8Vector2iE
000000000019e988 t __ZN5godot6Window12set_positionERKNS_8Vector2iE
00000000001a203c t __ZN5godot6Window12start_resizeENS_13DisplayServer16WindowResizeEdgeE
00000000001a14d8 t __ZN5godot6Window13set_exclusiveEb
00000000001a0e18 t __ZN5godot6Window13set_transientEb
000000000019eca8 t __ZN5godot6Window14move_to_centerEv
00000000001a9a44 t __ZN5godot6Window14popup_centeredERKNS_8Vector2iE
00000000001a21e4 t __ZN5godot6Window14set_ime_activeEb
00000000001a9fb8 t __ZN5godot6Window15popup_exclusiveEPNS_4NodeERKNS_6Rect2iE
00000000001a98b8 t __ZN5godot6Window15popup_on_parentERKNS_6Rect2iE
00000000001810a4 t __ZN5godot6Window16get_class_staticEv
00000000001a28c8 t __ZN5godot6Window16set_force_nativeEb
00000000001a2398 t __ZN5godot6Window16set_ime_positionERKNS_8Vector2iE
00000000001a04c8 t __ZN5godot6Window17request_attentionEv
00000000001a4750 t __ZN5godot6Window17set_wrap_controlsEb
00000000001a0644 t __ZN5godot6Window18move_to_foregroundEv
00000000001a935c t __ZN5godot6Window18set_auto_translateEb
000000000019e64c t __ZN5godot6Window18set_current_screenEi
00000000001a9bd0 t __ZN5godot6Window20popup_centered_ratioEf
000000000019e310 t __ZN5godot6Window20set_initial_positionENS0_21WindowInitialPositionE
00000000001a8e74 t __ZN5godot6Window20set_layout_directionENS0_15LayoutDirectionE
00000000001ce168 s __ZN5godot6Window22_gde_binding_callbacksE
00000000001a4ab0 t __ZN5godot6Window22child_controls_changedEv
00000000001a9d7c t __ZN5godot6Window22popup_centered_clampedERKNS_8Vector2iEf
00000000001a2f48 t __ZN5godot6Window22set_content_scale_modeENS0_16ContentScaleModeE
00000000001a2c28 t __ZN5godot6Window22set_content_scale_sizeERKNS_8Vector2iE
00000000001a38fc t __ZN5godot6Window22set_keep_title_visibleEb
00000000001a59ac t __ZN5godot6Window23add_theme_font_overrideERKNS_10StringNameERKNS_3RefINS_4FontEEE
00000000001a55bc t __ZN5godot6Window23add_theme_icon_overrideERKNS_10StringNameERKNS_3RefINS_9Texture2DEEE
00000000001a5440 t __ZN5godot6Window23end_bulk_theme_overrideEv
00000000001a5d5c t __ZN5godot6Window24add_theme_color_overrideERKNS_10StringNameERKNS_5ColorE
00000000001aa3e0 t __ZN5godot6Window24popup_exclusive_centeredEPNS_4NodeERKNS_8Vector2iE
00000000001a3284 t __ZN5godot6Window24set_content_scale_aspectENS0_18ContentScaleAspectE
00000000001a3c5c t __ZN5godot6Window24set_content_scale_factorEf
00000000001a4fa8 t __ZN5godot6Window24set_theme_type_variationERKNS_10StringNameE
00000000001a1178 t __ZN5godot6Window24set_transient_to_focusedEb
00000000001a52c4 t __ZN5godot6Window25begin_bulk_theme_overrideEv
00000000001aa20c t __ZN5godot6Window25popup_exclusive_on_parentEPNS_4NodeERKNS_6Rect2iE
00000000001a35c0 t __ZN5godot6Window25set_content_scale_stretchENS0_19ContentScaleStretchE
00000000001a3fa0 t __ZN5godot6Window25set_use_font_oversamplingEb
0000000000181178 t __ZN5godot6Window26_gde_binding_free_callbackEPvS1_S1_
00000000001a63c8 t __ZN5godot6Window26remove_theme_font_overrideERKNS_10StringNameE
00000000001a60b0 t __ZN5godot6Window26remove_theme_icon_overrideERKNS_10StringNameE
00000000001a5ef8 t __ZN5godot6Window27add_theme_constant_overrideERKNS_10StringNameEi
00000000001a57b4 t __ZN5godot6Window27add_theme_stylebox_overrideERKNS_10StringNameERKNS_3RefINS_8StyleBoxEEE
00000000001a66e0 t __ZN5godot6Window27remove_theme_color_overrideERKNS_10StringNameE
00000000001a1838 t __ZN5godot6Window27set_unparent_when_invisibleEb
0000000000181134 t __ZN5godot6Window28_gde_binding_create_callbackEPvS1_
00000000001a5ba4 t __ZN5godot6Window28add_theme_font_size_overrideERKNS_10StringNameEi
00000000001a4300 t __ZN5godot6Window29set_mouse_passthrough_polygonERKNS_18PackedVector2ArrayE
00000000001aa634 t __ZN5godot6Window30popup_exclusive_centered_ratioEPNS_4NodeEf
00000000001a686c t __ZN5godot6Window30remove_theme_constant_overrideERKNS_10StringNameE
00000000001a623c t __ZN5godot6Window30remove_theme_stylebox_overrideERKNS_10StringNameE
00000000001811bc t __ZN5godot6Window31_gde_binding_reference_callbackEPvS1_h
00000000001a6554 t __ZN5godot6Window31remove_theme_font_size_overrideERKNS_10StringNameE
00000000001aa8a8 t __ZN5godot6Window32popup_exclusive_centered_clampedEPNS_4NodeERKNS_8Vector2iEf
00000000001d0c48 d __ZN5godot6Window37_gde_engine_class_registration_helperE
00000000001a0b20 t __ZN5godot6Window4hideEv
00000000001a0c9c t __ZN5godot6Window4showEv
00000000001a96bc t __ZN5godot6Window5popupERKNS_6Rect2iE
000000000019ff64 t __ZN5godot6Window8set_flagENS0_5FlagsEb
000000000019fc28 t __ZN5godot6Window8set_modeENS0_4ModeE
000000000019ee24 t __ZN5godot6Window8set_sizeERKNS_8Vector2iE
00000000001a4c2c t __ZN5godot6Window9set_themeERKNS_3RefINS_5ThemeEEE
000000000019de60 t __ZN5godot6Window9set_titleERKNS_6StringE
00000000001811d8 t __ZN5godot6WindowC1EPv
000000000018120c t __ZN5godot6WindowC2EPv
00000000001aabdc t __ZN5godot6WindowD0Ev
00000000001aabb0 t __ZN5godot6WindowD1Ev
00000000001aac0c t __ZN5godot6WindowD2Ev
000000000002b01c t __ZN5godot7BoxMesh16get_class_staticEv
000000000010ff88 t __ZN5godot7BoxMesh19set_subdivide_depthEi
000000000010f910 t __ZN5godot7BoxMesh19set_subdivide_widthEi
000000000010fc4c t __ZN5godot7BoxMesh20set_subdivide_heightEi
00000000001cce90 s __ZN5godot7BoxMesh22_gde_binding_callbacksE
000000000002b0f0 t __ZN5godot7BoxMesh26_gde_binding_free_callbackEPvS1_S1_
000000000002b0ac t __ZN5godot7BoxMesh28_gde_binding_create_callbackEPvS1_
000000000002b134 t __ZN5godot7BoxMesh31_gde_binding_reference_callbackEPvS1_h
00000000001d0500 d __ZN5godot7BoxMesh37_gde_engine_class_registration_helperE
000000000010f438 t __ZN5godot7BoxMesh8set_sizeERKNS_7Vector3E
000000000002feb8 t __ZN5godot7BoxMeshC1EPKc
000000000002b150 t __ZN5godot7BoxMeshC1EPv
000000000002fe50 t __ZN5godot7BoxMeshC1Ev
000000000002feec t __ZN5godot7BoxMeshC2EPKc
000000000002b184 t __ZN5godot7BoxMeshC2EPv
000000000002b1f4 t __ZN5godot7BoxMeshD0Ev
000000000002b1c8 t __ZN5godot7BoxMeshD1Ev
000000000002b224 t __ZN5godot7BoxMeshD2Ev
0000000000064c98 t __ZN5godot7ClassDB10add_signalERKNS_10StringNameERKNS_10MethodInfoE
000000000006308c t __ZN5godot7ClassDB10get_methodERKNS_10StringNameES3_
0000000000066a94 t __ZN5godot7ClassDB10initializeE30GDExtensionInitializationLevel
00000000000124cc t __ZN5godot7ClassDB11bind_methodINS_16MethodDefinitionEM13MinecraftNodeFvRKNS_3RefINS_8MaterialEEEEJEEEPNS_10MethodBindET_T0_DpT1_
0000000000012a9c t __ZN5godot7ClassDB11bind_methodINS_16MethodDefinitionEM13MinecraftNodeFvdEJEEEPNS_10MethodBindET_T0_DpT1_
00000000000121cc t __ZN5godot7ClassDB11bind_methodINS_16MethodDefinitionEM13MinecraftNodeFvfEJEEEPNS_10MethodBindET_T0_DpT1_
0000000000011ea0 t __ZN5godot7ClassDB11bind_methodINS_16MethodDefinitionEM13MinecraftNodeFviEJEEEPNS_10MethodBindET_T0_DpT1_
00000000000127c8 t __ZN5godot7ClassDB11bind_methodINS_16MethodDefinitionEM13MinecraftNodeFvvEJEEEPNS_10MethodBindET_T0_DpT1_
000000000001264c t __ZN5godot7ClassDB11bind_methodINS_16MethodDefinitionEM13MinecraftNodeKFNS_3RefINS_8MaterialEEEvEJEEEPNS_10MethodBindET_T0_DpT1_
0000000000012334 t __ZN5godot7ClassDB11bind_methodINS_16MethodDefinitionEM13MinecraftNodeKFfvEJEEEPNS_10MethodBindET_T0_DpT1_
0000000000012034 t __ZN5godot7ClassDB11bind_methodINS_16MethodDefinitionEM13MinecraftNodeKFivEJEEEPNS_10MethodBindET_T0_DpT1_
0000000000062514 t __ZN5godot7ClassDB12add_propertyERKNS_10StringNameERKNS_12PropertyInfoES3_S3_i
0000000000066c90 t __ZN5godot7ClassDB12deinitializeE30GDExtensionInitializationLevel
000000000006359c t __ZN5godot7ClassDB13bind_methodfiEjPNS_10MethodBindERKNS_16MethodDefinitionEPPKvi
00000000001d6b28 s __ZN5godot7ClassDB13current_levelE
0000000000000a7c t __ZN5godot7ClassDB14register_classI13MinecraftNodeEEvb
00000000000033b8 t __ZN5godot7ClassDB15_register_classI13MinecraftNodeLb0EEEvbbb
0000000000065ba8 t __ZN5godot7ClassDB16get_parent_classERKNS_10StringNameE
0000000000065528 t __ZN5godot7ClassDB16get_virtual_funcEPvPKvj
0000000000066a84 t __ZN5godot7ClassDB16initialize_classERKNS0_9ClassInfoE
00000000000641f0 t __ZN5godot7ClassDB17bind_method_godotERKNS_10StringNameEPNS_10MethodBindE
00000000001d6b00 s __ZN5godot7ClassDB17engine_singletonsE
000000000006201c t __ZN5godot7ClassDB18add_property_groupERKNS_10StringNameERKNS_6StringES6_
00000000000660f8 t __ZN5godot7ClassDB18add_virtual_methodERKNS_10StringNameERKNS_10MethodInfoERKNS_6VectorIS1_EE
0000000000065c08 t __ZN5godot7ClassDB19bind_virtual_methodERKNS_10StringNameES3_PFvPvPKPKvS4_Ej
00000000001d6ae8 s __ZN5godot7ClassDB20class_register_orderE
000000000000452c t __ZN5godot7ClassDB21_create_instance_funcI13MinecraftNodeEEPvS3_h
000000000006231c t __ZN5godot7ClassDB21add_property_subgroupERKNS_10StringNameERKNS_6StringES6_
00000000000651f4 t __ZN5godot7ClassDB21bind_integer_constantERKNS_10StringNameES3_S3_xb
000000000000460c t __ZN5godot7ClassDB23_recreate_instance_funcI13MinecraftNodeEEPvS3_S3_
00000000001d0628 d __ZN5godot7ClassDB23engine_singletons_mutexE
000000000012142c t __ZN5godot7ClassDB26_register_engine_singletonERKNS_10StringNameEPNS_6ObjectE
00000000001d6ac0 s __ZN5godot7ClassDB26instance_binding_callbacksE
00000000001215c0 t __ZN5godot7ClassDB28_unregister_engine_singletonERKNS_10StringNameE
0000000000065858 t __ZN5godot7ClassDB30get_instance_binding_callbacksERKNS_10StringNameE
00000000001d6a98 s __ZN5godot7ClassDB7classesE
000000000006ae5c t __ZN5godot7ClassDB9ClassInfoC1ERKS1_
00000000000037ac t __ZN5godot7ClassDB9ClassInfoC1Ev
000000000006ae90 t __ZN5godot7ClassDB9ClassInfoC2ERKS1_
0000000000006980 t __ZN5godot7ClassDB9ClassInfoC2Ev
0000000000004760 t __ZN5godot7ClassDB9ClassInfoD1Ev
000000000001a3b8 t __ZN5godot7ClassDB9ClassInfoD2Ev
0000000000003980 t __ZN5godot7ClassDB9ClassInfoaSERKS1_
0000000000136cc4 t __ZN5godot7Control10_drop_dataERKNS_7Vector2ERKNS_7VariantE
0000000000136cf4 t __ZN5godot7Control10_gui_inputERKNS_3RefINS_10InputEventEEE
00000000001344d8 t __ZN5godot7Control10force_dragERKNS_7VariantEPS0_
000000000012c444 t __ZN5godot7Control10grab_focusEv
00000000001298d8 t __ZN5godot7Control10reset_sizeEv
0000000000128530 t __ZN5godot7Control10set_anchorENS_4SideEfbb
0000000000128a4c t __ZN5godot7Control10set_offsetENS_4SideEf
0000000000135850 t __ZN5godot7Control10warp_mouseERKNS_7Vector2E
0000000000127954 t __ZN5godot7Control12accept_eventEv
00000000001294d0 t __ZN5godot7Control12set_positionERKNS_7Vector2Eb
0000000000129da4 t __ZN5godot7Control12set_rotationEf
000000000012c5c0 t __ZN5godot7Control13release_focusEv
0000000000136c6c t __ZN5godot7Control14_get_drag_dataERKNS_7Vector2E
000000000012bf5c t __ZN5godot7Control14set_focus_modeENS0_9FocusModeE
0000000000133d6c t __ZN5godot7Control14set_focus_nextERKNS_8NodePathE
0000000000002d00 t __ZN5godot7Control16get_class_staticEv
0000000000135128 t __ZN5godot7Control16grab_click_focusEv
00000000001354e0 t __ZN5godot7Control16set_drag_previewEPS0_
000000000012cd5c t __ZN5godot7Control16set_h_size_flagsENS_8BitFieldINS0_9SizeFlagsEEE
000000000013472c t __ZN5godot7Control16set_mouse_filterENS0_11MouseFilterE
000000000012a2f8 t __ZN5godot7Control16set_pivot_offsetERKNS_7Vector2E
0000000000132dd8 t __ZN5godot7Control16set_tooltip_textERKNS_6StringE
000000000012d47c t __ZN5godot7Control16set_v_size_flagsENS_8BitFieldINS0_9SizeFlagsEEE
0000000000134dc8 t __ZN5godot7Control17set_clip_contentsEb
000000000012d138 t __ZN5godot7Control17set_stretch_ratioEf
0000000000127ec0 t __ZN5godot7Control18set_anchors_presetENS0_12LayoutPresetEb
0000000000136434 t __ZN5godot7Control18set_auto_translateEb
00000000001338b0 t __ZN5godot7Control18set_focus_neighborENS_4SideERKNS_8NodePathE
00000000001341bc t __ZN5godot7Control18set_focus_previousERKNS_8NodePathE
00000000001280a0 t __ZN5godot7Control18set_offsets_presetENS0_12LayoutPresetENS0_16LayoutPresetModeEi
00000000001352a4 t __ZN5godot7Control19set_drag_forwardingERKNS_8CallableES3_S3_
0000000000129be0 t __ZN5godot7Control19set_global_positionERKNS_7Vector2Eb
0000000000135dd0 t __ZN5godot7Control19update_minimum_sizeEv
0000000000134f7c t __ZN5godot7Control20is_clipping_contentsEv
0000000000132424 t __ZN5godot7Control20set_h_grow_directionENS0_13GrowDirectionE
0000000000135f4c t __ZN5godot7Control20set_layout_directionENS0_15LayoutDirectionE
0000000000129fc0 t __ZN5godot7Control20set_rotation_degreesEf
00000000001359dc t __ZN5godot7Control20set_shortcut_contextEPNS_4NodeE
0000000000132760 t __ZN5godot7Control20set_v_grow_directionENS0_13GrowDirectionE
0000000000128e68 t __ZN5godot7Control21set_anchor_and_offsetENS_4SideEffb
00000000001cc3d0 s __ZN5godot7Control22_gde_binding_callbacksE
000000000012e7f8 t __ZN5godot7Control23add_theme_font_overrideERKNS_10StringNameERKNS_3RefINS_4FontEEE
000000000012e388 t __ZN5godot7Control23add_theme_icon_overrideERKNS_10StringNameERKNS_3RefINS_9Texture2DEEE
000000000012e20c t __ZN5godot7Control23end_bulk_theme_overrideEv
0000000000129a54 t __ZN5godot7Control23set_custom_minimum_sizeERKNS_7Vector2E
000000000012ec28 t __ZN5godot7Control24add_theme_color_overrideERKNS_10StringNameERKNS_5ColorE
000000000013335c t __ZN5godot7Control24set_default_cursor_shapeENS0_11CursorShapeE
000000000012dcb0 t __ZN5godot7Control24set_theme_type_variationERKNS_10StringNameE
000000000012e090 t __ZN5godot7Control25begin_bulk_theme_overrideEv
0000000000002dd4 t __ZN5godot7Control26_gde_binding_free_callbackEPvS1_S1_
000000000012f314 t __ZN5godot7Control26remove_theme_font_overrideERKNS_10StringNameE
000000000012effc t __ZN5godot7Control26remove_theme_icon_overrideERKNS_10StringNameE
000000000012ee44 t __ZN5godot7Control27add_theme_constant_overrideERKNS_10StringNameEi
000000000012e600 t __ZN5godot7Control27add_theme_stylebox_overrideERKNS_10StringNameERKNS_3RefINS_8StyleBoxEEE
000000000012f62c t __ZN5godot7Control27remove_theme_color_overrideERKNS_10StringNameE
0000000000136794 t __ZN5godot7Control27set_localize_numeral_systemEb
0000000000002d90 t __ZN5godot7Control28_gde_binding_create_callbackEPvS1_
000000000012e9f0 t __ZN5godot7Control28add_theme_font_size_overrideERKNS_10StringNameEi
0000000000134a68 t __ZN5godot7Control28set_force_pass_scroll_eventsEb
000000000012f7b8 t __ZN5godot7Control30remove_theme_constant_overrideERKNS_10StringNameE
000000000012f188 t __ZN5godot7Control30remove_theme_stylebox_overrideERKNS_10StringNameE
0000000000128330 t __ZN5godot7Control30set_anchors_and_offsets_presetENS0_12LayoutPresetENS0_16LayoutPresetModeEi
0000000000002e18 t __ZN5godot7Control31_gde_binding_reference_callbackEPvS1_h
000000000012f4a0 t __ZN5godot7Control31remove_theme_font_size_overrideERKNS_10StringNameE
0000000000132a9c t __ZN5godot7Control31set_tooltip_auto_translate_modeENS_4Node17AutoTranslateModeE
00000000001d02b0 d __ZN5godot7Control37_gde_engine_class_registration_helperE
0000000000129344 t __ZN5godot7Control7set_endERKNS_7Vector2E
0000000000129714 t __ZN5godot7Control8set_sizeERKNS_7Vector2Eb
0000000000129148 t __ZN5godot7Control9set_beginERKNS_7Vector2E
000000000012a16c t __ZN5godot7Control9set_scaleERKNS_7Vector2E
000000000012d7e8 t __ZN5godot7Control9set_themeERKNS_3RefINS_5ThemeEEE
0000000000002e34 t __ZN5godot7ControlC1EPv
0000000000002e68 t __ZN5godot7ControlC2EPv
0000000000136d34 t __ZN5godot7ControlD0Ev
0000000000136d08 t __ZN5godot7ControlD1Ev
0000000000003360 t __ZN5godot7ControlD2Ev
00000000000da8c0 t __ZN5godot7CowDataIDiE14_copy_on_writeEv
00000000000d4584 t __ZN5godot7CowDataIDiE4_refERKS1_
00000000000d9aac t __ZN5godot7CowDataIDiE6_unrefEPv
00000000000d3764 t __ZN5godot7CowDataIDiE6resizeILb0EEENS_5ErrorEx
00000000000da5f4 t __ZN5godot7CowDataIDsE14_copy_on_writeEv
00000000000d2c00 t __ZN5godot7CowDataIDsE4_refERKS1_
00000000000d99b0 t __ZN5godot7CowDataIDsE6_unrefEPv
00000000000d1ddc t __ZN5godot7CowDataIDsE6resizeILb0EEENS_5ErrorEx
000000000005fa1c t __ZN5godot7CowDataINS_10StringNameEE14_copy_on_writeEv
000000000005ecf0 t __ZN5godot7CowDataINS_10StringNameEE6_unrefEPv
000000000005f1ac t __ZN5godot7CowDataINS_10StringNameEE6resizeILb0EEENS_5ErrorEx
00000000000d9c64 t __ZN5godot7CowDataIcE14_copy_on_writeEv
00000000000d12d8 t __ZN5godot7CowDataIcE4_refERKS1_
000000000001ffa8 t __ZN5godot7CowDataIcE6_unrefEPv
00000000000d04bc t __ZN5godot7CowDataIcE6resizeILb0EEENS_5ErrorEx
00000000000dab8c t __ZN5godot7CowDataIwE14_copy_on_writeEv
00000000000d5f04 t __ZN5godot7CowDataIwE4_refERKS1_
00000000000d9ba8 t __ZN5godot7CowDataIwE6_unrefEPv
00000000000d50e4 t __ZN5godot7CowDataIwE6resizeILb0EEENS_5ErrorEx
000000000016e37c t __ZN5godot7Shape3D16get_class_staticEv
00000000001cdc78 s __ZN5godot7Shape3D22_gde_binding_callbacksE
000000000016e450 t __ZN5godot7Shape3D26_gde_binding_free_callbackEPvS1_S1_
000000000016e40c t __ZN5godot7Shape3D28_gde_binding_create_callbackEPvS1_
000000000016e494 t __ZN5godot7Shape3D31_gde_binding_reference_callbackEPvS1_h
00000000001d0b20 d __ZN5godot7Shape3D37_gde_engine_class_registration_helperE
000000000016e4b0 t __ZN5godot7Shape3DC1EPv
000000000016e4e4 t __ZN5godot7Shape3DC2EPv
000000000016e554 t __ZN5godot7Shape3DD0Ev
000000000016e528 t __ZN5godot7Shape3DD1Ev
000000000016e584 t __ZN5godot7Shape3DD2Ev
0000000000002678 t __ZN5godot7Texture16get_class_staticEv
00000000001cc328 s __ZN5godot7Texture22_gde_binding_callbacksE
000000000000274c t __ZN5godot7Texture26_gde_binding_free_callbackEPvS1_S1_
0000000000002708 t __ZN5godot7Texture28_gde_binding_create_callbackEPvS1_
0000000000002790 t __ZN5godot7Texture31_gde_binding_reference_callbackEPvS1_h
00000000001d0280 d __ZN5godot7Texture37_gde_engine_class_registration_helperE
00000000000027ac t __ZN5godot7TextureC1EPv
00000000000027e0 t __ZN5godot7TextureC2EPv
0000000000002850 t __ZN5godot7TextureD0Ev
0000000000002824 t __ZN5godot7TextureD1Ev
0000000000002880 t __ZN5godot7TextureD2Ev
00000000000ccad4 t __ZN5godot7Variant10has_memberENS0_4TypeERKNS_10StringNameE
00000000000cce9c t __ZN5godot7Variant11can_convertENS0_4TypeES1_
00000000000cc238 t __ZN5godot7Variant11set_indexedExRKS0_RbS3_
00000000000cc0bc t __ZN5godot7Variant12callp_staticENS0_4TypeERKNS_10StringNameEPPKS0_iRS0_R20GDExtensionCallError
00000000000cce08 t __ZN5godot7Variant13get_type_nameENS0_4TypeE
00000000000c8560 t __ZN5godot7Variant13init_bindingsEv
00000000000ccef0 t __ZN5godot7Variant18can_convert_strictENS0_4TypeES1_
00000000001d6da0 s __ZN5godot7Variant19to_type_constructorE
00000000001d6c68 s __ZN5godot7Variant21from_type_constructorE
00000000000cc124 t __ZN5godot7Variant3setERKS0_S2_Pb
00000000000cc04c t __ZN5godot7Variant5callpERKNS_10StringNameEPPKS0_iRS0_R20GDExtensionCallError
00000000000cbc04 t __ZN5godot7Variant5clearEv
00000000000cbda8 t __ZN5godot7Variant8evaluateERKNS0_8OperatorERKS0_S5_RS0_Rb
00000000000cc2e0 t __ZN5godot7Variant9set_keyedERKS0_S2_Rb
00000000000cc1b4 t __ZN5godot7Variant9set_namedERKNS_10StringNameERKS0_Rb
00000000000c8944 t __ZN5godot7VariantC1EOS0_
00000000000c9ba4 t __ZN5godot7VariantC1EPKNS_6ObjectE
000000000001d9e0 t __ZN5godot7VariantC1EPKc
00000000000c8770 t __ZN5godot7VariantC1EPKv
00000000000c9ed8 t __ZN5godot7VariantC1ERKNS_10DictionaryE
00000000000c97a4 t __ZN5godot7VariantC1ERKNS_10ProjectionE
00000000000c94b4 t __ZN5godot7VariantC1ERKNS_10QuaternionE
00000000000c9924 t __ZN5godot7VariantC1ERKNS_10StringNameE
00000000000c91c4 t __ZN5godot7VariantC1ERKNS_11Transform2DE
00000000000c96e8 t __ZN5godot7VariantC1ERKNS_11Transform3DE
00000000000ca060 t __ZN5godot7VariantC1ERKNS_15PackedByteArrayE
00000000000ca680 t __ZN5godot7VariantC1ERKNS_16PackedColorArrayE
00000000000ca124 t __ZN5godot7VariantC1ERKNS_16PackedInt32ArrayE
00000000000ca1e8 t __ZN5godot7VariantC1ERKNS_16PackedInt64ArrayE
00000000000ca434 t __ZN5godot7VariantC1ERKNS_17PackedStringArrayE
00000000000ca2ac t __ZN5godot7VariantC1ERKNS_18PackedFloat32ArrayE
00000000000ca370 t __ZN5godot7VariantC1ERKNS_18PackedFloat64ArrayE
00000000000ca4f8 t __ZN5godot7VariantC1ERKNS_18PackedVector2ArrayE
00000000000ca5bc t __ZN5godot7VariantC1ERKNS_18PackedVector3ArrayE
00000000000ca744 t __ZN5godot7VariantC1ERKNS_18PackedVector4ArrayE
00000000000c9aac t __ZN5godot7VariantC1ERKNS_3RIDE
00000000000c9570 t __ZN5godot7VariantC1ERKNS_4AABBE
00000000000c9f9c t __ZN5godot7VariantC1ERKNS_5ArrayE
00000000000c962c t __ZN5godot7VariantC1ERKNS_5BasisE
00000000000c9860 t __ZN5godot7VariantC1ERKNS_5ColorE
00000000000c93f8 t __ZN5godot7VariantC1ERKNS_5PlaneE
00000000000c8ed4 t __ZN5godot7VariantC1ERKNS_5Rect2E
00000000000c8f90 t __ZN5godot7VariantC1ERKNS_6Rect2iE
00000000000c9e14 t __ZN5godot7VariantC1ERKNS_6SignalE
00000000000c8ca0 t __ZN5godot7VariantC1ERKNS_6StringE
00000000000c8d5c t __ZN5godot7VariantC1ERKNS_7Vector2E
00000000000c904c t __ZN5godot7VariantC1ERKNS_7Vector3E
00000000000c9280 t __ZN5godot7VariantC1ERKNS_7Vector4E
00000000000c9d50 t __ZN5godot7VariantC1ERKNS_8CallableE
00000000000c99e8 t __ZN5godot7VariantC1ERKNS_8NodePathE
00000000000c9c4c t __ZN5godot7VariantC1ERKNS_8ObjectIDE
00000000000c8e18 t __ZN5godot7VariantC1ERKNS_8Vector2iE
00000000000c9108 t __ZN5godot7VariantC1ERKNS_8Vector3iE
00000000000c933c t __ZN5godot7VariantC1ERKNS_8Vector4iE
00000000000c8834 t __ZN5godot7VariantC1ERKS0_
00000000000c8a28 t __ZN5godot7VariantC1Eb
00000000000c8bdc t __ZN5godot7VariantC1Ed
000000000001658c t __ZN5godot7VariantC1Ef
0000000000014dd8 t __ZN5godot7VariantC1Ei
00000000000781d8 t __ZN5godot7VariantC1Ej
00000000000c86bc t __ZN5godot7VariantC1Ev
00000000000c8b04 t __ZN5godot7VariantC1Ex
00000000000c9c8c t __ZN5godot7VariantC1Ey
00000000000c8868 t __ZN5godot7VariantC2EOS0_
00000000000c9ae0 t __ZN5godot7VariantC2EPKNS_6ObjectE
00000000000c86e8 t __ZN5godot7VariantC2EPKv
00000000000c9e48 t __ZN5godot7VariantC2ERKNS_10DictionaryE
00000000000c971c t __ZN5godot7VariantC2ERKNS_10ProjectionE
00000000000c942c t __ZN5godot7VariantC2ERKNS_10QuaternionE
00000000000c9894 t __ZN5godot7VariantC2ERKNS_10StringNameE
00000000000c913c t __ZN5godot7VariantC2ERKNS_11Transform2DE
00000000000c9660 t __ZN5godot7VariantC2ERKNS_11Transform3DE
00000000000c9fd0 t __ZN5godot7VariantC2ERKNS_15PackedByteArrayE
00000000000ca5f0 t __ZN5godot7VariantC2ERKNS_16PackedColorArrayE
00000000000ca094 t __ZN5godot7VariantC2ERKNS_16PackedInt32ArrayE
00000000000ca158 t __ZN5godot7VariantC2ERKNS_16PackedInt64ArrayE
00000000000ca3a4 t __ZN5godot7VariantC2ERKNS_17PackedStringArrayE
00000000000ca21c t __ZN5godot7VariantC2ERKNS_18PackedFloat32ArrayE
00000000000ca2e0 t __ZN5godot7VariantC2ERKNS_18PackedFloat64ArrayE
00000000000ca468 t __ZN5godot7VariantC2ERKNS_18PackedVector2ArrayE
00000000000ca52c t __ZN5godot7VariantC2ERKNS_18PackedVector3ArrayE
00000000000ca6b4 t __ZN5godot7VariantC2ERKNS_18PackedVector4ArrayE
00000000000c9a1c t __ZN5godot7VariantC2ERKNS_3RIDE
00000000000c94e8 t __ZN5godot7VariantC2ERKNS_4AABBE
00000000000c9f0c t __ZN5godot7VariantC2ERKNS_5ArrayE
00000000000c95a4 t __ZN5godot7VariantC2ERKNS_5BasisE
00000000000c97d8 t __ZN5godot7VariantC2ERKNS_5ColorE
00000000000c9370 t __ZN5godot7VariantC2ERKNS_5PlaneE
00000000000c8e4c t __ZN5godot7VariantC2ERKNS_5Rect2E
00000000000c8f08 t __ZN5godot7VariantC2ERKNS_6Rect2iE
00000000000c9d84 t __ZN5godot7VariantC2ERKNS_6SignalE
00000000000c8c10 t __ZN5godot7VariantC2ERKNS_6StringE
00000000000c8cd4 t __ZN5godot7VariantC2ERKNS_7Vector2E
00000000000c8fc4 t __ZN5godot7VariantC2ERKNS_7Vector3E
00000000000c91f8 t __ZN5godot7VariantC2ERKNS_7Vector4E
00000000000c9cc0 t __ZN5godot7VariantC2ERKNS_8CallableE
00000000000c9958 t __ZN5godot7VariantC2ERKNS_8NodePathE
00000000000c9bd8 t __ZN5godot7VariantC2ERKNS_8ObjectIDE
00000000000c8d90 t __ZN5godot7VariantC2ERKNS_8Vector2iE
00000000000c9080 t __ZN5godot7VariantC2ERKNS_8Vector3iE
00000000000c92b4 t __ZN5godot7VariantC2ERKNS_8Vector4iE
00000000000c87a4 t __ZN5godot7VariantC2ERKS0_
00000000000c8978 t __ZN5godot7VariantC2Eb
00000000000c8b38 t __ZN5godot7VariantC2Ed
00000000000c863c t __ZN5godot7VariantC2Ev
00000000000c8a60 t __ZN5godot7VariantC2Ex
00000000000c9c18 t __ZN5godot7VariantC2Ey
00000000000ca7b8 t __ZN5godot7VariantD1Ev
00000000000ca778 t __ZN5godot7VariantD2Ev
00000000000cbc80 t __ZN5godot7VariantaSEOS0_
00000000000cbbac t __ZN5godot7VariantaSERKS0_
00000000000b6c74 t __ZN5godot7Vector317octahedron_decodeERKNS_7Vector2E
00000000000b7040 t __ZN5godot7Vector325octahedron_tangent_decodeERKNS_7Vector2EPf
00000000000b6288 t __ZN5godot7Vector34snapES0_
00000000000b6374 t __ZN5godot7Vector35snapfEf
00000000000b5de8 t __ZN5godot7Vector36rotateERKS0_f
00000000000c81cc t __ZN5godot7Vector4C1ERKS0_
00000000000c8200 t __ZN5godot7Vector4C2ERKS0_
00000000000c7ad8 t __ZN5godot7Vector4aSERKS0_
0000000000120854 t __ZN5godot7World2D16get_class_staticEv
00000000001cd6f8 s __ZN5godot7World2D22_gde_binding_callbacksE
0000000000120928 t __ZN5godot7World2D26_gde_binding_free_callbackEPvS1_S1_
00000000001208e4 t __ZN5godot7World2D28_gde_binding_create_callbackEPvS1_
000000000012096c t __ZN5godot7World2D31_gde_binding_reference_callbackEPvS1_h
00000000001d0750 d __ZN5godot7World2D37_gde_engine_class_registration_helperE
0000000000120988 t __ZN5godot7World2DC1EPv
00000000001209bc t __ZN5godot7World2DC2EPv
0000000000120a2c t __ZN5godot7World2DD0Ev
0000000000120a00 t __ZN5godot7World2DD1Ev
0000000000120a5c t __ZN5godot7World2DD2Ev
000000000018a26c t __ZN5godot7World3D16get_class_staticEv
00000000001ce1d8 s __ZN5godot7World3D22_gde_binding_callbacksE
000000000018a340 t __ZN5godot7World3D26_gde_binding_free_callbackEPvS1_S1_
000000000018a2fc t __ZN5godot7World3D28_gde_binding_create_callbackEPvS1_
000000000018a384 t __ZN5godot7World3D31_gde_binding_reference_callbackEPvS1_h
00000000001d0d38 d __ZN5godot7World3D37_gde_engine_class_registration_helperE
000000000018a3a0 t __ZN5godot7World3DC1EPv
000000000018a3d4 t __ZN5godot7World3DC2EPv
000000000018a444 t __ZN5godot7World3DD0Ev
000000000018a418 t __ZN5godot7World3DD1Ev
000000000018a474 t __ZN5godot7World3DD2Ev
00000000000110b0 t __ZN5godot7Wrapped13_notificationEi
0000000000011208 t __ZN5godot7Wrapped14to_string_bindEPvPhS1_
000000000005c4e4 t __ZN5godot7Wrapped15_postinitializeEv
0000000000011220 t __ZN5godot7Wrapped16get_class_staticEv
000000000001107c t __ZN5godot7Wrapped17notification_bindEPvih
00000000001d6a10 s __ZN5godot7Wrapped19_constructing_mutexE
0000000000010d5c t __ZN5godot7Wrapped22validate_property_bindEPvP23GDExtensionPropertyInfo
0000000000010ca4 t __ZN5godot7Wrapped24property_can_revert_bindEPvPKv
0000000000010d1c t __ZN5godot7Wrapped24property_get_revert_bindEPvPKvS1_
000000000005c4dc t __ZN5godot7Wrapped25_get_extension_class_nameEv
00000000001d6a60 s __ZN5godot7Wrapped28_constructing_recreate_ownerE
00000000001d6a50 s __ZN5godot7Wrapped34_constructing_extension_class_nameE
00000000001d6a58 s __ZN5godot7Wrapped37_constructing_class_binding_callbacksE
0000000000010b58 t __ZN5godot7Wrapped4_setERKNS_10StringNameERKNS_7VariantE
0000000000010b78 t __ZN5godot7Wrapped8get_bindEPvPKvS1_
0000000000010afc t __ZN5godot7Wrapped8set_bindEPvPKvS3_
000000000005c71c t __ZN5godot7WrappedC1ENS_10StringNameE
000000000005c7a0 t __ZN5godot7WrappedC1EPv
000000000005c57c t __ZN5godot7WrappedC2ENS_10StringNameE
000000000005c750 t __ZN5godot7WrappedC2EPv
0000000000000e80 t __ZN5godot7WrappedD0Ev
0000000000000e54 t __ZN5godot7WrappedD1Ev
0000000000000de8 t __ZN5godot7WrappedD2Ev
0000000000070b30 t __ZN5godot7helpers10append_allINS_5ArrayENS_10StringNameEEET_S4_T0_
0000000000070bbc t __ZN5godot7helpers10append_allINS_5ArrayENS_10StringNameEJS3_EEET_S4_T0_DpT1_
0000000000070fc4 t __ZN5godot7helpers10append_allINS_5ArrayENS_10StringNameEJS3_S3_EEET_S4_T0_DpT1_
0000000000070eb4 t __ZN5godot7helpers10append_allINS_5ArrayENS_10StringNameEJS3_S3_S3_EEET_S4_T0_DpT1_
0000000000070a68 t __ZN5godot7helpers10append_allINS_5ArrayENS_6StringEJNS_10StringNameEEEET_S5_T0_DpT1_
000000000007097c t __ZN5godot7helpers10append_allINS_5ArrayENS_6StringEJS3_NS_10StringNameEEEET_S5_T0_DpT1_
000000000005e230 t __ZN5godot7vformatIJNS_10StringNameEEEENS_6StringERKS2_DpKT_
00000000000ec7e0 t __ZN5godot8Callable13init_bindingsEv
00000000001d7aa8 s __ZN5godot8Callable16_method_bindingsE
00000000000ec714 t __ZN5godot8Callable38_init_bindings_constructors_destructorEv
00000000000edb88 t __ZN5godot8Callable5bindvERKNS_5ArrayE
00000000000ed5d8 t __ZN5godot8Callable6createERKNS_7VariantERKNS_10StringNameE
00000000000ed540 t __ZN5godot8CallableC1EOS0_
00000000000ed160 t __ZN5godot8CallableC1EPKNS_7VariantE
00000000000ed434 t __ZN5godot8CallableC1EPNS_6ObjectERKNS_10StringNameE
00000000000ed2f4 t __ZN5godot8CallableC1ERKS0_
00000000000ed200 t __ZN5godot8CallableC1Ev
00000000000ed470 t __ZN5godot8CallableC2EOS0_
00000000000ed0e8 t __ZN5godot8CallableC2EPKNS_7VariantE
00000000000ed328 t __ZN5godot8CallableC2EPNS_6ObjectERKNS_10StringNameE
00000000000ed22c t __ZN5godot8CallableC2ERKS0_
00000000000ed194 t __ZN5godot8CallableC2Ev
00000000000ed5ac t __ZN5godot8CallableD1Ev
00000000000ed574 t __ZN5godot8CallableD2Ev
00000000000edf1c t __ZN5godot8CallableaSEOS0_
00000000000edec8 t __ZN5godot8CallableaSERKS0_
0000000000061e1c t __ZN5godot8D_METHODENS_10StringNameE
0000000000061ecc t __ZN5godot8D_METHODENS_10StringNameES0_
000000000016ade8 t __ZN5godot8MainLoop11_initializeEv
000000000016adf8 t __ZN5godot8MainLoop16_physics_processEd
0000000000154484 t __ZN5godot8MainLoop16get_class_staticEv
00000000001cda18 s __ZN5godot8MainLoop22_gde_binding_callbacksE
0000000000154558 t __ZN5godot8MainLoop26_gde_binding_free_callbackEPvS1_S1_
0000000000154514 t __ZN5godot8MainLoop28_gde_binding_create_callbackEPvS1_
000000000015459c t __ZN5godot8MainLoop31_gde_binding_reference_callbackEPvS1_h
00000000001d09e0 d __ZN5godot8MainLoop37_gde_engine_class_registration_helperE
000000000016ae14 t __ZN5godot8MainLoop8_processEd
000000000016ae30 t __ZN5godot8MainLoop9_finalizeEv
00000000001545b8 t __ZN5godot8MainLoopC1EPv
00000000001545ec t __ZN5godot8MainLoopC2EPv
000000000016ae6c t __ZN5godot8MainLoopD0Ev
000000000016ae40 t __ZN5godot8MainLoopD1Ev
000000000016ae9c t __ZN5godot8MainLoopD2Ev
000000000016afc4 t __ZN5godot8Material13set_next_passERKNS_3RefIS0_EE
0000000000001d3c t __ZN5godot8Material16get_class_staticEv
000000000016b340 t __ZN5godot8Material19set_render_priorityEi
00000000001cc1f8 s __ZN5godot8Material22_gde_binding_callbacksE
0000000000001e10 t __ZN5godot8Material26_gde_binding_free_callbackEPvS1_S1_
000000000016b67c t __ZN5godot8Material26inspect_native_shader_codeEv
0000000000001dcc t __ZN5godot8Material28_gde_binding_create_callbackEPvS1_
0000000000001e54 t __ZN5godot8Material31_gde_binding_reference_callbackEPvS1_h
00000000001d0240 d __ZN5godot8Material37_gde_engine_class_registration_helperE
0000000000001e70 t __ZN5godot8MaterialC1EPv
0000000000001ea4 t __ZN5godot8MaterialC2EPv
000000000016bb7c t __ZN5godot8MaterialD0Ev
000000000016bb50 t __ZN5godot8MaterialD1Ev
000000000002ab14 t __ZN5godot8MaterialD2Ev
00000000000eac9c t __ZN5godot8NodePath13init_bindingsEv
00000000001d7970 s __ZN5godot8NodePath16_method_bindingsE
00000000000eabd0 t __ZN5godot8NodePath38_init_bindings_constructors_destructorEv
00000000000eb514 t __ZN5godot8NodePathC1EOS0_
00000000000d9884 t __ZN5godot8NodePathC1EPKDi
00000000000d9784 t __ZN5godot8NodePathC1EPKDs
00000000000eb290 t __ZN5godot8NodePathC1EPKNS_7VariantE
00000000000d9584 t __ZN5godot8NodePathC1EPKc
00000000000d9684 t __ZN5godot8NodePathC1EPKw
00000000000eb478 t __ZN5godot8NodePathC1ERKNS_6StringE
00000000000eb3d0 t __ZN5godot8NodePathC1ERKS0_
00000000000eb330 t __ZN5godot8NodePathC1Ev
00000000000eb4ac t __ZN5godot8NodePathC2EOS0_
00000000000d9804 t __ZN5godot8NodePathC2EPKDi
00000000000d9704 t __ZN5godot8NodePathC2EPKDs
00000000000eb218 t __ZN5godot8NodePathC2EPKNS_7VariantE
00000000000d9504 t __ZN5godot8NodePathC2EPKc
00000000000d9604 t __ZN5godot8NodePathC2EPKw
00000000000eb404 t __ZN5godot8NodePathC2ERKNS_6StringE
00000000000eb35c t __ZN5godot8NodePathC2ERKS0_
00000000000eb2c4 t __ZN5godot8NodePathC2Ev
00000000000eb580 t __ZN5godot8NodePathD1Ev
00000000000eb548 t __ZN5godot8NodePathD2Ev
00000000000ebd00 t __ZN5godot8NodePathaSEOS0_
00000000000ebcac t __ZN5godot8NodePathaSERKS0_
00000000000cbb50 t __ZN5godot8ObjectDB12get_instanceEy
0000000000196280 t __ZN5godot8Resource11reset_stateEv
0000000000197230 t __ZN5godot8Resource12_reset_stateEv
0000000000196e00 t __ZN5godot8Resource12emit_changedEv
00000000001955dc t __ZN5godot8Resource14set_path_cacheERKNS_6StringE
00000000001952c0 t __ZN5godot8Resource14take_over_pathERKNS_6StringE
00000000001963fc t __ZN5godot8Resource15set_id_for_pathERKNS_6StringES3_
0000000000001888 t __ZN5godot8Resource16get_class_staticEv
0000000000195c14 t __ZN5godot8Resource18set_local_to_sceneEb
0000000000196ae4 t __ZN5godot8Resource19set_scene_unique_idERKNS_6StringE
0000000000196104 t __ZN5godot8Resource20setup_local_to_sceneEv
00000000001971ec t __ZN5godot8Resource21_setup_local_to_sceneEv
00000000001cc168 s __ZN5godot8Resource22_gde_binding_callbacksE
0000000000196964 t __ZN5godot8Resource24generate_scene_unique_idEv
000000000000195c t __ZN5godot8Resource26_gde_binding_free_callbackEPvS1_S1_
0000000000001918 t __ZN5godot8Resource28_gde_binding_create_callbackEPvS1_
00000000000019a0 t __ZN5godot8Resource31_gde_binding_reference_callbackEPvS1_h
00000000001d0220 d __ZN5godot8Resource37_gde_engine_class_registration_helperE
0000000000195768 t __ZN5godot8Resource8set_nameERKNS_6StringE
0000000000195134 t __ZN5godot8Resource8set_pathERKNS_6StringE
00000000000019bc t __ZN5godot8ResourceC1EPv
000000000002f4f4 t __ZN5godot8ResourceC2EPKc
00000000000019f0 t __ZN5godot8ResourceC2EPv
0000000000197280 t __ZN5godot8ResourceD0Ev
0000000000197254 t __ZN5godot8ResourceD1Ev
0000000000001cbc t __ZN5godot8ResourceD2Ev
000000000010ebc0 t __ZN5godot8Shortcut16get_class_staticEv
00000000001cd3c0 s __ZN5godot8Shortcut22_gde_binding_callbacksE
000000000010ec94 t __ZN5godot8Shortcut26_gde_binding_free_callbackEPvS1_S1_
000000000010ec50 t __ZN5godot8Shortcut28_gde_binding_create_callbackEPvS1_
000000000010ecd8 t __ZN5godot8Shortcut31_gde_binding_reference_callbackEPvS1_h
00000000001d0698 d __ZN5godot8Shortcut37_gde_engine_class_registration_helperE
000000000010ecf4 t __ZN5godot8ShortcutC1EPv
000000000010ed28 t __ZN5godot8ShortcutC2EPv
000000000010ed98 t __ZN5godot8ShortcutD0Ev
000000000010ed6c t __ZN5godot8ShortcutD1Ev
000000000010edc8 t __ZN5godot8ShortcutD2Ev
0000000000120654 t __ZN5godot8StyleBox16get_class_staticEv
0000000000199c0c t __ZN5godot8StyleBox18set_content_marginENS_4SideEf
00000000001cd6e0 s __ZN5godot8StyleBox22_gde_binding_callbacksE
0000000000199de4 t __ZN5godot8StyleBox22set_content_margin_allEf
0000000000120728 t __ZN5godot8StyleBox26_gde_binding_free_callbackEPvS1_S1_
00000000001206e4 t __ZN5godot8StyleBox28_gde_binding_create_callbackEPvS1_
000000000012076c t __ZN5godot8StyleBox31_gde_binding_reference_callbackEPvS1_h
00000000001d0740 d __ZN5godot8StyleBox37_gde_engine_class_registration_helperE
0000000000120788 t __ZN5godot8StyleBoxC1EPv
00000000001207bc t __ZN5godot8StyleBoxC2EPv
000000000019acbc t __ZN5godot8StyleBoxD0Ev
000000000019ac90 t __ZN5godot8StyleBoxD1Ev
000000000019acec t __ZN5godot8StyleBoxD2Ev
00000000000cab54 t __ZN5godot8Vector2iC1Ev
00000000000ccf44 t __ZN5godot8Vector2iC2Ev
0000000000180e1c t __ZN5godot8Viewport16get_class_staticEv
00000000001ce0c0 s __ZN5godot8Viewport22_gde_binding_callbacksE
0000000000180ef0 t __ZN5godot8Viewport26_gde_binding_free_callbackEPvS1_S1_
0000000000180eac t __ZN5godot8Viewport28_gde_binding_create_callbackEPvS1_
0000000000180f34 t __ZN5godot8Viewport31_gde_binding_reference_callbackEPvS1_h
00000000001d0c38 d __ZN5godot8Viewport37_gde_engine_class_registration_helperE
0000000000180f50 t __ZN5godot8ViewportC1EPv
0000000000180f84 t __ZN5godot8ViewportC2EPv
0000000000180ff4 t __ZN5godot8ViewportD0Ev
0000000000180fc8 t __ZN5godot8ViewportD1Ev
0000000000181024 t __ZN5godot8ViewportD2Ev
00000000001b6f64 t __ZN5godot8internal17_call_utility_retINS_15PackedByteArrayEJPKNS_7VariantEEEET_PFvPvPKPKviEDpRKT0_
00000000001b4fc4 t __ZN5godot8internal17_call_utility_retINS_16PackedInt64ArrayEJPxEEET_PFvPvPKPKviEDpRKT0_
00000000001b7de8 t __ZN5godot8internal17_call_utility_retINS_3RIDEJPxEEET_PFvPvPKPKviEDpRKT0_
00000000001b6af4 t __ZN5godot8internal17_call_utility_retINS_6StringEJPKNS_7VariantEEEET_PFvPvPKPKviEDpRKT0_
00000000001b59a8 t __ZN5godot8internal17_call_utility_retINS_6StringEJPxEEET_PFvPvPKPKviEDpRKT0_
00000000001b719c t __ZN5godot8internal17_call_utility_retINS_7VariantEJPKNS_15PackedByteArrayEEEET_PFvPvPKPKviEDpRKT0_
00000000001b6d2c t __ZN5godot8internal17_call_utility_retINS_7VariantEJPKNS_6StringEEEET_PFvPvPKPKviEDpRKT0_
00000000001acf64 t __ZN5godot8internal17_call_utility_retINS_7VariantEJPKS2_EEET_PFvPvPKPKviEDpRKT0_
00000000001b5580 t __ZN5godot8internal17_call_utility_retINS_7VariantEJPKS2_PxEEET_PFvPvPKPKviEDpRKT0_
00000000001ae838 t __ZN5godot8internal17_call_utility_retINS_7VariantEJPKS2_S4_EEET_PFvPvPKPKviEDpRKT0_
00000000001b0064 t __ZN5godot8internal17_call_utility_retINS_7VariantEJPKS2_S4_S4_EEET_PFvPvPKPKviEDpRKT0_
00000000001b800c t __ZN5godot8internal17_call_utility_retIaJPKNS_7VariantES4_EEET_PFvPvPKPKviEDpRKT0_
00000000001af3a8 t __ZN5godot8internal17_call_utility_retIaJPdEEET_PFvPvPKPKviEDpRKT0_
00000000001af79c t __ZN5godot8internal17_call_utility_retIaJPdS2_EEET_PFvPvPKPKviEDpRKT0_
00000000001b7a84 t __ZN5godot8internal17_call_utility_retIaJPxEEET_PFvPvPKPKviEDpRKT0_
00000000001b46a0 t __ZN5godot8internal17_call_utility_retIdJEEET_PFvPvPKPKviEDpRKT0_
00000000001ab268 t __ZN5godot8internal17_call_utility_retIdJPdEEET_PFvPvPKPKviEDpRKT0_
00000000001ac154 t __ZN5godot8internal17_call_utility_retIdJPdS2_EEET_PFvPvPKPKviEDpRKT0_
00000000001b0334 t __ZN5godot8internal17_call_utility_retIdJPdS2_S2_EEET_PFvPvPKPKviEDpRKT0_
00000000001b060c t __ZN5godot8internal17_call_utility_retIdJPdS2_S2_S2_S2_EEET_PFvPvPKPKviEDpRKT0_
00000000001b0be0 t __ZN5godot8internal17_call_utility_retIdJPdS2_S2_S2_S2_S2_S2_S2_EEET_PFvPvPKPKviEDpRKT0_
00000000001b44d0 t __ZN5godot8internal17_call_utility_retIxJEEET_PFvPvPKPKviEDpRKT0_
00000000001b5374 t __ZN5godot8internal17_call_utility_retIxJPKNS_7VariantEEEET_PFvPvPKPKviEDpRKT0_
00000000001ad350 t __ZN5godot8internal17_call_utility_retIxJPdEEET_PFvPvPKPKviEDpRKT0_
00000000001aec8c t __ZN5godot8internal17_call_utility_retIxJPdPxEEET_PFvPvPKPKviEDpRKT0_
00000000001ae1a4 t __ZN5godot8internal17_call_utility_retIxJPxEEET_PFvPvPKPKviEDpRKT0_
00000000001acd74 t __ZN5godot8internal17_call_utility_retIxJPxS2_EEET_PFvPvPKPKviEDpRKT0_
00000000001b2be0 t __ZN5godot8internal17_call_utility_retIxJPxS2_S2_EEET_PFvPvPKPKviEDpRKT0_
00000000000583b8 t __ZN5godot8internal19DocDataRegistrationC1EPKciiPKh
0000000000058294 t __ZN5godot8internal19DocDataRegistrationC2EPKciiPKh
000000000013eb84 t __ZN5godot8internal19_call_native_mb_retINS_10DictionaryEJEEET_PKvPvDpRKT0_
0000000000122af8 t __ZN5godot8internal19_call_native_mb_retINS_10DictionaryEJPKNS_10StringNameES5_EEET_PKvPvDpRKT0_
0000000000166b08 t __ZN5godot8internal19_call_native_mb_retINS_10DictionaryEJPxEEET_PKvPvDpRKT0_
0000000000183618 t __ZN5godot8internal19_call_native_mb_retINS_10QuaternionEJEEET_PKvPvDpRKT0_
000000000012dfcc t __ZN5godot8internal19_call_native_mb_retINS_10StringNameEJEEET_PKvPvDpRKT0_
0000000000121cc0 t __ZN5godot8internal19_call_native_mb_retINS_10StringNameEJPKS2_EEET_PKvPvDpRKT0_
0000000000123320 t __ZN5godot8internal19_call_native_mb_retINS_10StringNameEJPKS2_S4_EEET_PKvPvDpRKT0_
00000000001255fc t __ZN5godot8internal19_call_native_mb_retINS_10StringNameEJPKS2_S4_PaEEET_PKvPvDpRKT0_
00000000001089b8 t __ZN5godot8internal19_call_native_mb_retINS_10StringNameEJPxEEET_PKvPvDpRKT0_
000000000013f180 t __ZN5godot8internal19_call_native_mb_retINS_10TypedArrayINS_10DictionaryEEEJEEET_PKvPvDpRKT0_
00000000001902cc t __ZN5godot8internal19_call_native_mb_retINS_10TypedArrayINS_10DictionaryEEEJPKNS_10StringNameEEEET_PKvPvDpRKT0_
0000000000122df8 t __ZN5godot8internal19_call_native_mb_retINS_10TypedArrayINS_10DictionaryEEEJPKNS_10StringNameEPaEEET_PKvPvDpRKT0_
0000000000176a84 t __ZN5godot8internal19_call_native_mb_retINS_10TypedArrayINS_10StringNameEEEJEEET_PKvPvDpRKT0_
0000000000186a94 t __ZN5godot8internal19_call_native_mb_retINS_10TypedArrayINS_11Node3DGizmoEEEJEEET_PKvPvDpRKT0_
0000000000174cb0 t __ZN5godot8internal19_call_native_mb_retINS_10TypedArrayINS_4NodeEEEJPKNS_6StringES7_PaS8_EEET_PKvPvDpRKT0_
0000000000173bf8 t __ZN5godot8internal19_call_native_mb_retINS_10TypedArrayINS_4NodeEEEJPaEEET_PKvPvDpRKT0_
000000000016cc58 t __ZN5godot8internal19_call_native_mb_retINS_10TypedArrayINS_5ArrayEEEJPxEEET_PKvPvDpRKT0_
000000000018c2b0 t __ZN5godot8internal19_call_native_mb_retINS_10TypedArrayINS_5ImageEEEJPxS5_S5_PaPdS6_EEET_PKvPvDpRKT0_
000000000018be40 t __ZN5godot8internal19_call_native_mb_retINS_10TypedArrayINS_5ImageEEEJPxS5_S5_PaS6_EEET_PKvPvDpRKT0_
0000000000141fdc t __ZN5godot8internal19_call_native_mb_retINS_10TypedArrayINS_5Rect2EEEJEEET_PKvPvDpRKT0_
0000000000166fb4 t __ZN5godot8internal19_call_native_mb_retINS_10TypedArrayIiEEJEEET_PKvPvDpRKT0_
000000000011b90c t __ZN5godot8internal19_call_native_mb_retINS_11Transform2DEJEEET_PKvPvDpRKT0_
0000000000181d24 t __ZN5godot8internal19_call_native_mb_retINS_11Transform3DEJEEET_PKvPvDpRKT0_
000000000015a214 t __ZN5godot8internal19_call_native_mb_retINS_15PackedByteArrayEJPKNS_6StringEEEET_PKvPvDpRKT0_
000000000015c3bc t __ZN5godot8internal19_call_native_mb_retINS_15PackedByteArrayEJPxEEET_PKvPvDpRKT0_
0000000000144948 t __ZN5godot8internal19_call_native_mb_retINS_16PackedInt32ArrayEJEEET_PKvPvDpRKT0_
00000000001217f4 t __ZN5godot8internal19_call_native_mb_retINS_17PackedStringArrayEJEEET_PKvPvDpRKT0_
0000000000121a58 t __ZN5godot8internal19_call_native_mb_retINS_17PackedStringArrayEJPKNS_10StringNameEEEET_PKvPvDpRKT0_
0000000000124890 t __ZN5godot8internal19_call_native_mb_retINS_17PackedStringArrayEJPKNS_10StringNameEPaEEET_PKvPvDpRKT0_
000000000012532c t __ZN5godot8internal19_call_native_mb_retINS_17PackedStringArrayEJPKNS_10StringNameES5_PaEEET_PKvPvDpRKT0_
000000000013f45c t __ZN5godot8internal19_call_native_mb_retINS_17PackedStringArrayEJPKNS_6StringEEEET_PKvPvDpRKT0_
00000000001a468c t __ZN5godot8internal19_call_native_mb_retINS_18PackedVector2ArrayEJEEET_PKvPvDpRKT0_
000000000016c570 t __ZN5godot8internal19_call_native_mb_retINS_18PackedVector3ArrayEJEEET_PKvPvDpRKT0_
0000000000113654 t __ZN5godot8internal19_call_native_mb_retINS_3RIDEJEEET_PKvPvDpRKT0_
000000000010b4fc t __ZN5godot8internal19_call_native_mb_retINS_4AABBEJEEET_PKvPvDpRKT0_
000000000019364c t __ZN5godot8internal19_call_native_mb_retINS_5ArrayEJEEET_PKvPvDpRKT0_
00000000001753b4 t __ZN5godot8internal19_call_native_mb_retINS_5ArrayEJPKNS_8NodePathEEEET_PKvPvDpRKT0_
000000000016c984 t __ZN5godot8internal19_call_native_mb_retINS_5ArrayEJPxEEET_PKvPvDpRKT0_
0000000000183c48 t __ZN5godot8internal19_call_native_mb_retINS_5BasisEJEEET_PKvPvDpRKT0_
0000000000114c54 t __ZN5godot8internal19_call_native_mb_retINS_5ColorEJEEET_PKvPvDpRKT0_
0000000000130590 t __ZN5godot8internal19_call_native_mb_retINS_5ColorEJPKNS_10StringNameES5_EEET_PKvPvDpRKT0_
0000000000143ae8 t __ZN5godot8internal19_call_native_mb_retINS_5ColorEJPKNS_8Vector2iEEEET_PKvPvDpRKT0_
000000000011bff0 t __ZN5godot8internal19_call_native_mb_retINS_5Rect2EJEEET_PKvPvDpRKT0_
000000000014e5f8 t __ZN5godot8internal19_call_native_mb_retINS_5Rect2EJPxEEET_PKvPvDpRKT0_
00000000001422bc t __ZN5godot8internal19_call_native_mb_retINS_6Rect2iEJEEET_PKvPvDpRKT0_
0000000000142fe0 t __ZN5godot8internal19_call_native_mb_retINS_6Rect2iEJPxEEET_PKvPvDpRKT0_
000000000011089c t __ZN5godot8internal19_call_native_mb_retINS_6StringEJEEET_PKvPvDpRKT0_
0000000000191874 t __ZN5godot8internal19_call_native_mb_retINS_6StringEJPKNS_10StringNameES5_EEET_PKvPvDpRKT0_
0000000000191b38 t __ZN5godot8internal19_call_native_mb_retINS_6StringEJPKNS_10StringNameES5_PxS5_EEET_PKvPvDpRKT0_
0000000000133294 t __ZN5godot8internal19_call_native_mb_retINS_6StringEJPKNS_7Vector2EEEET_PKvPvDpRKT0_
000000000015a46c t __ZN5godot8internal19_call_native_mb_retINS_6StringEJPKS2_EEET_PKvPvDpRKT0_
000000000017f190 t __ZN5godot8internal19_call_native_mb_retINS_6StringEJPKS2_PKNS_10StringNameEEEET_PKvPvDpRKT0_
000000000017f454 t __ZN5godot8internal19_call_native_mb_retINS_6StringEJPKS2_PKNS_10StringNameEPxS7_EEET_PKvPvDpRKT0_
000000000013af4c t __ZN5godot8internal19_call_native_mb_retINS_6StringEJPKS2_PxEEET_PKvPvDpRKT0_
000000000015c97c t __ZN5godot8internal19_call_native_mb_retINS_6StringEJPaEEET_PKvPvDpRKT0_
000000000010ac10 t __ZN5godot8internal19_call_native_mb_retINS_6StringEJPxEEET_PKvPvDpRKT0_
000000000017e8a0 t __ZN5godot8internal19_call_native_mb_retINS_7VariantEJEEET_PKvPvDpRKT0_
000000000011d748 t __ZN5godot8internal19_call_native_mb_retINS_7VariantEJPKNS_10StringNameEEEET_PKvPvDpRKT0_
000000000018f908 t __ZN5godot8internal19_call_native_mb_retINS_7VariantEJPKNS_10StringNameEPKNS_5ArrayEEEET_PKvPvDpRKT0_
000000000018e618 t __ZN5godot8internal19_call_native_mb_retINS_7VariantEJPKNS_10StringNameEPKS2_EEET_PKvPvDpRKT0_
0000000000123ca8 t __ZN5godot8internal19_call_native_mb_retINS_7VariantEJPKNS_10StringNameES5_EEET_PKvPvDpRKT0_
000000000013aca8 t __ZN5godot8internal19_call_native_mb_retINS_7VariantEJPKNS_6StringEPxEEET_PKvPvDpRKT0_
000000000018d0d0 t __ZN5godot8internal19_call_native_mb_retINS_7VariantEJPKNS_8NodePathEEEET_PKvPvDpRKT0_
0000000000123790 t __ZN5godot8internal19_call_native_mb_retINS_7VariantEJPPvPKNS_10StringNameEEEET_PKvS3_DpRKT0_
000000000015d420 t __ZN5godot8internal19_call_native_mb_retINS_7VariantEJPaEEET_PKvPvDpRKT0_
000000000011c588 t __ZN5godot8internal19_call_native_mb_retINS_7Vector2EJEEET_PKvPvDpRKT0_
0000000000165ca4 t __ZN5godot8internal19_call_native_mb_retINS_7Vector2EJPKNS_10StringNameES5_S5_S5_PdEEET_PKvPvDpRKT0_
000000000011e5b4 t __ZN5godot8internal19_call_native_mb_retINS_7Vector2EJPKS2_EEET_PKvPvDpRKT0_
0000000000167314 t __ZN5godot8internal19_call_native_mb_retINS_7Vector2EJPxEEET_PKvPvDpRKT0_
000000000010f83c t __ZN5godot8internal19_call_native_mb_retINS_7Vector3EJEEET_PKvPvDpRKT0_
0000000000189ca0 t __ZN5godot8internal19_call_native_mb_retINS_7Vector3EJPKS2_EEET_PKvPvDpRKT0_
000000000013a838 t __ZN5godot8internal19_call_native_mb_retINS_8CallableEJPKNS_6StringEPxEEET_PKvPvDpRKT0_
00000000001340f8 t __ZN5godot8internal19_call_native_mb_retINS_8NodePathEJEEET_PKvPvDpRKT0_
0000000000175fd0 t __ZN5godot8internal19_call_native_mb_retINS_8NodePathEJPPvPaEEET_PKvS3_DpRKT0_
0000000000133ca4 t __ZN5godot8internal19_call_native_mb_retINS_8NodePathEJPxEEET_PKvPvDpRKT0_
0000000000140f30 t __ZN5godot8internal19_call_native_mb_retINS_8Vector2iEJEEET_PKvPvDpRKT0_
00000000001457b4 t __ZN5godot8internal19_call_native_mb_retINS_8Vector2iEJPKNS_6StringEPxEEET_PKvPvDpRKT0_
0000000000142bd0 t __ZN5godot8internal19_call_native_mb_retINS_8Vector2iEJPxEEET_PKvPvDpRKT0_
00000000001487e4 t __ZN5godot8internal19_call_native_mb_retINS_8Vector3iEJPxEEET_PKvPvDpRKT0_
000000000010c178 t __ZN5godot8internal19_call_native_mb_retIaJEEET_PKvPvDpRKT0_
0000000000121f44 t __ZN5godot8internal19_call_native_mb_retIaJPKNS_10StringNameEEEET_PKvPvDpRKT0_
0000000000190c48 t __ZN5godot8internal19_call_native_mb_retIaJPKNS_10StringNameEPKNS_8CallableEEEET_PKvPvDpRKT0_
0000000000164f48 t __ZN5godot8internal19_call_native_mb_retIaJPKNS_10StringNameEPaEEET_PKvPvDpRKT0_
0000000000122184 t __ZN5godot8internal19_call_native_mb_retIaJPKNS_10StringNameES4_EEET_PKvPvDpRKT0_
0000000000123f84 t __ZN5godot8internal19_call_native_mb_retIaJPKNS_10StringNameES4_PaEEET_PKvPvDpRKT0_
000000000015e5e4 t __ZN5godot8internal19_call_native_mb_retIaJPKNS_15PackedByteArrayEEEET_PKvPvDpRKT0_
000000000015ea54 t __ZN5godot8internal19_call_native_mb_retIaJPKNS_17PackedStringArrayEPKNS_6StringEEEET_PKvPvDpRKT0_
000000000015e814 t __ZN5godot8internal19_call_native_mb_retIaJPKNS_6StringEEEET_PKvPvDpRKT0_
000000000013a218 t __ZN5godot8internal19_call_native_mb_retIaJPKNS_6StringEPxEEET_PKvPvDpRKT0_
0000000000199458 t __ZN5godot8internal19_call_native_mb_retIaJPKNS_6StringES4_EEET_PKvPvDpRKT0_
000000000015ee88 t __ZN5godot8internal19_call_native_mb_retIaJPKNS_7VariantEPaEEET_PKvPvDpRKT0_
000000000019ab28 t __ZN5godot8internal19_call_native_mb_retIaJPKNS_7Vector2EPKNS_5Rect2EEEET_PKvPvDpRKT0_
0000000000174190 t __ZN5godot8internal19_call_native_mb_retIaJPKNS_8NodePathEEEET_PKvPvDpRKT0_
00000000001759c8 t __ZN5godot8internal19_call_native_mb_retIaJPPvEEET_PKvS2_DpRKT0_
000000000015de24 t __ZN5godot8internal19_call_native_mb_retIaJPdEEET_PKvPvDpRKT0_
000000000011f14c t __ZN5godot8internal19_call_native_mb_retIaJPxEEET_PKvPvDpRKT0_
000000000014836c t __ZN5godot8internal19_call_native_mb_retIaJPxS2_EEET_PKvPvDpRKT0_
000000000012adfc t __ZN5godot8internal19_call_native_mb_retIdJEEET_PKvPvDpRKT0_
0000000000165594 t __ZN5godot8internal19_call_native_mb_retIdJPKNS_10StringNameEPaEEET_PKvPvDpRKT0_
00000000001659b0 t __ZN5godot8internal19_call_native_mb_retIdJPKNS_10StringNameES4_EEET_PKvPvDpRKT0_
000000000018aef8 t __ZN5godot8internal19_call_native_mb_retIdJPKNS_7Vector2EEEET_PKvPvDpRKT0_
000000000018b3d0 t __ZN5godot8internal19_call_native_mb_retIdJPKNS_7Vector3EEEET_PKvPvDpRKT0_
000000000018aa60 t __ZN5godot8internal19_call_native_mb_retIdJPdEEET_PKvPvDpRKT0_
000000000018accc t __ZN5godot8internal19_call_native_mb_retIdJPdS2_EEET_PKvPvDpRKT0_
000000000018b194 t __ZN5godot8internal19_call_native_mb_retIdJPdS2_S2_EEET_PKvPvDpRKT0_
00000000001289d8 t __ZN5godot8internal19_call_native_mb_retIdJPxEEET_PKvPvDpRKT0_
0000000000166550 t __ZN5godot8internal19_call_native_mb_retIdJPxS2_EEET_PKvPvDpRKT0_
000000000010878c t __ZN5godot8internal19_call_native_mb_retIxJEEET_PKvPvDpRKT0_
0000000000122708 t __ZN5godot8internal19_call_native_mb_retIxJPKNS_10StringNameEEEET_PKvPvDpRKT0_
00000000001907cc t __ZN5godot8internal19_call_native_mb_retIxJPKNS_10StringNameEPKNS_8CallableEPxEEET_PKvPvDpRKT0_
0000000000124ce4 t __ZN5godot8internal19_call_native_mb_retIxJPKNS_10StringNameES4_EEET_PKvPvDpRKT0_
0000000000124204 t __ZN5godot8internal19_call_native_mb_retIxJPKNS_10StringNameES4_PaEEET_PKvPvDpRKT0_
000000000010b028 t __ZN5godot8internal19_call_native_mb_retIxJPKNS_11Transform3DEPdEEET_PKvPvDpRKT0_
000000000014299c t __ZN5godot8internal19_call_native_mb_retIxJPKNS_5Rect2EEEET_PKvPvDpRKT0_
000000000010a7a8 t __ZN5godot8internal19_call_native_mb_retIxJPKNS_6StringEEEET_PKvPvDpRKT0_
00000000001980c0 t __ZN5godot8internal19_call_native_mb_retIxJPKNS_6StringEPKNS_5ArrayEEEET_PKvPvDpRKT0_
0000000000139fac t __ZN5godot8internal19_call_native_mb_retIxJPKNS_6StringEPKNS_7VariantEEEET_PKvPvDpRKT0_
000000000015fb08 t __ZN5godot8internal19_call_native_mb_retIxJPKNS_6StringEPNS_8BitFieldINS_10FileAccess19UnixPermissionFlagsEEEEEET_PKvPvDpRKT0_
0000000000138d00 t __ZN5godot8internal19_call_native_mb_retIxJPKNS_6StringEPPvS4_PKNS_8CallableES9_PKNS_7VariantEPxSD_EEET_PKvS5_DpRKT0_
000000000015ff04 t __ZN5godot8internal19_call_native_mb_retIxJPKNS_6StringEPaEEET_PKvPvDpRKT0_
0000000000139b3c t __ZN5godot8internal19_call_native_mb_retIxJPKNS_6StringEPxEEET_PKvPvDpRKT0_
0000000000139d74 t __ZN5godot8internal19_call_native_mb_retIxJPKNS_6StringES4_EEET_PKvPvDpRKT0_
000000000014ba18 t __ZN5godot8internal19_call_native_mb_retIxJPKNS_6StringES4_PKNS_17PackedStringArrayEPKNS_8CallableEEEET_PKvPvDpRKT0_
000000000013871c t __ZN5godot8internal19_call_native_mb_retIxJPKNS_6StringES4_PKNS_8CallableES7_PKNS_7VariantEPxSB_EEET_PKvPvDpRKT0_
0000000000197e68 t __ZN5godot8internal19_call_native_mb_retIxJPKNS_6StringES4_PaPxEEET_PKvPvDpRKT0_
000000000013986c t __ZN5godot8internal19_call_native_mb_retIxJPKNS_6StringES4_PxS5_PKNS_8CallableES8_PKNS_7VariantES5_S5_EEET_PKvPvDpRKT0_
000000000014bc90 t __ZN5godot8internal19_call_native_mb_retIxJPKNS_6StringES4_S4_PKNS_8CallableEEEET_PKvPvDpRKT0_
000000000014bf8c t __ZN5godot8internal19_call_native_mb_retIxJPKNS_6StringES4_S4_PaPxPKNS_17PackedStringArrayEPKNS_8CallableEEEET_PKvPvDpRKT0_
000000000013842c t __ZN5godot8internal19_call_native_mb_retIxJPKNS_6StringES4_S4_PxEEET_PKvPvDpRKT0_
000000000014c2ec t __ZN5godot8internal19_call_native_mb_retIxJPKNS_6StringES4_S4_S4_PaPxPKNS_17PackedStringArrayEPKNS_10TypedArrayINS_10DictionaryEEEPKNS_8CallableEEEET_PKvPvDpRKT0_
000000000013383c t __ZN5godot8internal19_call_native_mb_retIxJPKNS_7Vector2EEEET_PKvPvDpRKT0_
0000000000144bb0 t __ZN5godot8internal19_call_native_mb_retIxJPKNS_8Vector2iEEEET_PKvPvDpRKT0_
0000000000153244 t __ZN5godot8internal19_call_native_mb_retIxJPPvEEET_PKvS2_DpRKT0_
0000000000123a64 t __ZN5godot8internal19_call_native_mb_retIxJPPvPKNS_10StringNameEPKNS_7VariantEEEET_PKvS2_DpRKT0_
000000000014db38 t __ZN5godot8internal19_call_native_mb_retIxJPPvPKNS_6StringEPKNS_8CallableEEEET_PKvS2_DpRKT0_
0000000000173978 t __ZN5godot8internal19_call_native_mb_retIxJPaEEET_PKvPvDpRKT0_
000000000010a004 t __ZN5godot8internal19_call_native_mb_retIxJPxEEET_PKvPvDpRKT0_
0000000000144e0c t __ZN5godot8internal19_call_native_mb_retIxJPxS2_EEET_PKvPvDpRKT0_
000000000015165c t __ZN5godot8internal19_call_native_mb_retIyJEEET_PKvPvDpRKT0_
000000000015f710 t __ZN5godot8internal19_call_native_mb_retIyJPKNS_6StringEEEET_PKvPvDpRKT0_
0000000000147214 t __ZN5godot8internal19_call_native_mb_retIyJPxEEET_PKvPvDpRKT0_
00000000001b4308 t __ZN5godot8internal20_call_utility_no_retIJEEEvPFvPvPKPKviEDpRKT_
00000000001b4dcc t __ZN5godot8internal20_call_utility_no_retIJPxEEEvPFvPvPKPKviEDpRKT_
000000000005cb84 t __ZN5godot8internal20free_c_property_listEP23GDExtensionPropertyInfo
00000000001b7858 t __ZN5godot8internal21_call_utility_ret_objIJPxEEEPNS_6ObjectEPFvPvPKPKviEDpRKT_
0000000000077ab0 t __ZN5godot8internal21convert_property_listERKNSt3__16vectorINS_12PropertyInfoENS1_9allocatorIS3_EEEE
000000000005cc6c t __ZN5godot8internal21register_engine_classERKNS_10StringNameEPK35GDExtensionInstanceBindingCallbacks
0000000000108e34 t __ZN5godot8internal22_call_native_mb_no_retIJEEEvPKvPvDpRKT_
00000000001833f4 t __ZN5godot8internal22_call_native_mb_no_retIJPKNS_10QuaternionEEEEvPKvPvDpRKT_
0000000000108588 t __ZN5godot8internal22_call_native_mb_no_retIJPKNS_10StringNameEEEEvPKvPvDpRKT_
0000000000177d90 t __ZN5godot8internal22_call_native_mb_no_retIJPKNS_10StringNameEPKNS_5ArrayEPaEEEvPKvPvDpRKT_
000000000012edc4 t __ZN5godot8internal22_call_native_mb_no_retIJPKNS_10StringNameEPKNS_5ColorEEEEvPKvPvDpRKT_
000000000011d528 t __ZN5godot8internal22_call_native_mb_no_retIJPKNS_10StringNameEPKNS_7VariantEEEEvPKvPvDpRKT_
00000000001909fc t __ZN5godot8internal22_call_native_mb_no_retIJPKNS_10StringNameEPKNS_8CallableEEEEvPKvPvDpRKT_
000000000012e580 t __ZN5godot8internal22_call_native_mb_no_retIJPKNS_10StringNameEPPvEEEvPKvS5_DpRKT_
000000000017626c t __ZN5godot8internal22_call_native_mb_no_retIJPKNS_10StringNameEPaEEEvPKvPvDpRKT_
00000000001696a8 t __ZN5godot8internal22_call_native_mb_no_retIJPKNS_10StringNameEPdEEEvPKvPvDpRKT_
000000000012eba8 t __ZN5godot8internal22_call_native_mb_no_retIJPKNS_10StringNameEPxEEEvPKvPvDpRKT_
000000000011b2c0 t __ZN5godot8internal22_call_native_mb_no_retIJPKNS_11Transform2DEEEEvPKvPvDpRKT_
0000000000181b28 t __ZN5godot8internal22_call_native_mb_no_retIJPKNS_11Transform3DEEEEvPKvPvDpRKT_
00000000001a448c t __ZN5godot8internal22_call_native_mb_no_retIJPKNS_18PackedVector2ArrayEEEEvPKvPvDpRKT_
0000000000116898 t __ZN5godot8internal22_call_native_mb_no_retIJPKNS_18PackedVector2ArrayEPKNS_16PackedColorArrayEPdPaEEEvPKvPvDpRKT_
0000000000118aec t __ZN5godot8internal22_call_native_mb_no_retIJPKNS_18PackedVector2ArrayEPKNS_16PackedColorArrayES4_PPvEEEvPKvS8_DpRKT_
00000000001165f4 t __ZN5godot8internal22_call_native_mb_no_retIJPKNS_18PackedVector2ArrayEPKNS_5ColorEPdPaEEEvPKvPvDpRKT_
0000000000118fbc t __ZN5godot8internal22_call_native_mb_no_retIJPKNS_18PackedVector2ArrayEPKNS_5ColorES4_PPvEEEvPKvS8_DpRKT_
00000000001459fc t __ZN5godot8internal22_call_native_mb_no_retIJPKNS_18PackedVector2ArrayEPxEEEvPKvPvDpRKT_
000000000019c7b4 t __ZN5godot8internal22_call_native_mb_no_retIJPKNS_3RIDEEEEvPKvPvDpRKT_
000000000019a6ac t __ZN5godot8internal22_call_native_mb_no_retIJPKNS_3RIDEPKNS_5Rect2EEEEvPKvPvDpRKT_
000000000019bbc8 t __ZN5godot8internal22_call_native_mb_no_retIJPKNS_3RIDEPKNS_5Rect2EPaPKNS_5ColorES8_EEEvPKvPvDpRKT_
000000000019bea0 t __ZN5godot8internal22_call_native_mb_no_retIJPKNS_3RIDEPKNS_5Rect2ES7_PKNS_5ColorEPaSB_EEEvPKvPvDpRKT_
000000000019b910 t __ZN5godot8internal22_call_native_mb_no_retIJPKNS_3RIDEPKNS_7Vector2EPKNS_5ColorEPaEEEvPKvPvDpRKT_
000000000010b238 t __ZN5godot8internal22_call_native_mb_no_retIJPKNS_4AABBEEEEvPKvPvDpRKT_
0000000000183844 t __ZN5godot8internal22_call_native_mb_no_retIJPKNS_5BasisEEEEvPKvPvDpRKT_
00000000001149fc t __ZN5godot8internal22_call_native_mb_no_retIJPKNS_5ColorEEEEvPKvPvDpRKT_
0000000000117334 t __ZN5godot8internal22_call_native_mb_no_retIJPKNS_5Rect2EPKNS_5ColorEPaPdS8_EEEvPKvPvDpRKT_
00000000001a9848 t __ZN5godot8internal22_call_native_mb_no_retIJPKNS_6Rect2iEEEEvPKvPvDpRKT_
000000000011069c t __ZN5godot8internal22_call_native_mb_no_retIJPKNS_6StringEEEEvPKvPvDpRKT_
000000000018ec28 t __ZN5godot8internal22_call_native_mb_no_retIJPKNS_6StringEPKNS_5ArrayEEEEvPKvPvDpRKT_
000000000014a984 t __ZN5godot8internal22_call_native_mb_no_retIJPKNS_6StringEPKNS_5Rect2EPxS8_S8_S8_EEEvPKvPvDpRKT_
00000000001381ac t __ZN5godot8internal22_call_native_mb_no_retIJPKNS_6StringEPKNS_8CallableES7_EEEvPKvPvDpRKT_
0000000000165f7c t __ZN5godot8internal22_call_native_mb_no_retIJPKNS_6StringEPaEEEvPKvPvDpRKT_
000000000013e7e8 t __ZN5godot8internal22_call_native_mb_no_retIJPKNS_6StringEPxEEEvPKvPvDpRKT_
000000000013cf60 t __ZN5godot8internal22_call_native_mb_no_retIJPKNS_6StringEPxPKNS_7VariantEEEEvPKvPvDpRKT_
000000000013c978 t __ZN5godot8internal22_call_native_mb_no_retIJPKNS_6StringEPxPKNS_8CallableEEEEvPKvPvDpRKT_
000000000013e218 t __ZN5godot8internal22_call_native_mb_no_retIJPKNS_6StringEPxPPvEEEvPKvS6_DpRKT_
000000000013c340 t __ZN5godot8internal22_call_native_mb_no_retIJPKNS_6StringEPxPaEEEvPKvPvDpRKT_
000000000013d1b8 t __ZN5godot8internal22_call_native_mb_no_retIJPKNS_6StringEPxS4_EEEvPKvPvDpRKT_
000000000013d5f4 t __ZN5godot8internal22_call_native_mb_no_retIJPKNS_6StringEPxS5_EEEvPKvPvDpRKT_
0000000000196598 t __ZN5godot8internal22_call_native_mb_no_retIJPKNS_6StringES4_EEEvPKvPvDpRKT_
000000000013f7c0 t __ZN5godot8internal22_call_native_mb_no_retIJPKNS_6StringES4_PxPdS6_S5_PaEEEvPKvPvDpRKT_
000000000018df40 t __ZN5godot8internal22_call_native_mb_no_retIJPKNS_7VariantEEEEvPKvPvDpRKT_
00000000001346ac t __ZN5godot8internal22_call_native_mb_no_retIJPKNS_7VariantEPPvEEEvPKvS5_DpRKT_
00000000001292d4 t __ZN5godot8internal22_call_native_mb_no_retIJPKNS_7Vector2EEEEvPKvPvDpRKT_
0000000000129694 t __ZN5godot8internal22_call_native_mb_no_retIJPKNS_7Vector2EPaEEEvPKvPvDpRKT_
0000000000117654 t __ZN5godot8internal22_call_native_mb_no_retIJPKNS_7Vector2EPdPKNS_5ColorEPaS5_S9_EEEvPKvPvDpRKT_
000000000011b0a4 t __ZN5godot8internal22_call_native_mb_no_retIJPKNS_7Vector2EPdS4_EEEvPKvPvDpRKT_
0000000000116c0c t __ZN5godot8internal22_call_native_mb_no_retIJPKNS_7Vector2EPdS5_S5_PxPKNS_5ColorES5_PaEEEvPKvPvDpRKT_
0000000000115fe4 t __ZN5godot8internal22_call_native_mb_no_retIJPKNS_7Vector2ES4_PKNS_5ColorEPdPaEEEvPKvPvDpRKT_
000000000011631c t __ZN5godot8internal22_call_native_mb_no_retIJPKNS_7Vector2ES4_PKNS_5ColorEPdS8_PaS9_EEEvPKvPvDpRKT_
000000000010f5c4 t __ZN5godot8internal22_call_native_mb_no_retIJPKNS_7Vector3EEEEvPKvPvDpRKT_
00000000001881f0 t __ZN5godot8internal22_call_native_mb_no_retIJPKNS_7Vector3EPdEEEvPKvPvDpRKT_
0000000000189774 t __ZN5godot8internal22_call_native_mb_no_retIJPKNS_7Vector3ES4_PaEEEvPKvPvDpRKT_
00000000001899e8 t __ZN5godot8internal22_call_native_mb_no_retIJPKNS_7Vector3ES4_S4_PaEEEvPKvPvDpRKT_
00000000001407f4 t __ZN5godot8internal22_call_native_mb_no_retIJPKNS_8CallableEEEEvPKvPvDpRKT_
00000000001468f8 t __ZN5godot8internal22_call_native_mb_no_retIJPKNS_8CallableEPxEEEvPKvPvDpRKT_
0000000000137f80 t __ZN5godot8internal22_call_native_mb_no_retIJPKNS_8CallableES4_EEEvPKvPvDpRKT_
0000000000135450 t __ZN5godot8internal22_call_native_mb_no_retIJPKNS_8CallableES4_S4_EEEvPKvPvDpRKT_
0000000000133ef8 t __ZN5godot8internal22_call_native_mb_no_retIJPKNS_8NodePathEEEEvPKvPvDpRKT_
000000000018ceb0 t __ZN5godot8internal22_call_native_mb_no_retIJPKNS_8NodePathEPKNS_7VariantEEEEvPKvPvDpRKT_
0000000000140d2c t __ZN5godot8internal22_call_native_mb_no_retIJPKNS_8Vector2iEEEEvPKvPvDpRKT_
00000000001a9f38 t __ZN5godot8internal22_call_native_mb_no_retIJPKNS_8Vector2iEPdEEEvPKvPvDpRKT_
0000000000146348 t __ZN5godot8internal22_call_native_mb_no_retIJPKNS_8Vector2iEPxEEEvPKvPvDpRKT_
000000000010d430 t __ZN5godot8internal22_call_native_mb_no_retIJPNS_8BitFieldINS_15MouseButtonMaskEEEEEEvPKvPvDpRKT_
000000000017a5b0 t __ZN5godot8internal22_call_native_mb_no_retIJPNS_8BitFieldINS_4Node21ProcessThreadMessagesEEEEEEvPKvPvDpRKT_
000000000012cee8 t __ZN5godot8internal22_call_native_mb_no_retIJPNS_8BitFieldINS_7Control9SizeFlagsEEEEEEvPKvPvDpRKT_
000000000010b820 t __ZN5godot8internal22_call_native_mb_no_retIJPPvEEEvPKvS2_DpRKT_
0000000000118854 t __ZN5godot8internal22_call_native_mb_no_retIJPPvPKNS_5Rect2EEEEvPKvS2_DpRKT_
0000000000117c28 t __ZN5godot8internal22_call_native_mb_no_retIJPPvPKNS_5Rect2EPaPKNS_5ColorES7_EEEvPKvS2_DpRKT_
00000000001185bc t __ZN5godot8internal22_call_native_mb_no_retIJPPvPKNS_5Rect2ES6_PKNS_5ColorEEEEvPKvS2_DpRKT_
0000000000117f64 t __ZN5godot8internal22_call_native_mb_no_retIJPPvPKNS_5Rect2ES6_PKNS_5ColorEPaSA_EEEvPKvS2_DpRKT_
00000000001182d0 t __ZN5godot8internal22_call_native_mb_no_retIJPPvPKNS_5Rect2ES6_PKNS_5ColorEPdSA_SA_EEEvPKvS2_DpRKT_
00000000001aa18c t __ZN5godot8internal22_call_native_mb_no_retIJPPvPKNS_6Rect2iEEEEvPKvS2_DpRKT_
000000000011791c t __ZN5godot8internal22_call_native_mb_no_retIJPPvPKNS_7Vector2EPKNS_5ColorEEEEvPKvS2_DpRKT_
000000000011a528 t __ZN5godot8internal22_call_native_mb_no_retIJPPvPKNS_7Vector2EPKNS_6StringEPxPKNS_5ColorEEEEvPKvS2_DpRKT_
0000000000119388 t __ZN5godot8internal22_call_native_mb_no_retIJPPvPKNS_7Vector2EPKNS_6StringEPxPdSA_PKNS_5ColorEPNS_8BitFieldINS_10TextServer17JustificationFlagEEESA_SA_EEEvPKvS2_DpRKT_
0000000000119810 t __ZN5godot8internal22_call_native_mb_no_retIJPPvPKNS_7Vector2EPKNS_6StringEPxPdSA_SA_PKNS_5ColorEPNS_8BitFieldINS_10TextServer13LineBreakFlagEEEPNSF_INSG_17JustificationFlagEEESA_SA_EEEvPKvS2_DpRKT_
0000000000119cb0 t __ZN5godot8internal22_call_native_mb_no_retIJPPvPKNS_7Vector2EPKNS_6StringEPxPdSA_SA_PKNS_5ColorEPNS_8BitFieldINS_10TextServer17JustificationFlagEEESA_SA_EEEvPKvS2_DpRKT_
000000000011a188 t __ZN5godot8internal22_call_native_mb_no_retIJPPvPKNS_7Vector2EPKNS_6StringEPxPdSA_SA_SA_PKNS_5ColorEPNS_8BitFieldINS_10TextServer13LineBreakFlagEEEPNSF_INSG_17JustificationFlagEEESA_SA_EEEvPKvS2_DpRKT_
000000000011a850 t __ZN5godot8internal22_call_native_mb_no_retIJPPvPKNS_7Vector2EPKNS_6StringEPxSA_PKNS_5ColorEEEEvPKvS2_DpRKT_
00000000001aa5b4 t __ZN5godot8internal22_call_native_mb_no_retIJPPvPKNS_8Vector2iEEEEvPKvS2_DpRKT_
00000000001aaaac t __ZN5godot8internal22_call_native_mb_no_retIJPPvPKNS_8Vector2iEPdEEEvPKvS2_DpRKT_
0000000000172d98 t __ZN5godot8internal22_call_native_mb_no_retIJPPvPaEEEvPKvS2_DpRKT_
000000000017335c t __ZN5godot8internal22_call_native_mb_no_retIJPPvPaPxEEEvPKvS2_DpRKT_
00000000001aa828 t __ZN5godot8internal22_call_native_mb_no_retIJPPvPdEEEvPKvS2_DpRKT_
0000000000176824 t __ZN5godot8internal22_call_native_mb_no_retIJPPvPxEEEvPKvS2_DpRKT_
0000000000186f64 t __ZN5godot8internal22_call_native_mb_no_retIJPPvPxPKNS_11Transform3DEEEEvPKvS2_DpRKT_
000000000014b460 t __ZN5godot8internal22_call_native_mb_no_retIJPPvPxPKNS_7Vector2EEEEvPKvS2_DpRKT_
000000000011ae58 t __ZN5godot8internal22_call_native_mb_no_retIJPPvS3_EEEvPKvS2_DpRKT_
000000000011ab74 t __ZN5godot8internal22_call_native_mb_no_retIJPPvS3_PKNS_11Transform2DEPKNS_5ColorEEEEvPKvS2_DpRKT_
000000000010bf5c t __ZN5godot8internal22_call_native_mb_no_retIJPaEEEvPKvPvDpRKT_
0000000000149594 t __ZN5godot8internal22_call_native_mb_no_retIJPaPxEEEvPKvPvDpRKT_
0000000000170da8 t __ZN5godot8internal22_call_native_mb_no_retIJPaS2_EEEvPKvPvDpRKT_
0000000000129f50 t __ZN5godot8internal22_call_native_mb_no_retIJPdEEEvPKvPvDpRKT_
000000000011b564 t __ZN5godot8internal22_call_native_mb_no_retIJPdS2_S2_S2_EEEvPKvPvDpRKT_
0000000000109048 t __ZN5godot8internal22_call_native_mb_no_retIJPxEEEvPKvPvDpRKT_
0000000000108c38 t __ZN5godot8internal22_call_native_mb_no_retIJPxPKNS_10StringNameEEEEvPKvPvDpRKT_
000000000014e1d0 t __ZN5godot8internal22_call_native_mb_no_retIJPxPKNS_3RIDEEEEvPKvPvDpRKT_
0000000000109434 t __ZN5godot8internal22_call_native_mb_no_retIJPxPKNS_5ArrayEPKNS_10TypedArrayIS3_EEPKNS_10DictionaryEPNS_8BitFieldINS_4Mesh11ArrayFormatEEEEEEvPKvPvDpRKT_
00000000001451dc t __ZN5godot8internal22_call_native_mb_no_retIJPxPKNS_6Rect2iEEEEvPKvPvDpRKT_
000000000010a9d4 t __ZN5godot8internal22_call_native_mb_no_retIJPxPKNS_6StringEEEEvPKvPvDpRKT_
000000000013fec0 t __ZN5godot8internal22_call_native_mb_no_retIJPxPKNS_8CallableEEEEvPKvPvDpRKT_
0000000000133a68 t __ZN5godot8internal22_call_native_mb_no_retIJPxPKNS_8NodePathEEEEvPKvPvDpRKT_
000000000014dde0 t __ZN5godot8internal22_call_native_mb_no_retIJPxPPvEEEvPKvS3_DpRKT_
000000000011eef4 t __ZN5godot8internal22_call_native_mb_no_retIJPxPaEEEvPKvPvDpRKT_
00000000001480d8 t __ZN5godot8internal22_call_native_mb_no_retIJPxPaS2_EEEvPKvPvDpRKT_
0000000000128c24 t __ZN5godot8internal22_call_native_mb_no_retIJPxPdEEEvPKvPvDpRKT_
0000000000128774 t __ZN5godot8internal22_call_native_mb_no_retIJPxPdPaS4_EEEvPKvPvDpRKT_
00000000001290a8 t __ZN5godot8internal22_call_native_mb_no_retIJPxPdS3_PaEEEvPKvPvDpRKT_
00000000001677e4 t __ZN5godot8internal22_call_native_mb_no_retIJPxPdS3_S3_EEEvPKvPvDpRKT_
0000000000144218 t __ZN5godot8internal22_call_native_mb_no_retIJPxS2_EEEvPKvPvDpRKT_
00000000001099ec t __ZN5godot8internal22_call_native_mb_no_retIJPxS2_PKNS_15PackedByteArrayEEEEvPKvPvDpRKT_
00000000001282a0 t __ZN5godot8internal22_call_native_mb_no_retIJPxS2_S2_EEEvPKvPvDpRKT_
000000000005c8d0 t __ZN5godot8internal22create_c_property_listERKNS_4ListINS_12PropertyInfoENS_16DefaultAllocatorEEEPj
0000000000002ee0 t __ZN5godot8internal23EngineClassRegistrationINS_10BaseButtonEE8callbackEv
00000000000009e4 t __ZN5godot8internal23EngineClassRegistrationINS_10BaseButtonEEC1Ev
0000000000002eac t __ZN5godot8internal23EngineClassRegistrationINS_10BaseButtonEEC2Ev
0000000000002ae0 t __ZN5godot8internal23EngineClassRegistrationINS_10CanvasItemEE8callbackEv
000000000000098c t __ZN5godot8internal23EngineClassRegistrationINS_10CanvasItemEEC1Ev
0000000000002aac t __ZN5godot8internal23EngineClassRegistrationINS_10CanvasItemEEC2Ev
000000000002ab74 t __ZN5godot8internal23EngineClassRegistrationINS_10FileAccessEE8callbackEv
000000000001af9c t __ZN5godot8internal23EngineClassRegistrationINS_10FileAccessEEC1Ev
000000000002ab40 t __ZN5godot8internal23EngineClassRegistrationINS_10FileAccessEEC2Ev
0000000000120124 t __ZN5godot8internal23EngineClassRegistrationINS_10InputEventEE8callbackEv
0000000000113414 t __ZN5godot8internal23EngineClassRegistrationINS_10InputEventEEC1Ev
00000000001200f0 t __ZN5godot8internal23EngineClassRegistrationINS_10InputEventEEC2Ev
00000000000015e0 t __ZN5godot8internal23EngineClassRegistrationINS_10RefCountedEE8callbackEv
0000000000000800 t __ZN5godot8internal23EngineClassRegistrationINS_10RefCountedEEC1Ev
00000000000015ac t __ZN5godot8internal23EngineClassRegistrationINS_10RefCountedEEC2Ev
0000000000192ba0 t __ZN5godot8internal23EngineClassRegistrationINS_10SceneStateEE8callbackEv
000000000019231c t __ZN5godot8internal23EngineClassRegistrationINS_10SceneStateEEC1Ev
0000000000192b6c t __ZN5godot8internal23EngineClassRegistrationINS_10SceneStateEEC2Ev
00000000000023d0 t __ZN5godot8internal23EngineClassRegistrationINS_10TextServerEE8callbackEv
0000000000000908 t __ZN5godot8internal23EngineClassRegistrationINS_10TextServerEEC1Ev
000000000000239c t __ZN5godot8internal23EngineClassRegistrationINS_10TextServerEEC2Ev
000000000010e918 t __ZN5godot8internal23EngineClassRegistrationINS_11ButtonGroupEE8callbackEv
000000000010bd50 t __ZN5godot8internal23EngineClassRegistrationINS_11ButtonGroupEEC1Ev
000000000010e8e4 t __ZN5godot8internal23EngineClassRegistrationINS_11ButtonGroupEEC2Ev
000000000011fc14 t __ZN5godot8internal23EngineClassRegistrationINS_11CanvasLayerEE8callbackEv
00000000001133bc t __ZN5godot8internal23EngineClassRegistrationINS_11CanvasLayerEEC1Ev
000000000011fbe0 t __ZN5godot8internal23EngineClassRegistrationINS_11CanvasLayerEEC2Ev
0000000000189fc4 t __ZN5godot8internal23EngineClassRegistrationINS_11Node3DGizmoEE8callbackEv
0000000000181944 t __ZN5godot8internal23EngineClassRegistrationINS_11Node3DGizmoEEC1Ev
0000000000189f90 t __ZN5godot8internal23EngineClassRegistrationINS_11Node3DGizmoEEC2Ev
0000000000029f28 t __ZN5godot8internal23EngineClassRegistrationINS_11PackedSceneEE8callbackEv
000000000001aec0 t __ZN5godot8internal23EngineClassRegistrationINS_11PackedSceneEEC1Ev
0000000000029ef4 t __ZN5godot8internal23EngineClassRegistrationINS_11PackedSceneEEC2Ev
0000000000029418 t __ZN5godot8internal23EngineClassRegistrationINS_11SurfaceToolEE8callbackEv
000000000001ade4 t __ZN5godot8internal23EngineClassRegistrationINS_11SurfaceToolEEC1Ev
00000000000293e4 t __ZN5godot8internal23EngineClassRegistrationINS_11SurfaceToolEEC2Ev
000000000016eaf4 t __ZN5godot8internal23EngineClassRegistrationINS_12TriangleMeshEE8callbackEv
000000000016be40 t __ZN5godot8internal23EngineClassRegistrationINS_12TriangleMeshEEC1Ev
000000000016eac0 t __ZN5godot8internal23EngineClassRegistrationINS_12TriangleMeshEEC2Ev
000000000014f6c8 t __ZN5godot8internal23EngineClassRegistrationINS_13DisplayServerEE8callbackEv
0000000000137784 t __ZN5godot8internal23EngineClassRegistrationINS_13DisplayServerEEC1Ev
000000000014f694 t __ZN5godot8internal23EngineClassRegistrationINS_13DisplayServerEEC2Ev
000000000002a638 t __ZN5godot8internal23EngineClassRegistrationINS_13FastNoiseLiteEE8callbackEv
000000000001af44 t __ZN5godot8internal23EngineClassRegistrationINS_13FastNoiseLiteEEC1Ev
000000000002a604 t __ZN5godot8internal23EngineClassRegistrationINS_13FastNoiseLiteEEC2Ev
000000000002adfc t __ZN5godot8internal23EngineClassRegistrationINS_13PrimitiveMeshEE8callbackEv
000000000001afc8 t __ZN5godot8internal23EngineClassRegistrationINS_13PrimitiveMeshEEC1Ev
000000000002adc8 t __ZN5godot8internal23EngineClassRegistrationINS_13PrimitiveMeshEEC2Ev
0000000000171fc0 t __ZN5godot8internal23EngineClassRegistrationINS_13SkinReferenceEE8callbackEv
000000000016f410 t __ZN5godot8internal23EngineClassRegistrationINS_13SkinReferenceEEC1Ev
0000000000171f8c t __ZN5godot8internal23EngineClassRegistrationINS_13SkinReferenceEEC2Ev
0000000000029d28 t __ZN5godot8internal23EngineClassRegistrationINS_14MeshInstance3DEE8callbackEv
000000000001ae94 t __ZN5godot8internal23EngineClassRegistrationINS_14MeshInstance3DEEC1Ev
0000000000029cf4 t __ZN5godot8internal23EngineClassRegistrationINS_14MeshInstance3DEEC2Ev
0000000000180664 t __ZN5godot8internal23EngineClassRegistrationINS_14MultiplayerAPIEE8callbackEv
0000000000172954 t __ZN5godot8internal23EngineClassRegistrationINS_14MultiplayerAPIEEC1Ev
0000000000180630 t __ZN5godot8internal23EngineClassRegistrationINS_14MultiplayerAPIEEC2Ev
000000000002a1b0 t __ZN5godot8internal23EngineClassRegistrationINS_14ResourceLoaderEE8callbackEv
000000000001aeec t __ZN5godot8internal23EngineClassRegistrationINS_14ResourceLoaderEEC1Ev
000000000002a17c t __ZN5godot8internal23EngineClassRegistrationINS_14ResourceLoaderEEC2Ev
0000000000154664 t __ZN5godot8internal23EngineClassRegistrationINS_14ScriptLanguageEE8callbackEv
000000000014fda8 t __ZN5godot8internal23EngineClassRegistrationINS_14ScriptLanguageEEC1Ev
0000000000154630 t __ZN5godot8internal23EngineClassRegistrationINS_14ScriptLanguageEEC2Ev
000000000002a8c0 t __ZN5godot8internal23EngineClassRegistrationINS_14ShaderMaterialEE8callbackEv
000000000001af70 t __ZN5godot8internal23EngineClassRegistrationINS_14ShaderMaterialEEC1Ev
000000000002a88c t __ZN5godot8internal23EngineClassRegistrationINS_14ShaderMaterialEEC2Ev
00000000000013e0 t __ZN5godot8internal23EngineClassRegistrationINS_16ClassDBSingletonEE8callbackEv
00000000000007d4 t __ZN5godot8internal23EngineClassRegistrationINS_16ClassDBSingletonEEC1Ev
00000000000013ac t __ZN5godot8internal23EngineClassRegistrationINS_16ClassDBSingletonEEC2Ev
00000000000296a0 t __ZN5godot8internal23EngineClassRegistrationINS_16VisualInstance3DEE8callbackEv
000000000001ae10 t __ZN5godot8internal23EngineClassRegistrationINS_16VisualInstance3DEEC1Ev
000000000002966c t __ZN5godot8internal23EngineClassRegistrationINS_16VisualInstance3DEEC2Ev
00000000000298a0 t __ZN5godot8internal23EngineClassRegistrationINS_18GeometryInstance3DEE8callbackEv
000000000001ae3c t __ZN5godot8internal23EngineClassRegistrationINS_18GeometryInstance3DEEC1Ev
000000000002986c t __ZN5godot8internal23EngineClassRegistrationINS_18GeometryInstance3DEEC2Ev
000000000016e86c t __ZN5godot8internal23EngineClassRegistrationINS_20ConvexPolygonShape3DEE8callbackEv
000000000016be14 t __ZN5godot8internal23EngineClassRegistrationINS_20ConvexPolygonShape3DEEC1Ev
000000000016e838 t __ZN5godot8internal23EngineClassRegistrationINS_20ConvexPolygonShape3DEEC2Ev
0000000000197724 t __ZN5godot8internal23EngineClassRegistrationINS_20ResourceFormatLoaderEE8callbackEv
0000000000197454 t __ZN5godot8internal23EngineClassRegistrationINS_20ResourceFormatLoaderEEC1Ev
00000000001976f0 t __ZN5godot8internal23EngineClassRegistrationINS_20ResourceFormatLoaderEEC2Ev
000000000016e5e4 t __ZN5godot8internal23EngineClassRegistrationINS_21ConcavePolygonShape3DEE8callbackEv
000000000016bde8 t __ZN5godot8internal23EngineClassRegistrationINS_21ConcavePolygonShape3DEEC1Ev
000000000016e5b0 t __ZN5godot8internal23EngineClassRegistrationINS_21ConcavePolygonShape3DEEC2Ev
0000000000029aa0 t __ZN5godot8internal23EngineClassRegistrationINS_31MeshConvexDecompositionSettingsEE8callbackEv
000000000001ae68 t __ZN5godot8internal23EngineClassRegistrationINS_31MeshConvexDecompositionSettingsEEC1Ev
0000000000029a6c t __ZN5godot8internal23EngineClassRegistrationINS_31MeshConvexDecompositionSettingsEEC2Ev
000000000011fe9c t __ZN5godot8internal23EngineClassRegistrationINS_4FontEE8callbackEv
00000000001133e8 t __ZN5godot8internal23EngineClassRegistrationINS_4FontEEC1Ev
000000000011fe68 t __ZN5godot8internal23EngineClassRegistrationINS_4FontEEC2Ev
0000000000028f64 t __ZN5godot8internal23EngineClassRegistrationINS_4MeshEE8callbackEv
000000000001ad8c t __ZN5godot8internal23EngineClassRegistrationINS_4MeshEEC1Ev
0000000000028f30 t __ZN5godot8internal23EngineClassRegistrationINS_4MeshEEC2Ev
0000000000001f1c t __ZN5godot8internal23EngineClassRegistrationINS_4NodeEE8callbackEv
00000000000008b0 t __ZN5godot8internal23EngineClassRegistrationINS_4NodeEEC1Ev
0000000000001ee8 t __ZN5godot8internal23EngineClassRegistrationINS_4NodeEEC2Ev
0000000000171d38 t __ZN5godot8internal23EngineClassRegistrationINS_4SkinEE8callbackEv
000000000016f3e4 t __ZN5godot8internal23EngineClassRegistrationINS_4SkinEEC1Ev
0000000000171d04 t __ZN5godot8internal23EngineClassRegistrationINS_4SkinEEC2Ev
000000000014f71c t __ZN5godot8internal23EngineClassRegistrationINS_5ImageEE8callbackEv
00000000001377b0 t __ZN5godot8internal23EngineClassRegistrationINS_5ImageEEC1Ev
000000000014f6e8 t __ZN5godot8internal23EngineClassRegistrationINS_5ImageEEC2Ev
0000000000028d64 t __ZN5godot8internal23EngineClassRegistrationINS_5InputEE8callbackEv
000000000001ad60 t __ZN5godot8internal23EngineClassRegistrationINS_5InputEEC1Ev
0000000000028d30 t __ZN5godot8internal23EngineClassRegistrationINS_5InputEEC2Ev
000000000002a3b0 t __ZN5godot8internal23EngineClassRegistrationINS_5NoiseEE8callbackEv
000000000001af18 t __ZN5godot8internal23EngineClassRegistrationINS_5NoiseEEC1Ev
000000000002a37c t __ZN5godot8internal23EngineClassRegistrationINS_5NoiseEEC2Ev
0000000000136d98 t __ZN5godot8internal23EngineClassRegistrationINS_5ThemeEE8callbackEv
0000000000127928 t __ZN5godot8internal23EngineClassRegistrationINS_5ThemeEEC1Ev
0000000000136d64 t __ZN5godot8internal23EngineClassRegistrationINS_5ThemeEEC2Ev
0000000000180b74 t __ZN5godot8internal23EngineClassRegistrationINS_5TweenEE8callbackEv
00000000001729ac t __ZN5godot8internal23EngineClassRegistrationINS_5TweenEEC1Ev
0000000000180b40 t __ZN5godot8internal23EngineClassRegistrationINS_5TweenEEC2Ev
00000000000030e0 t __ZN5godot8internal23EngineClassRegistrationINS_6ButtonEE8callbackEv
0000000000000a10 t __ZN5godot8internal23EngineClassRegistrationINS_6ButtonEEC1Ev
00000000000030ac t __ZN5godot8internal23EngineClassRegistrationINS_6ButtonEEC2Ev
0000000000028b64 t __ZN5godot8internal23EngineClassRegistrationINS_6EngineEE8callbackEv
000000000001ad34 t __ZN5godot8internal23EngineClassRegistrationINS_6EngineEEC1Ev
0000000000028b30 t __ZN5godot8internal23EngineClassRegistrationINS_6EngineEEC2Ev
000000000000211c t __ZN5godot8internal23EngineClassRegistrationINS_6Node3DEE8callbackEv
00000000000008dc t __ZN5godot8internal23EngineClassRegistrationINS_6Node3DEEC1Ev
00000000000020e8 t __ZN5godot8internal23EngineClassRegistrationINS_6Node3DEEC2Ev
0000000000000b7c t __ZN5godot8internal23EngineClassRegistrationINS_6ObjectEE8callbackEv
00000000000007a8 t __ZN5godot8internal23EngineClassRegistrationINS_6ObjectEEC1Ev
0000000000000b48 t __ZN5godot8internal23EngineClassRegistrationINS_6ObjectEEC2Ev
0000000000001a68 t __ZN5godot8internal23EngineClassRegistrationINS_6ShaderEE8callbackEv
0000000000000858 t __ZN5godot8internal23EngineClassRegistrationINS_6ShaderEEC1Ev
0000000000001a34 t __ZN5godot8internal23EngineClassRegistrationINS_6ShaderEEC2Ev
0000000000181084 t __ZN5godot8internal23EngineClassRegistrationINS_6WindowEE8callbackEv
0000000000172a04 t __ZN5godot8internal23EngineClassRegistrationINS_6WindowEEC1Ev
0000000000181050 t __ZN5godot8internal23EngineClassRegistrationINS_6WindowEEC2Ev
000000000002affc t __ZN5godot8internal23EngineClassRegistrationINS_7BoxMeshEE8callbackEv
000000000001aff4 t __ZN5godot8internal23EngineClassRegistrationINS_7BoxMeshEEC1Ev
000000000002afc8 t __ZN5godot8internal23EngineClassRegistrationINS_7BoxMeshEEC2Ev
0000000000002ce0 t __ZN5godot8internal23EngineClassRegistrationINS_7ControlEE8callbackEv
00000000000009b8 t __ZN5godot8internal23EngineClassRegistrationINS_7ControlEEC1Ev
0000000000002cac t __ZN5godot8internal23EngineClassRegistrationINS_7ControlEEC2Ev
000000000016e35c t __ZN5godot8internal23EngineClassRegistrationINS_7Shape3DEE8callbackEv
000000000016bdbc t __ZN5godot8internal23EngineClassRegistrationINS_7Shape3DEEC1Ev
000000000016e328 t __ZN5godot8internal23EngineClassRegistrationINS_7Shape3DEEC2Ev
0000000000002658 t __ZN5godot8internal23EngineClassRegistrationINS_7TextureEE8callbackEv
0000000000000934 t __ZN5godot8internal23EngineClassRegistrationINS_7TextureEEC1Ev
0000000000002624 t __ZN5godot8internal23EngineClassRegistrationINS_7TextureEEC2Ev
0000000000120834 t __ZN5godot8internal23EngineClassRegistrationINS_7World2DEE8callbackEv
0000000000113498 t __ZN5godot8internal23EngineClassRegistrationINS_7World2DEEC1Ev
0000000000120800 t __ZN5godot8internal23EngineClassRegistrationINS_7World2DEEC2Ev
000000000018a24c t __ZN5godot8internal23EngineClassRegistrationINS_7World3DEE8callbackEv
0000000000181970 t __ZN5godot8internal23EngineClassRegistrationINS_7World3DEEC1Ev
000000000018a218 t __ZN5godot8internal23EngineClassRegistrationINS_7World3DEEC2Ev
0000000000154464 t __ZN5godot8internal23EngineClassRegistrationINS_8MainLoopEE8callbackEv
000000000014fd7c t __ZN5godot8internal23EngineClassRegistrationINS_8MainLoopEEC1Ev
0000000000154430 t __ZN5godot8internal23EngineClassRegistrationINS_8MainLoopEEC2Ev
0000000000001d1c t __ZN5godot8internal23EngineClassRegistrationINS_8MaterialEE8callbackEv
0000000000000884 t __ZN5godot8internal23EngineClassRegistrationINS_8MaterialEEC1Ev
0000000000001ce8 t __ZN5godot8internal23EngineClassRegistrationINS_8MaterialEEC2Ev
0000000000001868 t __ZN5godot8internal23EngineClassRegistrationINS_8ResourceEE8callbackEv
000000000000082c t __ZN5godot8internal23EngineClassRegistrationINS_8ResourceEEC1Ev
0000000000001834 t __ZN5godot8internal23EngineClassRegistrationINS_8ResourceEEC2Ev
000000000010eba0 t __ZN5godot8internal23EngineClassRegistrationINS_8ShortcutEE8callbackEv
000000000010bd7c t __ZN5godot8internal23EngineClassRegistrationINS_8ShortcutEEC1Ev
000000000010eb6c t __ZN5godot8internal23EngineClassRegistrationINS_8ShortcutEEC2Ev
0000000000120634 t __ZN5godot8internal23EngineClassRegistrationINS_8StyleBoxEE8callbackEv
000000000011346c t __ZN5godot8internal23EngineClassRegistrationINS_8StyleBoxEEC1Ev
0000000000120600 t __ZN5godot8internal23EngineClassRegistrationINS_8StyleBoxEEC2Ev
0000000000180dfc t __ZN5godot8internal23EngineClassRegistrationINS_8ViewportEE8callbackEv
00000000001729d8 t __ZN5godot8internal23EngineClassRegistrationINS_8ViewportEEC1Ev
0000000000180dc8 t __ZN5godot8internal23EngineClassRegistrationINS_8ViewportEEC2Ev
0000000000029164 t __ZN5godot8internal23EngineClassRegistrationINS_9ArrayMeshEE8callbackEv
000000000001adb8 t __ZN5godot8internal23EngineClassRegistrationINS_9ArrayMeshEEC1Ev
0000000000029130 t __ZN5godot8internal23EngineClassRegistrationINS_9ArrayMeshEEC2Ev
00000000001203ac t __ZN5godot8internal23EngineClassRegistrationINS_9MultiMeshEE8callbackEv
0000000000113440 t __ZN5godot8internal23EngineClassRegistrationINS_9MultiMeshEEC1Ev
0000000000120378 t __ZN5godot8internal23EngineClassRegistrationINS_9MultiMeshEEC2Ev
00000000001808ec t __ZN5godot8internal23EngineClassRegistrationINS_9SceneTreeEE8callbackEv
0000000000172980 t __ZN5godot8internal23EngineClassRegistrationINS_9SceneTreeEEC1Ev
00000000001808b8 t __ZN5godot8internal23EngineClassRegistrationINS_9SceneTreeEEC2Ev
00000000000028e0 t __ZN5godot8internal23EngineClassRegistrationINS_9Texture2DEE8callbackEv
0000000000000960 t __ZN5godot8internal23EngineClassRegistrationINS_9Texture2DEEC1Ev
00000000000028ac t __ZN5godot8internal23EngineClassRegistrationINS_9Texture2DEEC2Ev
000000000019a8bc t __ZN5godot8internal23_call_native_mb_ret_objINS_10CanvasItemEJEEEPT_PKvPvDpRKT0_
0000000000159378 t __ZN5godot8internal23_call_native_mb_ret_objINS_10FileAccessEJPKNS_6StringEPxEEEPT_PKvPvDpRKT0_
000000000015960c t __ZN5godot8internal23_call_native_mb_ret_objINS_10FileAccessEJPKNS_6StringEPxPKNS_15PackedByteArrayES9_EEEPT_PKvPvDpRKT0_
00000000001598b0 t __ZN5godot8internal23_call_native_mb_ret_objINS_10FileAccessEJPKNS_6StringEPxS5_EEEPT_PKvPvDpRKT0_
0000000000159b60 t __ZN5godot8internal23_call_native_mb_ret_objINS_10FileAccessEJPKNS_6StringEPxS6_EEEPT_PKvPvDpRKT0_
0000000000159fb0 t __ZN5godot8internal23_call_native_mb_ret_objINS_10FileAccessEJPxPKNS_6StringES6_PaEEEPT_PKvPvDpRKT0_
000000000011e934 t __ZN5godot8internal23_call_native_mb_ret_objINS_10InputEventEJPPvEEEPT_PKvS3_DpRKT0_
0000000000192acc t __ZN5godot8internal23_call_native_mb_ret_objINS_10SceneStateEJEEEPT_PKvPvDpRKT0_
000000000010e7c4 t __ZN5godot8internal23_call_native_mb_ret_objINS_11ButtonGroupEJEEEPT_PKvPvDpRKT0_
000000000011cb70 t __ZN5godot8internal23_call_native_mb_ret_objINS_11CanvasLayerEJEEEPT_PKvPvDpRKT0_
000000000016df0c t __ZN5godot8internal23_call_native_mb_ret_objINS_12TriangleMeshEJEEEPT_PKvPvDpRKT0_
000000000017027c t __ZN5godot8internal23_call_native_mb_ret_objINS_13SkinReferenceEJEEEPT_PKvPvDpRKT0_
000000000017e4d4 t __ZN5godot8internal23_call_native_mb_ret_objINS_14MultiplayerAPIEJEEEPT_PKvPvDpRKT0_
00000000001537e4 t __ZN5godot8internal23_call_native_mb_ret_objINS_14ScriptLanguageEJPxEEEPT_PKvPvDpRKT0_
000000000016d930 t __ZN5godot8internal23_call_native_mb_ret_objINS_20ConvexPolygonShape3DEJPaS3_EEEPT_PKvPvDpRKT0_
000000000016d5e4 t __ZN5godot8internal23_call_native_mb_ret_objINS_21ConcavePolygonShape3DEJEEEPT_PKvPvDpRKT0_
0000000000132060 t __ZN5godot8internal23_call_native_mb_ret_objINS_4FontEJEEEPT_PKvPvDpRKT0_
0000000000130120 t __ZN5godot8internal23_call_native_mb_ret_objINS_4FontEJPKNS_10StringNameES5_EEEPT_PKvPvDpRKT0_
000000000016f7b8 t __ZN5godot8internal23_call_native_mb_ret_objINS_4MeshEJEEEPT_PKvPvDpRKT0_
000000000016dc28 t __ZN5godot8internal23_call_native_mb_ret_objINS_4MeshEJPdEEEPT_PKvPvDpRKT0_
0000000000135d30 t __ZN5godot8internal23_call_native_mb_ret_objINS_4NodeEJEEEPT_PKvPvDpRKT0_
0000000000174fb4 t __ZN5godot8internal23_call_native_mb_ret_objINS_4NodeEJPKNS_6StringEEEEPT_PKvPvDpRKT0_
0000000000174984 t __ZN5godot8internal23_call_native_mb_ret_objINS_4NodeEJPKNS_6StringEPaS6_EEEPT_PKvPvDpRKT0_
00000000001743a4 t __ZN5godot8internal23_call_native_mb_ret_objINS_4NodeEJPKNS_8NodePathEEEEPT_PKvPvDpRKT0_
000000000017ccb0 t __ZN5godot8internal23_call_native_mb_ret_objINS_4NodeEJPxEEEPT_PKvPvDpRKT0_
0000000000173f20 t __ZN5godot8internal23_call_native_mb_ret_objINS_4NodeEJPxPaEEEPT_PKvPvDpRKT0_
000000000016ff9c t __ZN5godot8internal23_call_native_mb_ret_objINS_4SkinEJEEEPT_PKvPvDpRKT0_
00000000001416e8 t __ZN5godot8internal23_call_native_mb_ret_objINS_5ImageEJEEEPT_PKvPvDpRKT0_
0000000000143fa0 t __ZN5godot8internal23_call_native_mb_ret_objINS_5ImageEJPKNS_6Rect2iEEEEPT_PKvPvDpRKT0_
0000000000143d58 t __ZN5godot8internal23_call_native_mb_ret_objINS_5ImageEJPxEEEPT_PKvPvDpRKT0_
000000000018ba80 t __ZN5godot8internal23_call_native_mb_ret_objINS_5ImageEJPxS3_PaS4_PdS4_EEEPT_PKvPvDpRKT0_
000000000018b6d8 t __ZN5godot8internal23_call_native_mb_ret_objINS_5ImageEJPxS3_PaS4_S4_EEEPT_PKvPvDpRKT0_
000000000012dc10 t __ZN5godot8internal23_call_native_mb_ret_objINS_5ThemeEJEEEPT_PKvPvDpRKT0_
000000000017ca54 t __ZN5godot8internal23_call_native_mb_ret_objINS_5TweenEJEEEPT_PKvPvDpRKT0_
00000000001854d0 t __ZN5godot8internal23_call_native_mb_ret_objINS_6Node3DEJEEEPT_PKvPvDpRKT0_
0000000000152ad4 t __ZN5godot8internal23_call_native_mb_ret_objINS_6ObjectEJPKNS_10StringNameEEEEPT_PKvPvDpRKT0_
000000000017c3b4 t __ZN5godot8internal23_call_native_mb_ret_objINS_6WindowEJEEEPT_PKvPvDpRKT0_
000000000012c8cc t __ZN5godot8internal23_call_native_mb_ret_objINS_7ControlEJEEEPT_PKvPvDpRKT0_
000000000012ccb8 t __ZN5godot8internal23_call_native_mb_ret_objINS_7ControlEJPxEEEPT_PKvPvDpRKT0_
000000000011ce50 t __ZN5godot8internal23_call_native_mb_ret_objINS_7World2DEJEEEPT_PKvPvDpRKT0_
0000000000186024 t __ZN5godot8internal23_call_native_mb_ret_objINS_7World3DEJEEEPT_PKvPvDpRKT0_
00000000001519ec t __ZN5godot8internal23_call_native_mb_ret_objINS_8MainLoopEJEEEPT_PKvPvDpRKT0_
000000000011d2ec t __ZN5godot8internal23_call_native_mb_ret_objINS_8MaterialEJEEEPT_PKvPvDpRKT0_
000000000016d16c t __ZN5godot8internal23_call_native_mb_ret_objINS_8MaterialEJPxEEEPT_PKvPvDpRKT0_
000000000016ba38 t __ZN5godot8internal23_call_native_mb_ret_objINS_8ResourceEJEEEPT_PKvPvDpRKT0_
00000000001982e8 t __ZN5godot8internal23_call_native_mb_ret_objINS_8ResourceEJPKNS_6StringEEEEPT_PKvPvDpRKT0_
000000000019856c t __ZN5godot8internal23_call_native_mb_ret_objINS_8ResourceEJPKNS_6StringES5_PxEEEPT_PKvPvDpRKT0_
0000000000197148 t __ZN5godot8internal23_call_native_mb_ret_objINS_8ResourceEJPaEEEPT_PKvPvDpRKT0_
000000000010e2fc t __ZN5godot8internal23_call_native_mb_ret_objINS_8ShortcutEJEEEPT_PKvPvDpRKT0_
000000000012fe0c t __ZN5godot8internal23_call_native_mb_ret_objINS_8StyleBoxEJPKNS_10StringNameES5_EEEPT_PKvPvDpRKT0_
000000000017d830 t __ZN5godot8internal23_call_native_mb_ret_objINS_8ViewportEJEEEPT_PKvPvDpRKT0_
000000000010baa4 t __ZN5godot8internal23_call_native_mb_ret_objINS_9ArrayMeshEJEEEPT_PKvPvDpRKT0_
0000000000171a60 t __ZN5godot8internal23_call_native_mb_ret_objINS_9ArrayMeshEJPPvEEEPT_PKvS3_DpRKT0_
000000000017c774 t __ZN5godot8internal23_call_native_mb_ret_objINS_9SceneTreeEJEEEPT_PKvPvDpRKT0_
0000000000111a58 t __ZN5godot8internal23_call_native_mb_ret_objINS_9Texture2DEJEEEPT_PKvPvDpRKT0_
000000000012faf8 t __ZN5godot8internal23_call_native_mb_ret_objINS_9Texture2DEJPKNS_10StringNameES5_EEEPT_PKvPvDpRKT0_
000000000013becc t __ZN5godot8internal23_call_native_mb_ret_objINS_9Texture2DEJPKNS_6StringEPxEEEPT_PKvPvDpRKT0_
000000000005ccbc t __ZN5godot8internal23register_engine_classesEv
00000000000e0bec t __ZN5godot8internal25_call_builtin_constructorIJEEEvPFvPvPKPKvES2_DpT_
00000000000eff88 t __ZN5godot8internal25_call_builtin_constructorIJPKNS_10DictionaryEEEEvPFvPvPKPKvES5_DpT_
00000000000f00f4 t __ZN5godot8internal25_call_builtin_constructorIJPKNS_10DictionaryEPxPKNS_10StringNameEPKNS_7VariantES5_S8_SB_EEEvPFvPvPKPKvESC_DpT_
00000000000e0ddc t __ZN5godot8internal25_call_builtin_constructorIJPKNS_10StringNameEEEEvPFvPvPKPKvES5_DpT_
00000000000f2ee4 t __ZN5godot8internal25_call_builtin_constructorIJPKNS_15PackedByteArrayEEEEvPFvPvPKPKvES5_DpT_
00000000000f36c4 t __ZN5godot8internal25_call_builtin_constructorIJPKNS_16PackedColorArrayEEEEvPFvPvPKPKvES5_DpT_
00000000000f2fe0 t __ZN5godot8internal25_call_builtin_constructorIJPKNS_16PackedInt32ArrayEEEEvPFvPvPKPKvES5_DpT_
00000000000f30dc t __ZN5godot8internal25_call_builtin_constructorIJPKNS_16PackedInt64ArrayEEEEvPFvPvPKPKvES5_DpT_
00000000000f33d0 t __ZN5godot8internal25_call_builtin_constructorIJPKNS_17PackedStringArrayEEEEvPFvPvPKPKvES5_DpT_
00000000000f31d8 t __ZN5godot8internal25_call_builtin_constructorIJPKNS_18PackedFloat32ArrayEEEEvPFvPvPKPKvES5_DpT_
00000000000f32d4 t __ZN5godot8internal25_call_builtin_constructorIJPKNS_18PackedFloat64ArrayEEEEvPFvPvPKPKvES5_DpT_
00000000000f34cc t __ZN5godot8internal25_call_builtin_constructorIJPKNS_18PackedVector2ArrayEEEEvPFvPvPKPKvES5_DpT_
00000000000f35c8 t __ZN5godot8internal25_call_builtin_constructorIJPKNS_18PackedVector3ArrayEEEEvPFvPvPKPKvES5_DpT_
00000000000f37c0 t __ZN5godot8internal25_call_builtin_constructorIJPKNS_18PackedVector4ArrayEEEEvPFvPvPKPKvES5_DpT_
00000000000ec284 t __ZN5godot8internal25_call_builtin_constructorIJPKNS_3RIDEEEEvPFvPvPKPKvES5_DpT_
00000000000f2c7c t __ZN5godot8internal25_call_builtin_constructorIJPKNS_5ArrayEEEEvPFvPvPKPKvES5_DpT_
00000000000f2dac t __ZN5godot8internal25_call_builtin_constructorIJPKNS_5ArrayEPxPKNS_10StringNameEPKNS_7VariantEEEEvPFvPvPKPKvESC_DpT_
00000000000ee748 t __ZN5godot8internal25_call_builtin_constructorIJPKNS_6SignalEEEEvPFvPvPKPKvES5_DpT_
00000000000e0ce0 t __ZN5godot8internal25_call_builtin_constructorIJPKNS_6StringEEEEvPFvPvPKPKvES5_DpT_
00000000000ed2a0 t __ZN5godot8internal25_call_builtin_constructorIJPKNS_8CallableEEEEvPFvPvPKPKvES5_DpT_
00000000000e0ed8 t __ZN5godot8internal25_call_builtin_constructorIJPKNS_8NodePathEEEEvPFvPvPKPKvES5_DpT_
00000000000f026c t __ZN5godot8internal25_call_builtin_constructorIJPNS_10DictionaryEEEEvPFvPvPKPKvES4_DpT_
00000000000ed3d4 t __ZN5godot8internal25_call_builtin_constructorIJPPvPKNS_10StringNameEEEEvPFvS2_PKPKvES2_DpT_
00000000000f8d58 t __ZN5godot8internal26_call_builtin_operator_ptrINS_15PackedByteArrayEEET_PFvPKvS5_PvES5_S5_
0000000000106624 t __ZN5godot8internal26_call_builtin_operator_ptrINS_16PackedColorArrayEEET_PFvPKvS5_PvES5_S5_
00000000000fa6c8 t __ZN5godot8internal26_call_builtin_operator_ptrINS_16PackedInt32ArrayEEET_PFvPKvS5_PvES5_S5_
00000000000fc038 t __ZN5godot8internal26_call_builtin_operator_ptrINS_16PackedInt64ArrayEEET_PFvPKvS5_PvES5_S5_
0000000000100f74 t __ZN5godot8internal26_call_builtin_operator_ptrINS_17PackedStringArrayEEET_PFvPKvS5_PvES5_S5_
00000000000fdc08 t __ZN5godot8internal26_call_builtin_operator_ptrINS_18PackedFloat32ArrayEEET_PFvPKvS5_PvES5_S5_
00000000000ff578 t __ZN5godot8internal26_call_builtin_operator_ptrINS_18PackedFloat64ArrayEEET_PFvPKvS5_PvES5_S5_
0000000000102bbc t __ZN5godot8internal26_call_builtin_operator_ptrINS_18PackedVector2ArrayEEET_PFvPKvS5_PvES5_S5_
00000000001048d0 t __ZN5godot8internal26_call_builtin_operator_ptrINS_18PackedVector3ArrayEEET_PFvPKvS5_PvES5_S5_
0000000000108290 t __ZN5godot8internal26_call_builtin_operator_ptrINS_18PackedVector4ArrayEEET_PFvPKvS5_PvES5_S5_
00000000000f508c t __ZN5godot8internal26_call_builtin_operator_ptrINS_5ArrayEEET_PFvPKvS5_PvES5_S5_
00000000000e41ec t __ZN5godot8internal26_call_builtin_operator_ptrINS_6StringEEET_PFvPKvS5_PvES5_S5_
00000000000e4130 t __ZN5godot8internal26_call_builtin_operator_ptrIaEET_PFvPKvS4_PvES4_S4_
0000000000077960 t __ZN5godot8internal27get_object_instance_bindingEPv
00000000000f0650 t __ZN5godot8internal28_call_builtin_method_ptr_retINS_10DictionaryEJPKS2_PaEEET_PFvPvPKPKvS7_iES7_DpT0_
00000000000f0a8c t __ZN5godot8internal28_call_builtin_method_ptr_retINS_10DictionaryEJPaEEET_PFvPvPKPKvS5_iES5_DpT0_
00000000000eb818 t __ZN5godot8internal28_call_builtin_method_ptr_retINS_10StringNameEJEEET_PFvPvPKPKvS4_iES4_DpT0_
00000000000eb670 t __ZN5godot8internal28_call_builtin_method_ptr_retINS_10StringNameEJPxEEET_PFvPvPKPKvS5_iES5_DpT0_
00000000000e2ea8 t __ZN5godot8internal28_call_builtin_method_ptr_retINS_15PackedByteArrayEJEEET_PFvPvPKPKvS4_iES4_DpT0_
00000000000f7910 t __ZN5godot8internal28_call_builtin_method_ptr_retINS_15PackedByteArrayEJPxEEET_PFvPvPKPKvS5_iES5_DpT0_
00000000000f7408 t __ZN5godot8internal28_call_builtin_method_ptr_retINS_15PackedByteArrayEJPxS3_EEET_PFvPvPKPKvS5_iES5_DpT0_
0000000000106234 t __ZN5godot8internal28_call_builtin_method_ptr_retINS_16PackedColorArrayEJEEET_PFvPvPKPKvS4_iES4_DpT0_
0000000000106000 t __ZN5godot8internal28_call_builtin_method_ptr_retINS_16PackedColorArrayEJPxS3_EEET_PFvPvPKPKvS5_iES5_DpT0_
00000000000f81c0 t __ZN5godot8internal28_call_builtin_method_ptr_retINS_16PackedInt32ArrayEJEEET_PFvPvPKPKvS4_iES4_DpT0_
00000000000fa224 t __ZN5godot8internal28_call_builtin_method_ptr_retINS_16PackedInt32ArrayEJPxS3_EEET_PFvPvPKPKvS5_iES5_DpT0_
00000000000f82b0 t __ZN5godot8internal28_call_builtin_method_ptr_retINS_16PackedInt64ArrayEJEEET_PFvPvPKPKvS4_iES4_DpT0_
00000000000fbb94 t __ZN5godot8internal28_call_builtin_method_ptr_retINS_16PackedInt64ArrayEJPxS3_EEET_PFvPvPKPKvS5_iES5_DpT0_
00000000000e1b90 t __ZN5godot8internal28_call_builtin_method_ptr_retINS_17PackedStringArrayEJEEET_PFvPvPKPKvS4_iES4_DpT0_
00000000000e2450 t __ZN5godot8internal28_call_builtin_method_ptr_retINS_17PackedStringArrayEJPKNS_6StringEPaPxEEET_PFvPvPKPKvS9_iES9_DpT0_
0000000000100ad4 t __ZN5godot8internal28_call_builtin_method_ptr_retINS_17PackedStringArrayEJPxS3_EEET_PFvPvPKPKvS5_iES5_DpT0_
00000000000f83a0 t __ZN5godot8internal28_call_builtin_method_ptr_retINS_18PackedFloat32ArrayEJEEET_PFvPvPKPKvS4_iES4_DpT0_
00000000000fd62c t __ZN5godot8internal28_call_builtin_method_ptr_retINS_18PackedFloat32ArrayEJPxS3_EEET_PFvPvPKPKvS5_iES5_DpT0_
00000000000f8490 t __ZN5godot8internal28_call_builtin_method_ptr_retINS_18PackedFloat64ArrayEJEEET_PFvPvPKPKvS4_iES4_DpT0_
00000000000e2620 t __ZN5godot8internal28_call_builtin_method_ptr_retINS_18PackedFloat64ArrayEJPKNS_6StringEPaEEET_PFvPvPKPKvS8_iES8_DpT0_
00000000000ff0d4 t __ZN5godot8internal28_call_builtin_method_ptr_retINS_18PackedFloat64ArrayEJPxS3_EEET_PFvPvPKPKvS5_iES5_DpT0_
000000000010284c t __ZN5godot8internal28_call_builtin_method_ptr_retINS_18PackedVector2ArrayEJEEET_PFvPvPKPKvS4_iES4_DpT0_
0000000000102618 t __ZN5godot8internal28_call_builtin_method_ptr_retINS_18PackedVector2ArrayEJPxS3_EEET_PFvPvPKPKvS5_iES5_DpT0_
0000000000104560 t __ZN5godot8internal28_call_builtin_method_ptr_retINS_18PackedVector3ArrayEJEEET_PFvPvPKPKvS4_iES4_DpT0_
000000000010432c t __ZN5godot8internal28_call_builtin_method_ptr_retINS_18PackedVector3ArrayEJPxS3_EEET_PFvPvPKPKvS5_iES5_DpT0_
0000000000107ea0 t __ZN5godot8internal28_call_builtin_method_ptr_retINS_18PackedVector4ArrayEJEEET_PFvPvPKPKvS4_iES4_DpT0_
0000000000107c6c t __ZN5godot8internal28_call_builtin_method_ptr_retINS_18PackedVector4ArrayEJPxS3_EEET_PFvPvPKPKvS5_iES5_DpT0_
00000000000eda70 t __ZN5godot8internal28_call_builtin_method_ptr_retINS_5ArrayEJEEET_PFvPvPKPKvS4_iES4_DpT0_
00000000000f49a4 t __ZN5godot8internal28_call_builtin_method_ptr_retINS_5ArrayEJPKNS_8CallableEEEET_PFvPvPKPKvS7_iES7_DpT0_
00000000000f4704 t __ZN5godot8internal28_call_builtin_method_ptr_retINS_5ArrayEJPaEEET_PFvPvPKPKvS5_iES5_DpT0_
00000000000f488c t __ZN5godot8internal28_call_builtin_method_ptr_retINS_5ArrayEJPxS3_S3_PaEEET_PFvPvPKPKvS6_iES6_DpT0_
00000000001059a0 t __ZN5godot8internal28_call_builtin_method_ptr_retINS_5ColorEJPxEEET_PFvPvPKPKvS5_iES5_DpT0_
00000000000e2080 t __ZN5godot8internal28_call_builtin_method_ptr_retINS_6StringEJEEET_PFvPvPKPKvS4_iES4_DpT0_
00000000000e2720 t __ZN5godot8internal28_call_builtin_method_ptr_retINS_6StringEJPKNS_17PackedStringArrayEEEET_PFvPvPKPKvS7_iES7_DpT0_
00000000000e1d28 t __ZN5godot8internal28_call_builtin_method_ptr_retINS_6StringEJPKNS_7VariantEPKS2_EEET_PFvPvPKPKvS9_iES9_DpT0_
00000000000e2ac8 t __ZN5godot8internal28_call_builtin_method_ptr_retINS_6StringEJPKS2_EEET_PFvPvPKPKvS6_iES6_DpT0_
00000000000e14ac t __ZN5godot8internal28_call_builtin_method_ptr_retINS_6StringEJPKS2_PxEEET_PFvPvPKPKvS7_iES7_DpT0_
00000000000e1e30 t __ZN5godot8internal28_call_builtin_method_ptr_retINS_6StringEJPKS2_S4_EEET_PFvPvPKPKvS6_iES6_DpT0_
00000000000e3268 t __ZN5godot8internal28_call_builtin_method_ptr_retINS_6StringEJPaEEET_PFvPvPKPKvS5_iES5_DpT0_
00000000000e2990 t __ZN5godot8internal28_call_builtin_method_ptr_retINS_6StringEJPaS3_EEET_PFvPvPKPKvS5_iES5_DpT0_
00000000000e3c2c t __ZN5godot8internal28_call_builtin_method_ptr_retINS_6StringEJPdEEET_PFvPvPKPKvS5_iES5_DpT0_
00000000000e3d5c t __ZN5godot8internal28_call_builtin_method_ptr_retINS_6StringEJPdPxEEET_PFvPvPKPKvS6_iES6_DpT0_
00000000000e1f94 t __ZN5godot8internal28_call_builtin_method_ptr_retINS_6StringEJPxEEET_PFvPvPKPKvS5_iES5_DpT0_
00000000000e219c t __ZN5godot8internal28_call_builtin_method_ptr_retINS_6StringEJPxPKS2_EEET_PFvPvPKPKvS7_iES7_DpT0_
00000000000e1388 t __ZN5godot8internal28_call_builtin_method_ptr_retINS_6StringEJPxS3_EEET_PFvPvPKPKvS5_iES5_DpT0_
00000000000e3ec8 t __ZN5godot8internal28_call_builtin_method_ptr_retINS_6StringEJPxS3_PaEEET_PFvPvPKPKvS6_iES6_DpT0_
00000000000f1014 t __ZN5godot8internal28_call_builtin_method_ptr_retINS_7VariantEJEEET_PFvPvPKPKvS4_iES4_DpT0_
00000000000ed71c t __ZN5godot8internal28_call_builtin_method_ptr_retINS_7VariantEJPKNS_5ArrayEEEET_PFvPvPKPKvS7_iES7_DpT0_
00000000000f4ae0 t __ZN5godot8internal28_call_builtin_method_ptr_retINS_7VariantEJPKNS_8CallableEPKS2_EEET_PFvPvPKPKvS9_iES9_DpT0_
00000000000f0890 t __ZN5godot8internal28_call_builtin_method_ptr_retINS_7VariantEJPKS2_EEET_PFvPvPKPKvS6_iES6_DpT0_
00000000000f0b88 t __ZN5godot8internal28_call_builtin_method_ptr_retINS_7VariantEJPKS2_S4_EEET_PFvPvPKPKvS6_iES6_DpT0_
00000000000f3b00 t __ZN5godot8internal28_call_builtin_method_ptr_retINS_7VariantEJPxEEET_PFvPvPKPKvS5_iES5_DpT0_
00000000000f8044 t __ZN5godot8internal28_call_builtin_method_ptr_retINS_7VariantEJPxPaEEET_PFvPvPKPKvS6_iES6_DpT0_
0000000000101f94 t __ZN5godot8internal28_call_builtin_method_ptr_retINS_7Vector2EJPxEEET_PFvPvPKPKvS5_iES5_DpT0_
0000000000103ca4 t __ZN5godot8internal28_call_builtin_method_ptr_retINS_7Vector3EJPxEEET_PFvPvPKPKvS5_iES5_DpT0_
000000000010761c t __ZN5godot8internal28_call_builtin_method_ptr_retINS_7Vector4EJPxEEET_PFvPvPKPKvS5_iES5_DpT0_
00000000000edbc8 t __ZN5godot8internal28_call_builtin_method_ptr_retINS_8CallableEJPKNS_5ArrayEEEET_PFvPvPKPKvS7_iES7_DpT0_
00000000000ed61c t __ZN5godot8internal28_call_builtin_method_ptr_retINS_8CallableEJPKNS_7VariantEPKNS_10StringNameEEEET_PFvPvPKPKvSA_iESA_DpT0_
00000000000edcd8 t __ZN5godot8internal28_call_builtin_method_ptr_retINS_8CallableEJPxEEET_PFvPvPKPKvS5_iES5_DpT0_
00000000000eba80 t __ZN5godot8internal28_call_builtin_method_ptr_retINS_8NodePathEJEEET_PFvPvPKPKvS4_iES4_DpT0_
00000000000eb988 t __ZN5godot8internal28_call_builtin_method_ptr_retINS_8NodePathEJPxS3_EEET_PFvPvPKPKvS5_iES5_DpT0_
00000000000e3008 t __ZN5godot8internal28_call_builtin_method_ptr_retIaJEEET_PFvPvPKPKvS3_iES3_DpT0_
00000000000f0e2c t __ZN5godot8internal28_call_builtin_method_ptr_retIaJPKNS_10DictionaryEEEET_PFvPvPKPKvS6_iES6_DpT0_
00000000000f11d0 t __ZN5godot8internal28_call_builtin_method_ptr_retIaJPKNS_10DictionaryEPxEEET_PFvPvPKPKvS7_iES7_DpT0_
00000000000f07f0 t __ZN5godot8internal28_call_builtin_method_ptr_retIaJPKNS_5ArrayEEEET_PFvPvPKPKvS6_iES6_DpT0_
0000000000105ba8 t __ZN5godot8internal28_call_builtin_method_ptr_retIaJPKNS_5ColorEEEET_PFvPvPKPKvS6_iES6_DpT0_
00000000000e19b8 t __ZN5godot8internal28_call_builtin_method_ptr_retIaJPKNS_6StringEEEET_PFvPvPKPKvS6_iES6_DpT0_
00000000000f0750 t __ZN5godot8internal28_call_builtin_method_ptr_retIaJPKNS_7VariantEEEET_PFvPvPKPKvS6_iES6_DpT0_
00000000000f0cd8 t __ZN5godot8internal28_call_builtin_method_ptr_retIaJPKNS_7VariantES4_EEET_PFvPvPKPKvS6_iES6_DpT0_
00000000001021c0 t __ZN5godot8internal28_call_builtin_method_ptr_retIaJPKNS_7Vector2EEEET_PFvPvPKPKvS6_iES6_DpT0_
0000000000103ed4 t __ZN5godot8internal28_call_builtin_method_ptr_retIaJPKNS_7Vector3EEEET_PFvPvPKPKvS6_iES6_DpT0_
0000000000107814 t __ZN5godot8internal28_call_builtin_method_ptr_retIaJPKNS_7Vector4EEEET_PFvPvPKPKvS6_iES6_DpT0_
00000000000eec24 t __ZN5godot8internal28_call_builtin_method_ptr_retIaJPKNS_8CallableEEEET_PFvPvPKPKvS6_iES6_DpT0_
00000000000e365c t __ZN5godot8internal28_call_builtin_method_ptr_retIaJPaEEET_PFvPvPKPKvS4_iES4_DpT0_
00000000000fd164 t __ZN5godot8internal28_call_builtin_method_ptr_retIaJPdEEET_PFvPvPKPKvS4_iES4_DpT0_
00000000000f6f9c t __ZN5godot8internal28_call_builtin_method_ptr_retIaJPxEEET_PFvPvPKPKvS4_iES4_DpT0_
00000000000f7f4c t __ZN5godot8internal28_call_builtin_method_ptr_retIaJPxPaEEET_PFvPvPKPKvS5_iES5_DpT0_
00000000000e37c4 t __ZN5godot8internal28_call_builtin_method_ptr_retIdJEEET_PFvPvPKPKvS3_iES3_DpT0_
00000000000e1c80 t __ZN5godot8internal28_call_builtin_method_ptr_retIdJPKNS_6StringEEEET_PFvPvPKPKvS6_iES6_DpT0_
00000000000f7db8 t __ZN5godot8internal28_call_builtin_method_ptr_retIdJPxEEET_PFvPvPKPKvS4_iES4_DpT0_
00000000000e12a8 t __ZN5godot8internal28_call_builtin_method_ptr_retIxJEEET_PFvPvPKPKvS3_iES3_DpT0_
0000000000106448 t __ZN5godot8internal28_call_builtin_method_ptr_retIxJPKNS_5ColorEEEET_PFvPvPKPKvS6_iES6_DpT0_
0000000000106190 t __ZN5godot8internal28_call_builtin_method_ptr_retIxJPKNS_5ColorEPaEEET_PFvPvPKPKvS7_iES7_DpT0_
0000000000106348 t __ZN5godot8internal28_call_builtin_method_ptr_retIxJPKNS_5ColorEPxEEET_PFvPvPKPKvS7_iES7_DpT0_
00000000000e1100 t __ZN5godot8internal28_call_builtin_method_ptr_retIxJPKNS_6StringEEEET_PFvPvPKPKvS6_iES6_DpT0_
0000000000100c64 t __ZN5godot8internal28_call_builtin_method_ptr_retIxJPKNS_6StringEPaEEET_PFvPvPKPKvS7_iES7_DpT0_
00000000000e1680 t __ZN5godot8internal28_call_builtin_method_ptr_retIxJPKNS_6StringEPxEEET_PFvPvPKPKvS7_iES7_DpT0_
00000000000e17c8 t __ZN5godot8internal28_call_builtin_method_ptr_retIxJPKNS_6StringEPxS5_EEET_PFvPvPKPKvS7_iES7_DpT0_
00000000000f42ac t __ZN5godot8internal28_call_builtin_method_ptr_retIxJPKNS_7VariantEEEET_PFvPvPKPKvS6_iES6_DpT0_
00000000000f45f4 t __ZN5godot8internal28_call_builtin_method_ptr_retIxJPKNS_7VariantEPKNS_8CallableEPaEEET_PFvPvPKPKvSA_iESA_DpT0_
00000000000f4518 t __ZN5godot8internal28_call_builtin_method_ptr_retIxJPKNS_7VariantEPaEEET_PFvPvPKPKvS7_iES7_DpT0_
00000000000f40f4 t __ZN5godot8internal28_call_builtin_method_ptr_retIxJPKNS_7VariantEPxEEET_PFvPvPKPKvS7_iES7_DpT0_
0000000000102a60 t __ZN5godot8internal28_call_builtin_method_ptr_retIxJPKNS_7Vector2EEEET_PFvPvPKPKvS6_iES6_DpT0_
00000000001027a8 t __ZN5godot8internal28_call_builtin_method_ptr_retIxJPKNS_7Vector2EPaEEET_PFvPvPKPKvS7_iES7_DpT0_
0000000000102960 t __ZN5godot8internal28_call_builtin_method_ptr_retIxJPKNS_7Vector2EPxEEET_PFvPvPKPKvS7_iES7_DpT0_
0000000000104774 t __ZN5godot8internal28_call_builtin_method_ptr_retIxJPKNS_7Vector3EEEET_PFvPvPKPKvS6_iES6_DpT0_
00000000001044bc t __ZN5godot8internal28_call_builtin_method_ptr_retIxJPKNS_7Vector3EPaEEET_PFvPvPKPKvS7_iES7_DpT0_
0000000000104674 t __ZN5godot8internal28_call_builtin_method_ptr_retIxJPKNS_7Vector3EPxEEET_PFvPvPKPKvS7_iES7_DpT0_
00000000001080b4 t __ZN5godot8internal28_call_builtin_method_ptr_retIxJPKNS_7Vector4EEEET_PFvPvPKPKvS6_iES6_DpT0_
0000000000107dfc t __ZN5godot8internal28_call_builtin_method_ptr_retIxJPKNS_7Vector4EPaEEET_PFvPvPKPKvS7_iES7_DpT0_
0000000000107fb4 t __ZN5godot8internal28_call_builtin_method_ptr_retIxJPKNS_7Vector4EPxEEET_PFvPvPKPKvS7_iES7_DpT0_
00000000000eeae4 t __ZN5godot8internal28_call_builtin_method_ptr_retIxJPKNS_8CallableEPxEEET_PFvPvPKPKvS7_iES7_DpT0_
00000000000fda2c t __ZN5godot8internal28_call_builtin_method_ptr_retIxJPdEEET_PFvPvPKPKvS4_iES4_DpT0_
00000000000fd7d8 t __ZN5godot8internal28_call_builtin_method_ptr_retIxJPdPaEEET_PFvPvPKPKvS5_iES5_DpT0_
00000000000fd8f4 t __ZN5godot8internal28_call_builtin_method_ptr_retIxJPdPxEEET_PFvPvPKPKvS5_iES5_DpT0_
00000000000e2cc0 t __ZN5godot8internal28_call_builtin_method_ptr_retIxJPxEEET_PFvPvPKPKvS4_iES4_DpT0_
0000000000105d8c t __ZN5godot8internal28_call_builtin_method_ptr_retIxJPxPKNS_5ColorEEEET_PFvPvPKPKvS7_iES7_DpT0_
0000000000100860 t __ZN5godot8internal28_call_builtin_method_ptr_retIxJPxPKNS_6StringEEEET_PFvPvPKPKvS7_iES7_DpT0_
00000000000f3e64 t __ZN5godot8internal28_call_builtin_method_ptr_retIxJPxPKNS_7VariantEEEET_PFvPvPKPKvS7_iES7_DpT0_
00000000000f8b64 t __ZN5godot8internal28_call_builtin_method_ptr_retIxJPxPKNS_7VariantEPaEEET_PFvPvPKPKvS8_iES8_DpT0_
00000000001023a4 t __ZN5godot8internal28_call_builtin_method_ptr_retIxJPxPKNS_7Vector2EEEET_PFvPvPKPKvS7_iES7_DpT0_
00000000001040b8 t __ZN5godot8internal28_call_builtin_method_ptr_retIxJPxPKNS_7Vector3EEEET_PFvPvPKPKvS7_iES7_DpT0_
00000000001079f8 t __ZN5godot8internal28_call_builtin_method_ptr_retIxJPxPKNS_7Vector4EEEET_PFvPvPKPKvS7_iES7_DpT0_
00000000000f757c t __ZN5godot8internal28_call_builtin_method_ptr_retIxJPxPaEEET_PFvPvPKPKvS5_iES5_DpT0_
00000000000fd380 t __ZN5godot8internal28_call_builtin_method_ptr_retIxJPxPdEEET_PFvPvPKPKvS5_iES5_DpT0_
00000000000f71b8 t __ZN5godot8internal28_call_builtin_method_ptr_retIxJPxS2_EEET_PFvPvPKPKvS4_iES4_DpT0_
00000000000f03f0 t __ZN5godot8internal31_call_builtin_method_ptr_no_retIJEEEvPFvPvPKPKvS2_iES2_DpT_
00000000000f0484 t __ZN5godot8internal31_call_builtin_method_ptr_no_retIJPKNS_10DictionaryEEEEvPFvPvPKPKvS5_iES5_DpT_
00000000000f0578 t __ZN5godot8internal31_call_builtin_method_ptr_no_retIJPKNS_10DictionaryEPaEEEvPFvPvPKPKvS6_iES6_DpT_
00000000000f7090 t __ZN5godot8internal31_call_builtin_method_ptr_no_retIJPKNS_15PackedByteArrayEEEEvPFvPvPKPKvS5_iES5_DpT_
0000000000105c80 t __ZN5godot8internal31_call_builtin_method_ptr_no_retIJPKNS_16PackedColorArrayEEEEvPFvPvPKPKvS5_iES5_DpT_
00000000000f9f18 t __ZN5godot8internal31_call_builtin_method_ptr_no_retIJPKNS_16PackedInt32ArrayEEEEvPFvPvPKPKvS5_iES5_DpT_
00000000000fb888 t __ZN5godot8internal31_call_builtin_method_ptr_no_retIJPKNS_16PackedInt64ArrayEEEEvPFvPvPKPKvS5_iES5_DpT_
0000000000100754 t __ZN5godot8internal31_call_builtin_method_ptr_no_retIJPKNS_17PackedStringArrayEEEEvPFvPvPKPKvS5_iES5_DpT_
00000000000fd258 t __ZN5godot8internal31_call_builtin_method_ptr_no_retIJPKNS_18PackedFloat32ArrayEEEEvPFvPvPKPKvS5_iES5_DpT_
00000000000fedc8 t __ZN5godot8internal31_call_builtin_method_ptr_no_retIJPKNS_18PackedFloat64ArrayEEEEvPFvPvPKPKvS5_iES5_DpT_
0000000000102298 t __ZN5godot8internal31_call_builtin_method_ptr_no_retIJPKNS_18PackedVector2ArrayEEEEvPFvPvPKPKvS5_iES5_DpT_
0000000000103fac t __ZN5godot8internal31_call_builtin_method_ptr_no_retIJPKNS_18PackedVector3ArrayEEEEvPFvPvPKPKvS5_iES5_DpT_
00000000001078ec t __ZN5godot8internal31_call_builtin_method_ptr_no_retIJPKNS_18PackedVector4ArrayEEEEvPFvPvPKPKvS5_iES5_DpT_
00000000000f3a48 t __ZN5godot8internal31_call_builtin_method_ptr_no_retIJPKNS_5ArrayEEEEvPFvPvPKPKvS5_iES5_DpT_
0000000000105e30 t __ZN5godot8internal31_call_builtin_method_ptr_no_retIJPKNS_5ColorEEEEvPFvPvPKPKvS5_iES5_DpT_
0000000000100904 t __ZN5godot8internal31_call_builtin_method_ptr_no_retIJPKNS_6StringEEEEvPFvPvPKPKvS5_iES5_DpT_
00000000000f3cb0 t __ZN5godot8internal31_call_builtin_method_ptr_no_retIJPKNS_7VariantEEEEvPFvPvPKPKvS5_iES5_DpT_
0000000000102448 t __ZN5godot8internal31_call_builtin_method_ptr_no_retIJPKNS_7Vector2EEEEvPFvPvPKPKvS5_iES5_DpT_
000000000010415c t __ZN5godot8internal31_call_builtin_method_ptr_no_retIJPKNS_7Vector3EEEEvPFvPvPKPKvS5_iES5_DpT_
0000000000107a9c t __ZN5godot8internal31_call_builtin_method_ptr_no_retIJPKNS_7Vector4EEEEvPFvPvPKPKvS5_iES5_DpT_
00000000000eeb88 t __ZN5godot8internal31_call_builtin_method_ptr_no_retIJPKNS_8CallableEEEEvPFvPvPKPKvS5_iES5_DpT_
00000000000fd440 t __ZN5godot8internal31_call_builtin_method_ptr_no_retIJPdEEEvPFvPvPKPKvS3_iES3_DpT_
00000000000f3f24 t __ZN5godot8internal31_call_builtin_method_ptr_no_retIJPxEEEvPFvPvPKPKvS3_iES3_DpT_
0000000000105a98 t __ZN5godot8internal31_call_builtin_method_ptr_no_retIJPxPKNS_5ColorEEEEvPFvPvPKPKvS6_iES6_DpT_
00000000001005cc t __ZN5godot8internal31_call_builtin_method_ptr_no_retIJPxPKNS_6StringEEEEvPFvPvPKPKvS6_iES6_DpT_
00000000000f3c10 t __ZN5godot8internal31_call_builtin_method_ptr_no_retIJPxPKNS_7VariantEEEEvPFvPvPKPKvS6_iES6_DpT_
00000000001020b0 t __ZN5godot8internal31_call_builtin_method_ptr_no_retIJPxPKNS_7Vector2EEEEvPFvPvPKPKvS6_iES6_DpT_
0000000000103dc4 t __ZN5godot8internal31_call_builtin_method_ptr_no_retIJPxPKNS_7Vector3EEEEvPFvPvPKPKvS6_iES6_DpT_
0000000000107704 t __ZN5godot8internal31_call_builtin_method_ptr_no_retIJPxPKNS_7Vector4EEEEvPFvPvPKPKvS6_iES6_DpT_
00000000000f8980 t __ZN5godot8internal31_call_builtin_method_ptr_no_retIJPxPdEEEvPFvPvPKPKvS4_iES4_DpT_
00000000000f6e70 t __ZN5godot8internal31_call_builtin_method_ptr_no_retIJPxS2_EEEvPFvPvPKPKvS3_iES3_DpT_
00000000000ed8e0 t __ZN5godot8internal32_call_builtin_method_ptr_ret_objINS_6ObjectEJEEEPT_PFvPvPKPKvS5_iES5_DpRKT0_
000000000005cbb0 t __ZN5godot8internal38add_engine_class_registration_callbackEPFvvE
000000000005c7f8 t __ZN5godot8internal39get_engine_class_registration_callbacksEv
0000000000058328 t __ZN5godot8internalL12get_doc_dataEv
00000000001094e4 t __ZN5godot9ArrayMesh14clear_surfacesEv
0000000000109660 t __ZN5godot9ArrayMesh14surface_removeEi
00000000001083fc t __ZN5godot9ArrayMesh15add_blend_shapeERKNS_10StringNameE
000000000010ae54 t __ZN5godot9ArrayMesh15lightmap_unwrapERKNS_11Transform3DEf
000000000010b0ac t __ZN5godot9ArrayMesh15set_custom_aabbERKNS_4AABBE
000000000010b638 t __ZN5godot9ArrayMesh15set_shadow_meshERKNS_3RefIS0_EE
0000000000029184 t __ZN5godot9ArrayMesh16get_class_staticEv
000000000010a81c t __ZN5godot9ArrayMesh16surface_set_nameEiRKNS_6StringE
000000000010acd8 t __ZN5godot9ArrayMesh17regen_normal_mapsEv
0000000000108cb8 t __ZN5godot9ArrayMesh18clear_blend_shapesEv
0000000000108ea0 t __ZN5godot9ArrayMesh20set_blend_shape_modeENS_4Mesh14BlendShapeModeE
0000000000108a80 t __ZN5godot9ArrayMesh20set_blend_shape_nameEiRKNS_10StringNameE
00000000001cca28 s __ZN5godot9ArrayMesh22_gde_binding_callbacksE
000000000010924c t __ZN5godot9ArrayMesh23add_surface_from_arraysENS_4Mesh13PrimitiveTypeERKNS_5ArrayERKNS_10TypedArrayIS3_EERKNS_10DictionaryENS_8BitFieldINS1_11ArrayFormatEEE
0000000000029258 t __ZN5godot9ArrayMesh26_gde_binding_free_callbackEPvS1_S1_
0000000000109c60 t __ZN5godot9ArrayMesh26surface_update_skin_regionEiiRKNS_15PackedByteArrayE
0000000000029214 t __ZN5godot9ArrayMesh28_gde_binding_create_callbackEPvS1_
0000000000109808 t __ZN5godot9ArrayMesh28surface_update_vertex_regionEiiRKNS_15PackedByteArrayE
000000000002929c t __ZN5godot9ArrayMesh31_gde_binding_reference_callbackEPvS1_h
0000000000109a7c t __ZN5godot9ArrayMesh31surface_update_attribute_regionEiiRKNS_15PackedByteArrayE
00000000001d0430 d __ZN5godot9ArrayMesh37_gde_engine_class_registration_helperE
000000000002f80c t __ZN5godot9ArrayMeshC1EPKc
00000000000292b8 t __ZN5godot9ArrayMeshC1EPv
000000000002f7a4 t __ZN5godot9ArrayMeshC1Ev
000000000002f840 t __ZN5godot9ArrayMeshC2EPKc
00000000000292ec t __ZN5godot9ArrayMeshC2EPv
000000000002935c t __ZN5godot9ArrayMeshD0Ev
0000000000029330 t __ZN5godot9ArrayMeshD1Ev
000000000002938c t __ZN5godot9ArrayMeshD2Ev
00000000001203cc t __ZN5godot9MultiMesh16get_class_staticEv
00000000001cd668 s __ZN5godot9MultiMesh22_gde_binding_callbacksE
00000000001204a0 t __ZN5godot9MultiMesh26_gde_binding_free_callbackEPvS1_S1_
000000000012045c t __ZN5godot9MultiMesh28_gde_binding_create_callbackEPvS1_
00000000001204e4 t __ZN5godot9MultiMesh31_gde_binding_reference_callbackEPvS1_h
00000000001d0730 d __ZN5godot9MultiMesh37_gde_engine_class_registration_helperE
0000000000120500 t __ZN5godot9MultiMeshC1EPv
0000000000120534 t __ZN5godot9MultiMeshC2EPv
00000000001205a4 t __ZN5godot9MultiMeshD0Ev
0000000000120578 t __ZN5godot9MultiMeshD1Ev
00000000001205d4 t __ZN5godot9MultiMeshD2Ev
000000000018090c t __ZN5godot9SceneTree16get_class_staticEv
00000000001cdff0 s __ZN5godot9SceneTree22_gde_binding_callbacksE
00000000001809e0 t __ZN5godot9SceneTree26_gde_binding_free_callbackEPvS1_S1_
000000000018099c t __ZN5godot9SceneTree28_gde_binding_create_callbackEPvS1_
0000000000180a24 t __ZN5godot9SceneTree31_gde_binding_reference_callbackEPvS1_h
00000000001d0c18 d __ZN5godot9SceneTree37_gde_engine_class_registration_helperE
0000000000180a40 t __ZN5godot9SceneTreeC1EPv
0000000000180a74 t __ZN5godot9SceneTreeC2EPv
0000000000180ae4 t __ZN5godot9SceneTreeD0Ev
0000000000180ab8 t __ZN5godot9SceneTreeD1Ev
0000000000180b14 t __ZN5godot9SceneTreeD2Ev
0000000000002900 t __ZN5godot9Texture2D16get_class_staticEv
00000000001cc3a0 s __ZN5godot9Texture2D22_gde_binding_callbacksE
00000000000029d4 t __ZN5godot9Texture2D26_gde_binding_free_callbackEPvS1_S1_
0000000000002990 t __ZN5godot9Texture2D28_gde_binding_create_callbackEPvS1_
0000000000002a18 t __ZN5godot9Texture2D31_gde_binding_reference_callbackEPvS1_h
00000000001d0290 d __ZN5godot9Texture2D37_gde_engine_class_registration_helperE
0000000000002a34 t __ZN5godot9Texture2DC1EPv
0000000000002a68 t __ZN5godot9Texture2DC2EPv
000000000019c380 t __ZN5godot9Texture2DD0Ev
000000000019c354 t __ZN5godot9Texture2DD1Ev
000000000019c3b0 t __ZN5godot9Texture2DD2Ev
0000000000057798 t __ZN5godot9memdeleteINS_10FileAccessELb1EEEvPT_
0000000000120ccc t __ZN5godot9memdeleteINS_10InputEventELb1EEEvPT_
0000000000063dac t __ZN5godot9memdeleteINS_10MethodBindEEEvPT_PNSt3__19enable_ifIXntsr3stdE12is_base_of_vINS_7WrappedES2_EEvE4typeE
0000000000192ec0 t __ZN5godot9memdeleteINS_10SceneStateELb1EEEvPT_
000000000010efc0 t __ZN5godot9memdeleteINS_11ButtonGroupELb1EEEvPT_
0000000000032250 t __ZN5godot9memdeleteINS_11PackedSceneELb1EEEvPT_
000000000016f014 t __ZN5godot9memdeleteINS_12TriangleMeshELb1EEEvPT_
000000000002f324 t __ZN5godot9memdeleteINS_13FastNoiseLiteELb1EEEvPT_
00000000001723e0 t __ZN5godot9memdeleteINS_13SkinReferenceELb1EEEvPT_
00000000001814cc t __ZN5godot9memdeleteINS_14MultiplayerAPIELb1EEEvPT_
000000000016ef14 t __ZN5godot9memdeleteINS_20ConvexPolygonShape3DELb1EEEvPT_
000000000016ee14 t __ZN5godot9memdeleteINS_21ConcavePolygonShape3DELb1EEEvPT_
00000000001372b8 t __ZN5godot9memdeleteINS_4FontELb1EEEvPT_
000000000002fc8c t __ZN5godot9memdeleteINS_4MeshELb1EEEvPT_
00000000001722e0 t __ZN5godot9memdeleteINS_4SkinELb1EEEvPT_
000000000014fa50 t __ZN5godot9memdeleteINS_5ImageELb1EEEvPT_
00000000001370b8 t __ZN5godot9memdeleteINS_5ThemeELb1EEEvPT_
00000000001813cc t __ZN5godot9memdeleteINS_5TweenELb1EEEvPT_
000000000002fda4 t __ZN5godot9memdeleteINS_7BoxMeshELb1EEEvPT_
0000000000120bcc t __ZN5godot9memdeleteINS_7World2DELb1EEEvPT_
000000000018a56c t __ZN5godot9memdeleteINS_7World3DELb1EEEvPT_
0000000000017694 t __ZN5godot9memdeleteINS_8MaterialELb1EEEvPT_
0000000000031f34 t __ZN5godot9memdeleteINS_8ResourceELb1EEEvPT_
000000000010eec0 t __ZN5godot9memdeleteINS_8ShortcutELb1EEEvPT_
00000000001371b8 t __ZN5godot9memdeleteINS_8StyleBoxELb1EEEvPT_
000000000002f6f8 t __ZN5godot9memdeleteINS_9ArrayMeshELb1EEEvPT_
0000000000112f98 t __ZN5godot9memdeleteINS_9Texture2DELb1EEEvPT_
000000000001379c t __ZN5godotL18make_property_infoENS_7Variant4TypeERKNS_10StringNameEjRKNS_6StringEjS4_
00000000000d8d78 t __ZN5godoteqEPKDiRKNS_6StringE
00000000000d8cf0 t __ZN5godoteqEPKDsRKNS_6StringE
00000000000d8be0 t __ZN5godoteqEPKcRKNS_6StringE
00000000000d8c68 t __ZN5godoteqEPKwRKNS_6StringE
00000000000d8e90 t __ZN5godotneEPKDiRKNS_6StringE
00000000000d8e60 t __ZN5godotneEPKDsRKNS_6StringE
00000000000d8e00 t __ZN5godotneEPKcRKNS_6StringE
00000000000d8e30 t __ZN5godotneEPKwRKNS_6StringE
00000000000d90c0 t __ZN5godotplEDiRKNS_6StringE
00000000000d9040 t __ZN5godotplEPKDiRKNS_6StringE
00000000000d8fc0 t __ZN5godotplEPKDsRKNS_6StringE
00000000000d8ec0 t __ZN5godotplEPKcRKNS_6StringE
00000000000d8f40 t __ZN5godotplEPKwRKNS_6StringE
0000000000021ef0 t __ZN6Celebi11LibraryItemC1EOS0_
0000000000022bbc t __ZN6Celebi11LibraryItemC1Ev
0000000000021f24 t __ZN6Celebi11LibraryItemC2EOS0_
0000000000022c1c t __ZN6Celebi11LibraryItemC2Ev
0000000000022258 t __ZN6Celebi11LibraryItemD1Ev
0000000000022284 t __ZN6Celebi11LibraryItemD2Ev
00000000000243d8 t __ZN6Celebi11LibraryItemaSEOS0_
0000000000020218 t __ZN6Celebi4DataC1Ev
0000000000020278 t __ZN6Celebi4DataC2Ev
000000000001e620 t __ZN6Celebi4DataD1Ev
0000000000028a30 t __ZN6Celebi4DataD2Ev
0000000000022de8 t __ZN6Celebi9from_jsonERKN8nlohmann16json_abi_v3_12_010basic_jsonINSt3__13mapENS3_6vectorENS3_12basic_stringIcNS3_11char_traitsIcEENS3_9allocatorIcEEEEbxydS9_NS1_14adl_serializerENS5_IhNS9_IhEEEEvEERNS_11LibraryItemE
00000000000205c8 t __ZN6Celebi9from_jsonERKN8nlohmann16json_abi_v3_12_010basic_jsonINSt3__13mapENS3_6vectorENS3_12basic_stringIcNS3_11char_traitsIcEENS3_9allocatorIcEEEEbxydS9_NS1_14adl_serializerENS5_IhNS9_IhEEEEvEERNS_4DataE
000000000001db3c t __ZN7MinHeapINSt3__112basic_stringIcNS0_11char_traitsIcEENS0_9allocatorIcEEEEE10extractMinEv
0000000000037fd8 t __ZN7MinHeapINSt3__112basic_stringIcNS0_11char_traitsIcEENS0_9allocatorIcEEEEE11heapifyDownEm
000000000001d8b0 t __ZN7MinHeapINSt3__112basic_stringIcNS0_11char_traitsIcEENS0_9allocatorIcEEEEE14updatePriorityERKS6_i
00000000000347e0 t __ZN7MinHeapINSt3__112basic_stringIcNS0_11char_traitsIcEENS0_9allocatorIcEEEEE4NodeC1EOS8_
00000000000383f0 t __ZN7MinHeapINSt3__112basic_stringIcNS0_11char_traitsIcEENS0_9allocatorIcEEEEE4NodeC1ERKS8_
0000000000034814 t __ZN7MinHeapINSt3__112basic_stringIcNS0_11char_traitsIcEENS0_9allocatorIcEEEEE4NodeC2EOS8_
000000000003850c t __ZN7MinHeapINSt3__112basic_stringIcNS0_11char_traitsIcEENS0_9allocatorIcEEEEE4NodeC2ERKS8_
000000000001fe40 t __ZN7MinHeapINSt3__112basic_stringIcNS0_11char_traitsIcEENS0_9allocatorIcEEEEE4NodeD1Ev
000000000001fe6c t __ZN7MinHeapINSt3__112basic_stringIcNS0_11char_traitsIcEENS0_9allocatorIcEEEEE4NodeD2Ev
0000000000037b88 t __ZN7MinHeapINSt3__112basic_stringIcNS0_11char_traitsIcEENS0_9allocatorIcEEEEE4NodeaSEOS8_
0000000000038498 t __ZN7MinHeapINSt3__112basic_stringIcNS0_11char_traitsIcEENS0_9allocatorIcEEEEE4NodeaSERKS8_
0000000000037a88 t __ZN7MinHeapINSt3__112basic_stringIcNS0_11char_traitsIcEENS0_9allocatorIcEEEEE4swapEmm
000000000001d6f4 t __ZN7MinHeapINSt3__112basic_stringIcNS0_11char_traitsIcEENS0_9allocatorIcEEEEE6insertERKS6_i
0000000000034494 t __ZN7MinHeapINSt3__112basic_stringIcNS0_11char_traitsIcEENS0_9allocatorIcEEEEE9heapifyUpEm
000000000001d6c8 t __ZN7MinHeapINSt3__112basic_stringIcNS0_11char_traitsIcEENS0_9allocatorIcEEEEEC1Ev
000000000001ea7c t __ZN7MinHeapINSt3__112basic_stringIcNS0_11char_traitsIcEENS0_9allocatorIcEEEEEC2Ev
000000000001dc40 t __ZN7MinHeapINSt3__112basic_stringIcNS0_11char_traitsIcEENS0_9allocatorIcEEEEED1Ev
000000000001f428 t __ZN7MinHeapINSt3__112basic_stringIcNS0_11char_traitsIcEENS0_9allocatorIcEEEEED2Ev
000000000002b83c t __ZN8nlohmann16json_abi_v3_12_010basic_jsonINSt3__13mapENS2_6vectorENS2_12basic_stringIcNS2_11char_traitsIcEENS2_9allocatorIcEEEEbxydS8_NS0_14adl_serializerENS4_IhNS8_IhEEEEvE10json_value7destroyENS0_6detail7value_tE
00000000000390e0 t __ZN8nlohmann16json_abi_v3_12_010basic_jsonINSt3__13mapENS2_6vectorENS2_12basic_stringIcNS2_11char_traitsIcEENS2_9allocatorIcEEEEbxydS8_NS0_14adl_serializerENS4_IhNS8_IhEEEEvE10json_valueC1ENS0_6detail7value_tE
0000000000045c28 t __ZN8nlohmann16json_abi_v3_12_010basic_jsonINSt3__13mapENS2_6vectorENS2_12basic_stringIcNS2_11char_traitsIcEENS2_9allocatorIcEEEEbxydS8_NS0_14adl_serializerENS4_IhNS8_IhEEEEvE10json_valueC1ERKNS0_27byte_container_with_subtypeISD_EE
0000000000045ab8 t __ZN8nlohmann16json_abi_v3_12_010basic_jsonINSt3__13mapENS2_6vectorENS2_12basic_stringIcNS2_11char_traitsIcEENS2_9allocatorIcEEEEbxydS8_NS0_14adl_serializerENS4_IhNS8_IhEEEEvE10json_valueC1ERKNS3_ISA_SE_NS2_4lessIvEENS8_INS2_4pairIKSA_SE_EEEEEE
0000000000045aec t __ZN8nlohmann16json_abi_v3_12_010basic_jsonINSt3__13mapENS2_6vectorENS2_12basic_stringIcNS2_11char_traitsIcEENS2_9allocatorIcEEEEbxydS8_NS0_14adl_serializerENS4_IhNS8_IhEEEEvE10json_valueC1ERKNS4_ISE_NS8_ISE_EEEE
0000000000045b20 t __ZN8nlohmann16json_abi_v3_12_010basic_jsonINSt3__13mapENS2_6vectorENS2_12basic_stringIcNS2_11char_traitsIcEENS2_9allocatorIcEEEEbxydS8_NS0_14adl_serializerENS4_IhNS8_IhEEEEvE10json_valueC1ERKSA_
0000000000045b54 t __ZN8nlohmann16json_abi_v3_12_010basic_jsonINSt3__13mapENS2_6vectorENS2_12basic_stringIcNS2_11char_traitsIcEENS2_9allocatorIcEEEEbxydS8_NS0_14adl_serializerENS4_IhNS8_IhEEEEvE10json_valueC1Eb
0000000000045bf4 t __ZN8nlohmann16json_abi_v3_12_010basic_jsonINSt3__13mapENS2_6vectorENS2_12basic_stringIcNS2_11char_traitsIcEENS2_9allocatorIcEEEEbxydS8_NS0_14adl_serializerENS4_IhNS8_IhEEEEvE10json_valueC1Ed
0000000000045b8c t __ZN8nlohmann16json_abi_v3_12_010basic_jsonINSt3__13mapENS2_6vectorENS2_12basic_stringIcNS2_11char_traitsIcEENS2_9allocatorIcEEEEbxydS8_NS0_14adl_serializerENS4_IhNS8_IhEEEEvE10json_valueC1Ex
0000000000045bc0 t __ZN8nlohmann16json_abi_v3_12_010basic_jsonINSt3__13mapENS2_6vectorENS2_12basic_stringIcNS2_11char_traitsIcEENS2_9allocatorIcEEEEbxydS8_NS0_14adl_serializerENS4_IhNS8_IhEEEEvE10json_valueC1Ey
0000000000039114 t __ZN8nlohmann16json_abi_v3_12_010basic_jsonINSt3__13mapENS2_6vectorENS2_12basic_stringIcNS2_11char_traitsIcEENS2_9allocatorIcEEEEbxydS8_NS0_14adl_serializerENS4_IhNS8_IhEEEEvE10json_valueC2ENS0_6detail7value_tE
0000000000048c6c t __ZN8nlohmann16json_abi_v3_12_010basic_jsonINSt3__13mapENS2_6vectorENS2_12basic_stringIcNS2_11char_traitsIcEENS2_9allocatorIcEEEEbxydS8_NS0_14adl_serializerENS4_IhNS8_IhEEEEvE10json_valueC2ERKNS0_27byte_container_with_subtypeISD_EE
0000000000045c78 t __ZN8nlohmann16json_abi_v3_12_010basic_jsonINSt3__13mapENS2_6vectorENS2_12basic_stringIcNS2_11char_traitsIcEENS2_9allocatorIcEEEEbxydS8_NS0_14adl_serializerENS4_IhNS8_IhEEEEvE10json_valueC2ERKNS3_ISA_SE_NS2_4lessIvEENS8_INS2_4pairIKSA_SE_EEEEEE
0000000000047b74 t __ZN8nlohmann16json_abi_v3_12_010basic_jsonINSt3__13mapENS2_6vectorENS2_12basic_stringIcNS2_11char_traitsIcEENS2_9allocatorIcEEEEbxydS8_NS0_14adl_serializerENS4_IhNS8_IhEEEEvE10json_valueC2ERKNS4_ISE_NS8_ISE_EEEE
0000000000048714 t __ZN8nlohmann16json_abi_v3_12_010basic_jsonINSt3__13mapENS2_6vectorENS2_12basic_stringIcNS2_11char_traitsIcEENS2_9allocatorIcEEEEbxydS8_NS0_14adl_serializerENS4_IhNS8_IhEEEEvE10json_valueC2ERKSA_
0000000000048be8 t __ZN8nlohmann16json_abi_v3_12_010basic_jsonINSt3__13mapENS2_6vectorENS2_12basic_stringIcNS2_11char_traitsIcEENS2_9allocatorIcEEEEbxydS8_NS0_14adl_serializerENS4_IhNS8_IhEEEEvE10json_valueC2Eb
0000000000048c4c t __ZN8nlohmann16json_abi_v3_12_010basic_jsonINSt3__13mapENS2_6vectorENS2_12basic_stringIcNS2_11char_traitsIcEENS2_9allocatorIcEEEEbxydS8_NS0_14adl_serializerENS4_IhNS8_IhEEEEvE10json_valueC2Ed
0000000000048c0c t __ZN8nlohmann16json_abi_v3_12_010basic_jsonINSt3__13mapENS2_6vectorENS2_12basic_stringIcNS2_11char_traitsIcEENS2_9allocatorIcEEEEbxydS8_NS0_14adl_serializerENS4_IhNS8_IhEEEEvE10json_valueC2Ex
0000000000048c2c t __ZN8nlohmann16json_abi_v3_12_010basic_jsonINSt3__13mapENS2_6vectorENS2_12basic_stringIcNS2_11char_traitsIcEENS2_9allocatorIcEEEEbxydS8_NS0_14adl_serializerENS4_IhNS8_IhEEEEvE10json_valueC2Ey
000000000002daa8 t __ZN8nlohmann16json_abi_v3_12_010basic_jsonINSt3__13mapENS2_6vectorENS2_12basic_stringIcNS2_11char_traitsIcEENS2_9allocatorIcEEEEbxydS8_NS0_14adl_serializerENS4_IhNS8_IhEEEEvE11set_parentsEv
0000000000045368 t __ZN8nlohmann16json_abi_v3_12_010basic_jsonINSt3__13mapENS2_6vectorENS2_12basic_stringIcNS2_11char_traitsIcEENS2_9allocatorIcEEEEbxydS8_NS0_14adl_serializerENS4_IhNS8_IhEEEEvE3endEv
000000000003906c t __ZN8nlohmann16json_abi_v3_12_010basic_jsonINSt3__13mapENS2_6vectorENS2_12basic_stringIcNS2_11char_traitsIcEENS2_9allocatorIcEEEEbxydS8_NS0_14adl_serializerENS4_IhNS8_IhEEEEvE4dataC1ENS0_6detail7value_tE
0000000000045a8c t __ZN8nlohmann16json_abi_v3_12_010basic_jsonINSt3__13mapENS2_6vectorENS2_12basic_stringIcNS2_11char_traitsIcEENS2_9allocatorIcEEEEbxydS8_NS0_14adl_serializerENS4_IhNS8_IhEEEEvE4dataC1Ev
00000000000390a0 t __ZN8nlohmann16json_abi_v3_12_010basic_jsonINSt3__13mapENS2_6vectorENS2_12basic_stringIcNS2_11char_traitsIcEENS2_9allocatorIcEEEEbxydS8_NS0_14adl_serializerENS4_IhNS8_IhEEEEvE4dataC2ENS0_6detail7value_tE
0000000000045c5c t __ZN8nlohmann16json_abi_v3_12_010basic_jsonINSt3__13mapENS2_6vectorENS2_12basic_stringIcNS2_11char_traitsIcEENS2_9allocatorIcEEEEbxydS8_NS0_14adl_serializerENS4_IhNS8_IhEEEEvE4dataC2Ev
000000000002b7dc t __ZN8nlohmann16json_abi_v3_12_010basic_jsonINSt3__13mapENS2_6vectorENS2_12basic_stringIcNS2_11char_traitsIcEENS2_9allocatorIcEEEEbxydS8_NS0_14adl_serializerENS4_IhNS8_IhEEEEvE4dataD1Ev
000000000002b808 t __ZN8nlohmann16json_abi_v3_12_010basic_jsonINSt3__13mapENS2_6vectorENS2_12basic_stringIcNS2_11char_traitsIcEENS2_9allocatorIcEEEEbxydS8_NS0_14adl_serializerENS4_IhNS8_IhEEEEvE4dataD2Ev
00000000000452f8 t __ZN8nlohmann16json_abi_v3_12_010basic_jsonINSt3__13mapENS2_6vectorENS2_12basic_stringIcNS2_11char_traitsIcEENS2_9allocatorIcEEEEbxydS8_NS0_14adl_serializerENS4_IhNS8_IhEEEEvE5beginEv
0000000000045558 t __ZN8nlohmann16json_abi_v3_12_010basic_jsonINSt3__13mapENS2_6vectorENS2_12basic_stringIcNS2_11char_traitsIcEENS2_9allocatorIcEEEEbxydS8_NS0_14adl_serializerENS4_IhNS8_IhEEEEvE5eraseINS0_6detail9iter_implISE_EELi0EEET_SJ_
000000000001e078 t __ZN8nlohmann16json_abi_v3_12_010basic_jsonINSt3__13mapENS2_6vectorENS2_12basic_stringIcNS2_11char_traitsIcEENS2_9allocatorIcEEEEbxydS8_NS0_14adl_serializerENS4_IhNS8_IhEEEEvE5parseIRSA_EESE_OT_NS2_8functionIFbiNS0_6detail13parse_event_tERSE_EEEbb
000000000001e3a8 t __ZN8nlohmann16json_abi_v3_12_010basic_jsonINSt3__13mapENS2_6vectorENS2_12basic_stringIcNS2_11char_traitsIcEENS2_9allocatorIcEEEEbxydS8_NS0_14adl_serializerENS4_IhNS8_IhEEEEvE5parseISA_EESE_OT_NS2_8functionIFbiNS0_6detail13parse_event_tERSE_EEEbb
00000000000394d4 t __ZN8nlohmann16json_abi_v3_12_010basic_jsonINSt3__13mapENS2_6vectorENS2_12basic_stringIcNS2_11char_traitsIcEENS2_9allocatorIcEEEEbxydS8_NS0_14adl_serializerENS4_IhNS8_IhEEEEvE6createINS0_27byte_container_with_subtypeISD_EEJEEEPT_DpOT0_
0000000000048ca8 t __ZN8nlohmann16json_abi_v3_12_010basic_jsonINSt3__13mapENS2_6vectorENS2_12basic_stringIcNS2_11char_traitsIcEENS2_9allocatorIcEEEEbxydS8_NS0_14adl_serializerENS4_IhNS8_IhEEEEvE6createINS0_27byte_container_with_subtypeISD_EEJRKSH_EEEPT_DpOT0_
000000000003928c t __ZN8nlohmann16json_abi_v3_12_010basic_jsonINSt3__13mapENS2_6vectorENS2_12basic_stringIcNS2_11char_traitsIcEENS2_9allocatorIcEEEEbxydS8_NS0_14adl_serializerENS4_IhNS8_IhEEEEvE6createINS3_ISA_SE_NS2_4lessIvEENS8_INS2_4pairIKSA_SE_EEEEEEJEEEPT_DpOT0_
0000000000045cb4 t __ZN8nlohmann16json_abi_v3_12_010basic_jsonINSt3__13mapENS2_6vectorENS2_12basic_stringIcNS2_11char_traitsIcEENS2_9allocatorIcEEEEbxydS8_NS0_14adl_serializerENS4_IhNS8_IhEEEEvE6createINS3_ISA_SE_NS2_4lessIvEENS8_INS2_4pairIKSA_SE_EEEEEEJRKSM_EEEPT_DpOT0_
000000000003934c t __ZN8nlohmann16json_abi_v3_12_010basic_jsonINSt3__13mapENS2_6vectorENS2_12basic_stringIcNS2_11char_traitsIcEENS2_9allocatorIcEEEEbxydS8_NS0_14adl_serializerENS4_IhNS8_IhEEEEvE6createINS4_ISE_NS8_ISE_EEEEJEEEPT_DpOT0_
0000000000047bb0 t __ZN8nlohmann16json_abi_v3_12_010basic_jsonINSt3__13mapENS2_6vectorENS2_12basic_stringIcNS2_11char_traitsIcEENS2_9allocatorIcEEEEbxydS8_NS0_14adl_serializerENS4_IhNS8_IhEEEEvE6createINS4_ISE_NS8_ISE_EEEEJRKSH_EEEPT_DpOT0_
000000000003940c t __ZN8nlohmann16json_abi_v3_12_010basic_jsonINSt3__13mapENS2_6vectorENS2_12basic_stringIcNS2_11char_traitsIcEENS2_9allocatorIcEEEEbxydS8_NS0_14adl_serializerENS4_IhNS8_IhEEEEvE6createISA_JRA1_KcEEEPT_DpOT0_
0000000000048750 t __ZN8nlohmann16json_abi_v3_12_010basic_jsonINSt3__13mapENS2_6vectorENS2_12basic_stringIcNS2_11char_traitsIcEENS2_9allocatorIcEEEEbxydS8_NS0_14adl_serializerENS4_IhNS8_IhEEEEvE6createISA_JRKSA_EEEPT_DpOT0_
0000000000038ae0 t __ZN8nlohmann16json_abi_v3_12_010basic_jsonINSt3__13mapENS2_6vectorENS2_12basic_stringIcNS2_11char_traitsIcEENS2_9allocatorIcEEEEbxydS8_NS0_14adl_serializerENS4_IhNS8_IhEEEEvE6parserINS0_6detail22iterator_input_adapterINS2_11__wrap_iterIPKcEEEEEENSG_6parserISE_T_EESO_NS2_8functionIFbiNSG_13parse_event_tERSE_EEEbb
0000000000038a9c t __ZN8nlohmann16json_abi_v3_12_010basic_jsonINSt3__13mapENS2_6vectorENS2_12basic_stringIcNS2_11char_traitsIcEENS2_9allocatorIcEEEEbxydS8_NS0_14adl_serializerENS4_IhNS8_IhEEEEvEC1EDn
0000000000038ff4 t __ZN8nlohmann16json_abi_v3_12_010basic_jsonINSt3__13mapENS2_6vectorENS2_12basic_stringIcNS2_11char_traitsIcEENS2_9allocatorIcEEEEbxydS8_NS0_14adl_serializerENS4_IhNS8_IhEEEEvEC1ENS0_6detail7value_tE
000000000002bf04 t __ZN8nlohmann16json_abi_v3_12_010basic_jsonINSt3__13mapENS2_6vectorENS2_12basic_stringIcNS2_11char_traitsIcEENS2_9allocatorIcEEEEbxydS8_NS0_14adl_serializerENS4_IhNS8_IhEEEEvEC1EOSE_
0000000000045248 t __ZN8nlohmann16json_abi_v3_12_010basic_jsonINSt3__13mapENS2_6vectorENS2_12basic_stringIcNS2_11char_traitsIcEENS2_9allocatorIcEEEEbxydS8_NS0_14adl_serializerENS4_IhNS8_IhEEEEvEC1ERKSE_
000000000004b0c4 t __ZN8nlohmann16json_abi_v3_12_010basic_jsonINSt3__13mapENS2_6vectorENS2_12basic_stringIcNS2_11char_traitsIcEENS2_9allocatorIcEEEEbxydS8_NS0_14adl_serializerENS4_IhNS8_IhEEEEvEC1IRSA_SA_Li0EEEOT_
000000000004cb90 t __ZN8nlohmann16json_abi_v3_12_010basic_jsonINSt3__13mapENS2_6vectorENS2_12basic_stringIcNS2_11char_traitsIcEENS2_9allocatorIcEEEEbxydS8_NS0_14adl_serializerENS4_IhNS8_IhEEEEvEC1IRbbLi0EEEOT_
000000000004c5a0 t __ZN8nlohmann16json_abi_v3_12_010basic_jsonINSt3__13mapENS2_6vectorENS2_12basic_stringIcNS2_11char_traitsIcEENS2_9allocatorIcEEEEbxydS8_NS0_14adl_serializerENS4_IhNS8_IhEEEEvEC1IRddLi0EEEOT_
000000000004d5f4 t __ZN8nlohmann16json_abi_v3_12_010basic_jsonINSt3__13mapENS2_6vectorENS2_12basic_stringIcNS2_11char_traitsIcEENS2_9allocatorIcEEEEbxydS8_NS0_14adl_serializerENS4_IhNS8_IhEEEEvEC1IRxxLi0EEEOT_
000000000004e048 t __ZN8nlohmann16json_abi_v3_12_010basic_jsonINSt3__13mapENS2_6vectorENS2_12basic_stringIcNS2_11char_traitsIcEENS2_9allocatorIcEEEEbxydS8_NS0_14adl_serializerENS4_IhNS8_IhEEEEvEC1IRyyLi0EEEOT_
0000000000039028 t __ZN8nlohmann16json_abi_v3_12_010basic_jsonINSt3__13mapENS2_6vectorENS2_12basic_stringIcNS2_11char_traitsIcEENS2_9allocatorIcEEEEbxydS8_NS0_14adl_serializerENS4_IhNS8_IhEEEEvEC2ENS0_6detail7value_tE
000000000002da28 t __ZN8nlohmann16json_abi_v3_12_010basic_jsonINSt3__13mapENS2_6vectorENS2_12basic_stringIcNS2_11char_traitsIcEENS2_9allocatorIcEEEEbxydS8_NS0_14adl_serializerENS4_IhNS8_IhEEEEvEC2EOSE_
0000000000045864 t __ZN8nlohmann16json_abi_v3_12_010basic_jsonINSt3__13mapENS2_6vectorENS2_12basic_stringIcNS2_11char_traitsIcEENS2_9allocatorIcEEEEbxydS8_NS0_14adl_serializerENS4_IhNS8_IhEEEEvEC2ERKSE_
000000000004b1bc t __ZN8nlohmann16json_abi_v3_12_010basic_jsonINSt3__13mapENS2_6vectorENS2_12basic_stringIcNS2_11char_traitsIcEENS2_9allocatorIcEEEEbxydS8_NS0_14adl_serializerENS4_IhNS8_IhEEEEvEC2IRSA_SA_Li0EEEOT_
000000000004cbc4 t __ZN8nlohmann16json_abi_v3_12_010basic_jsonINSt3__13mapENS2_6vectorENS2_12basic_stringIcNS2_11char_traitsIcEENS2_9allocatorIcEEEEbxydS8_NS0_14adl_serializerENS4_IhNS8_IhEEEEvEC2IRbbLi0EEEOT_
000000000004c5d4 t __ZN8nlohmann16json_abi_v3_12_010basic_jsonINSt3__13mapENS2_6vectorENS2_12basic_stringIcNS2_11char_traitsIcEENS2_9allocatorIcEEEEbxydS8_NS0_14adl_serializerENS4_IhNS8_IhEEEEvEC2IRddLi0EEEOT_
000000000004d628 t __ZN8nlohmann16json_abi_v3_12_010basic_jsonINSt3__13mapENS2_6vectorENS2_12basic_stringIcNS2_11char_traitsIcEENS2_9allocatorIcEEEEbxydS8_NS0_14adl_serializerENS4_IhNS8_IhEEEEvEC2IRxxLi0EEEOT_
000000000004e07c t __ZN8nlohmann16json_abi_v3_12_010basic_jsonINSt3__13mapENS2_6vectorENS2_12basic_stringIcNS2_11char_traitsIcEENS2_9allocatorIcEEEEbxydS8_NS0_14adl_serializerENS4_IhNS8_IhEEEEvEC2IRyyLi0EEEOT_
000000000001e64c t __ZN8nlohmann16json_abi_v3_12_010basic_jsonINSt3__13mapENS2_6vectorENS2_12basic_stringIcNS2_11char_traitsIcEENS2_9allocatorIcEEEEbxydS8_NS0_14adl_serializerENS4_IhNS8_IhEEEEvED1Ev
000000000002b5ec t __ZN8nlohmann16json_abi_v3_12_010basic_jsonINSt3__13mapENS2_6vectorENS2_12basic_stringIcNS2_11char_traitsIcEENS2_9allocatorIcEEEEbxydS8_NS0_14adl_serializerENS4_IhNS8_IhEEEEvED2Ev
000000000004017c t __ZN8nlohmann16json_abi_v3_12_010basic_jsonINSt3__13mapENS2_6vectorENS2_12basic_stringIcNS2_11char_traitsIcEENS2_9allocatorIcEEEEbxydS8_NS0_14adl_serializerENS4_IhNS8_IhEEEEvEaSESE_
0000000000022be8 t __ZN8nlohmann16json_abi_v3_12_014adl_serializerIN6Celebi11LibraryItemEvE9from_jsonIRKNS0_10basic_jsonINSt3__13mapENS7_6vectorENS7_12basic_stringIcNS7_11char_traitsIcEENS7_9allocatorIcEEEEbxydSD_S1_NS9_IhNSD_IhEEEEvEES3_EEDTcmclL_ZNS0_9from_jsonEEclsr3stdE7forwardIT_Efp_Efp0_Ecvv_EEOSL_RT0_
0000000000020244 t __ZN8nlohmann16json_abi_v3_12_014adl_serializerIN6Celebi4DataEvE9from_jsonIRKNS0_10basic_jsonINSt3__13mapENS7_6vectorENS7_12basic_stringIcNS7_11char_traitsIcEENS7_9allocatorIcEEEEbxydSD_S1_NS9_IhNSD_IhEEEEvEES3_EEDTcmclL_ZNS0_9from_jsonEEclsr3stdE7forwardIT_Efp_Efp0_Ecvv_EEOSL_RT0_
000000000004b218 t __ZN8nlohmann16json_abi_v3_12_014adl_serializerINSt3__112basic_stringIcNS2_11char_traitsIcEENS2_9allocatorIcEEEEvE7to_jsonINS0_10basic_jsonINS2_3mapENS2_6vectorES8_bxydS6_S1_NSD_IhNS6_IhEEEEvEERS8_EEDTcmclL_ZNS0_7to_jsonEEfp_clsr3stdE7forwardIT0_Efp0_EEcvv_EERT_OSI_
00000000000233c8 t __ZN8nlohmann16json_abi_v3_12_014adl_serializerINSt3__112basic_stringIcNS2_11char_traitsIcEENS2_9allocatorIcEEEEvE9from_jsonIRKNS0_10basic_jsonINS2_3mapENS2_6vectorES8_bxydS6_S1_NSD_IhNS6_IhEEEEvEES8_EEDTcmclL_ZNS0_9from_jsonEEclsr3stdE7forwardIT_Efp_Efp0_Ecvv_EEOSJ_RT0_
000000000002108c t __ZN8nlohmann16json_abi_v3_12_014adl_serializerINSt3__16vectorIN6Celebi11LibraryItemENS2_9allocatorIS5_EEEEvE9from_jsonIRKNS0_10basic_jsonINS2_3mapES3_NS2_12basic_stringIcNS2_11char_traitsIcEENS6_IcEEEEbxydS6_S1_NS3_IhNS6_IhEEEEvEES8_EEDTcmclL_ZNS0_9from_jsonEEclsr3stdE7forwardIT_Efp_Efp0_Ecvv_EEOSN_RT0_
0000000000026414 t __ZN8nlohmann16json_abi_v3_12_014adl_serializerINSt3__16vectorINS2_12basic_stringIcNS2_11char_traitsIcEENS2_9allocatorIcEEEENS7_IS9_EEEEvE9from_jsonIRKNS0_10basic_jsonINS2_3mapES3_S9_bxydS7_S1_NS3_IhNS7_IhEEEEvEESB_EEDTcmclL_ZNS0_9from_jsonEEclsr3stdE7forwardIT_Efp_Efp0_Ecvv_EEOSL_RT0_
000000000004cc20 t __ZN8nlohmann16json_abi_v3_12_014adl_serializerIbvE7to_jsonINS0_10basic_jsonINSt3__13mapENS5_6vectorENS5_12basic_stringIcNS5_11char_traitsIcEENS5_9allocatorIcEEEEbxydSB_S1_NS7_IhNSB_IhEEEEvEERbEEDTcmclL_ZNS0_7to_jsonEEfp_clsr3stdE7forwardIT0_Efp0_EEcvv_EERT_OSI_
000000000004c630 t __ZN8nlohmann16json_abi_v3_12_014adl_serializerIdvE7to_jsonINS0_10basic_jsonINSt3__13mapENS5_6vectorENS5_12basic_stringIcNS5_11char_traitsIcEENS5_9allocatorIcEEEEbxydSB_S1_NS7_IhNSB_IhEEEEvEERdEEDTcmclL_ZNS0_7to_jsonEEfp_clsr3stdE7forwardIT0_Efp0_EEcvv_EERT_OSI_
000000000004d684 t __ZN8nlohmann16json_abi_v3_12_014adl_serializerIxvE7to_jsonINS0_10basic_jsonINSt3__13mapENS5_6vectorENS5_12basic_stringIcNS5_11char_traitsIcEENS5_9allocatorIcEEEEbxydSB_S1_NS7_IhNSB_IhEEEEvEERxEEDTcmclL_ZNS0_7to_jsonEEfp_clsr3stdE7forwardIT0_Efp0_EEcvv_EERT_OSI_
0000000000023be8 t __ZN8nlohmann16json_abi_v3_12_014adl_serializerIxvE9from_jsonIRKNS0_10basic_jsonINSt3__13mapENS5_6vectorENS5_12basic_stringIcNS5_11char_traitsIcEENS5_9allocatorIcEEEEbxydSB_S1_NS7_IhNSB_IhEEEEvEExEEDTcmclL_ZNS0_9from_jsonEEclsr3stdE7forwardIT_Efp_Efp0_Ecvv_EEOSJ_RT0_
000000000004e0d8 t __ZN8nlohmann16json_abi_v3_12_014adl_serializerIyvE7to_jsonINS0_10basic_jsonINSt3__13mapENS5_6vectorENS5_12basic_stringIcNS5_11char_traitsIcEENS5_9allocatorIcEEEEbxydSB_S1_NS7_IhNSB_IhEEEEvEERyEEDTcmclL_ZNS0_7to_jsonEEfp_clsr3stdE7forwardIT0_Efp0_EEcvv_EERT_OSI_
0000000000048fb8 t __ZN8nlohmann16json_abi_v3_12_027byte_container_with_subtypeINSt3__16vectorIhNS2_9allocatorIhEEEEEC1ERKS7_
000000000003a91c t __ZN8nlohmann16json_abi_v3_12_027byte_container_with_subtypeINSt3__16vectorIhNS2_9allocatorIhEEEEEC1Ev
0000000000048fec t __ZN8nlohmann16json_abi_v3_12_027byte_container_with_subtypeINSt3__16vectorIhNS2_9allocatorIhEEEEEC2ERKS7_
000000000003a948 t __ZN8nlohmann16json_abi_v3_12_027byte_container_with_subtypeINSt3__16vectorIhNS2_9allocatorIhEEEEEC2Ev
000000000002e23c t __ZN8nlohmann16json_abi_v3_12_027byte_container_with_subtypeINSt3__16vectorIhNS2_9allocatorIhEEEEED1Ev
000000000002e268 t __ZN8nlohmann16json_abi_v3_12_027byte_container_with_subtypeINSt3__16vectorIhNS2_9allocatorIhEEEEED2Ev
000000000004ec8c t __ZN8nlohmann16json_abi_v3_12_06detail10lexer_baseINS0_10basic_jsonINSt3__13mapENS4_6vectorENS4_12basic_stringIcNS4_11char_traitsIcEENS4_9allocatorIcEEEEbxydSA_NS0_14adl_serializerENS6_IhNSA_IhEEEEvEEE15token_type_nameENSH_10token_typeE
0000000000055140 t __ZN8nlohmann16json_abi_v3_12_06detail10serializerINS0_10basic_jsonINSt3__13mapENS4_6vectorENS4_12basic_stringIcNS4_11char_traitsIcEENS4_9allocatorIcEEEEbxydSA_NS0_14adl_serializerENS6_IhNSA_IhEEEEvEEE10dump_floatEd
00000000000559c4 t __ZN8nlohmann16json_abi_v3_12_06detail10serializerINS0_10basic_jsonINSt3__13mapENS4_6vectorENS4_12basic_stringIcNS4_11char_traitsIcEENS4_9allocatorIcEEEEbxydSA_NS0_14adl_serializerENS6_IhNSA_IhEEEEvEEE10dump_floatEdNS4_17integral_constantIbLb1EEE
00000000000557a8 t __ZN8nlohmann16json_abi_v3_12_06detail10serializerINS0_10basic_jsonINSt3__13mapENS4_6vectorENS4_12basic_stringIcNS4_11char_traitsIcEENS4_9allocatorIcEEEEbxydSA_NS0_14adl_serializerENS6_IhNSA_IhEEEEvEEE11remove_signEx
0000000000055840 t __ZN8nlohmann16json_abi_v3_12_06detail10serializerINS0_10basic_jsonINSt3__13mapENS4_6vectorENS4_12basic_stringIcNS4_11char_traitsIcEENS4_9allocatorIcEEEEbxydSA_NS0_14adl_serializerENS6_IhNSA_IhEEEEvEEE12count_digitsEy
0000000000053d54 t __ZN8nlohmann16json_abi_v3_12_06detail10serializerINS0_10basic_jsonINSt3__13mapENS4_6vectorENS4_12basic_stringIcNS4_11char_traitsIcEENS4_9allocatorIcEEEEbxydSA_NS0_14adl_serializerENS6_IhNSA_IhEEEEvEEE12dump_escapedERKSC_b
000000000005486c t __ZN8nlohmann16json_abi_v3_12_06detail10serializerINS0_10basic_jsonINSt3__13mapENS4_6vectorENS4_12basic_stringIcNS4_11char_traitsIcEENS4_9allocatorIcEEEEbxydSA_NS0_14adl_serializerENS6_IhNSA_IhEEEEvEEE12dump_integerIhLi0EEEvT_
0000000000054e8c t __ZN8nlohmann16json_abi_v3_12_06detail10serializerINS0_10basic_jsonINSt3__13mapENS4_6vectorENS4_12basic_stringIcNS4_11char_traitsIcEENS4_9allocatorIcEEEEbxydSA_NS0_14adl_serializerENS6_IhNSA_IhEEEEvEEE12dump_integerIxLi0EEEvT_
0000000000054b94 t __ZN8nlohmann16json_abi_v3_12_06detail10serializerINS0_10basic_jsonINSt3__13mapENS4_6vectorENS4_12basic_stringIcNS4_11char_traitsIcEENS4_9allocatorIcEEEEbxydSA_NS0_14adl_serializerENS6_IhNSA_IhEEEEvEEE12dump_integerIyLi0EEEvT_
000000000005578c t __ZN8nlohmann16json_abi_v3_12_06detail10serializerINS0_10basic_jsonINSt3__13mapENS4_6vectorENS4_12basic_stringIcNS4_11char_traitsIcEENS4_9allocatorIcEEEEbxydSA_NS0_14adl_serializerENS6_IhNSA_IhEEEEvEEE18is_negative_numberIhLi0EEEbT_
00000000000559a4 t __ZN8nlohmann16json_abi_v3_12_06detail10serializerINS0_10basic_jsonINSt3__13mapENS4_6vectorENS4_12basic_stringIcNS4_11char_traitsIcEENS4_9allocatorIcEEEEbxydSA_NS0_14adl_serializerENS6_IhNSA_IhEEEEvEEE18is_negative_numberIxLi0EEEbT_
0000000000055988 t __ZN8nlohmann16json_abi_v3_12_06detail10serializerINS0_10basic_jsonINSt3__13mapENS4_6vectorENS4_12basic_stringIcNS4_11char_traitsIcEENS4_9allocatorIcEEEEbxydSA_NS0_14adl_serializerENS6_IhNSA_IhEEEEvEEE18is_negative_numberIyLi0EEEbT_
0000000000051a24 t __ZN8nlohmann16json_abi_v3_12_06detail10serializerINS0_10basic_jsonINSt3__13mapENS4_6vectorENS4_12basic_stringIcNS4_11char_traitsIcEENS4_9allocatorIcEEEEbxydSA_NS0_14adl_serializerENS6_IhNSA_IhEEEEvEEE4dumpERKSG_bbjj
00000000000551f4 t __ZN8nlohmann16json_abi_v3_12_06detail10serializerINS0_10basic_jsonINSt3__13mapENS4_6vectorENS4_12basic_stringIcNS4_11char_traitsIcEENS4_9allocatorIcEEEEbxydSA_NS0_14adl_serializerENS6_IhNSA_IhEEEEvEEE6decodeERhRjh
0000000000051988 t __ZN8nlohmann16json_abi_v3_12_06detail10serializerINS0_10basic_jsonINSt3__13mapENS4_6vectorENS4_12basic_stringIcNS4_11char_traitsIcEENS4_9allocatorIcEEEEbxydSA_NS0_14adl_serializerENS6_IhNSA_IhEEEEvEEEC1ENS4_10shared_ptrINS1_23output_adapter_protocolIcEEEEcNS1_15error_handler_tE
0000000000053a48 t __ZN8nlohmann16json_abi_v3_12_06detail10serializerINS0_10basic_jsonINSt3__13mapENS4_6vectorENS4_12basic_stringIcNS4_11char_traitsIcEENS4_9allocatorIcEEEEbxydSA_NS0_14adl_serializerENS6_IhNSA_IhEEEEvEEEC2ENS4_10shared_ptrINS1_23output_adapter_protocolIcEEEEcNS1_15error_handler_tE
0000000000052ad0 t __ZN8nlohmann16json_abi_v3_12_06detail10serializerINS0_10basic_jsonINSt3__13mapENS4_6vectorENS4_12basic_stringIcNS4_11char_traitsIcEENS4_9allocatorIcEEEEbxydSA_NS0_14adl_serializerENS6_IhNSA_IhEEEEvEEED1Ev
00000000000576d8 t __ZN8nlohmann16json_abi_v3_12_06detail10serializerINS0_10basic_jsonINSt3__13mapENS4_6vectorENS4_12basic_stringIcNS4_11char_traitsIcEENS4_9allocatorIcEEEEbxydSA_NS0_14adl_serializerENS6_IhNSA_IhEEEEvEEED2Ev
000000000004ba28 t __ZN8nlohmann16json_abi_v3_12_06detail11concat_intoINSt3__112basic_stringIcNS3_11char_traitsIcEENS3_9allocatorIcEEEEEEvRT_
000000000004effc t __ZN8nlohmann16json_abi_v3_12_06detail11concat_intoINSt3__112basic_stringIcNS3_11char_traitsIcEENS3_9allocatorIcEEEEPKcJELi0EEEvRT_OT0_DpOT1_
000000000004eee8 t __ZN8nlohmann16json_abi_v3_12_06detail11concat_intoINSt3__112basic_stringIcNS3_11char_traitsIcEENS3_9allocatorIcEEEEPKcJRA15_SA_S9_cELi0EEEvRT_OT0_DpOT1_
000000000004e91c t __ZN8nlohmann16json_abi_v3_12_06detail11concat_intoINSt3__112basic_stringIcNS3_11char_traitsIcEENS3_9allocatorIcEEEERA10_KcJS9_ELi0EEEvRT_OT0_DpOT1_
000000000004e804 t __ZN8nlohmann16json_abi_v3_12_06detail11concat_intoINSt3__112basic_stringIcNS3_11char_traitsIcEENS3_9allocatorIcEEEERA10_KcJS9_SC_S9_ELi0EEEvRT_OT0_DpOT1_
000000000004efc0 t __ZN8nlohmann16json_abi_v3_12_06detail11concat_intoINSt3__112basic_stringIcNS3_11char_traitsIcEENS3_9allocatorIcEEEERA12_KcJPSA_ELi0EEEvRT_OT0_DpOT1_
000000000004e618 t __ZN8nlohmann16json_abi_v3_12_06detail11concat_intoINSt3__112basic_stringIcNS3_11char_traitsIcEENS3_9allocatorIcEEEERA12_KcJS9_RA3_SA_S9_RKS9_ELi0EEEvRT_OT0_DpOT1_
000000000004ee18 t __ZN8nlohmann16json_abi_v3_12_06detail11concat_intoINSt3__112basic_stringIcNS3_11char_traitsIcEENS3_9allocatorIcEEEERA15_KcJRKS9_cELi0EEEvRT_OT0_DpOT1_
000000000004ef38 t __ZN8nlohmann16json_abi_v3_12_06detail11concat_intoINSt3__112basic_stringIcNS3_11char_traitsIcEENS3_9allocatorIcEEEERA15_KcJS9_cELi0EEEvRT_OT0_DpOT1_
000000000004bb54 t __ZN8nlohmann16json_abi_v3_12_06detail11concat_intoINSt3__112basic_stringIcNS3_11char_traitsIcEENS3_9allocatorIcEEEERA17_KcJRKS9_cS9_RA3_SA_ELi0EEEvRT_OT0_DpOT1_
000000000004bff0 t __ZN8nlohmann16json_abi_v3_12_06detail11concat_intoINSt3__112basic_stringIcNS3_11char_traitsIcEENS3_9allocatorIcEEEERA26_KcJS9_cELi0EEEvRT_OT0_DpOT1_
000000000004bdac t __ZN8nlohmann16json_abi_v3_12_06detail11concat_intoINSt3__112basic_stringIcNS3_11char_traitsIcEENS3_9allocatorIcEEEERA3_KcJELi0EEEvRT_OT0_DpOT1_
000000000004e6b8 t __ZN8nlohmann16json_abi_v3_12_06detail11concat_intoINSt3__112basic_stringIcNS3_11char_traitsIcEENS3_9allocatorIcEEEERA3_KcJS9_RKS9_ELi0EEEvRT_OT0_DpOT1_
000000000004b9f4 t __ZN8nlohmann16json_abi_v3_12_06detail11concat_intoINSt3__112basic_stringIcNS3_11char_traitsIcEENS3_9allocatorIcEEEERKS9_JELi0EEEvRT_OT0_DpOT1_
000000000004ee5c t __ZN8nlohmann16json_abi_v3_12_06detail11concat_intoINSt3__112basic_stringIcNS3_11char_traitsIcEENS3_9allocatorIcEEEERKS9_JcELi0EEEvRT_OT0_DpOT1_
000000000004bca8 t __ZN8nlohmann16json_abi_v3_12_06detail11concat_intoINSt3__112basic_stringIcNS3_11char_traitsIcEENS3_9allocatorIcEEEERKS9_JcS9_RA3_KcELi0EEEvRT_OT0_DpOT1_
000000000004e958 t __ZN8nlohmann16json_abi_v3_12_06detail11concat_intoINSt3__112basic_stringIcNS3_11char_traitsIcEENS3_9allocatorIcEEEES9_JELi0EEEvRT_OT0_DpOT1_
000000000004e8d8 t __ZN8nlohmann16json_abi_v3_12_06detail11concat_intoINSt3__112basic_stringIcNS3_11char_traitsIcEENS3_9allocatorIcEEEES9_JRA10_KcS9_ELi0EEEvRT_OT0_DpOT1_
000000000004e4cc t __ZN8nlohmann16json_abi_v3_12_06detail11concat_intoINSt3__112basic_stringIcNS3_11char_traitsIcEENS3_9allocatorIcEEEES9_JRA12_KcS9_RA3_SA_S9_RKS9_ELi0EEEvRT_OT0_DpOT1_
000000000004bd70 t __ZN8nlohmann16json_abi_v3_12_06detail11concat_intoINSt3__112basic_stringIcNS3_11char_traitsIcEENS3_9allocatorIcEEEES9_JRA3_KcELi0EEEvRT_OT0_DpOT1_
000000000004e66c t __ZN8nlohmann16json_abi_v3_12_06detail11concat_intoINSt3__112basic_stringIcNS3_11char_traitsIcEENS3_9allocatorIcEEEES9_JRA3_KcS9_RKS9_ELi0EEEvRT_OT0_DpOT1_
000000000004b9b8 t __ZN8nlohmann16json_abi_v3_12_06detail11concat_intoINSt3__112basic_stringIcNS3_11char_traitsIcEENS3_9allocatorIcEEEES9_JRKS9_ELi0EEEvRT_OT0_DpOT1_
000000000004b8a8 t __ZN8nlohmann16json_abi_v3_12_06detail11concat_intoINSt3__112basic_stringIcNS3_11char_traitsIcEENS3_9allocatorIcEEEES9_JS9_RKS9_ELi0EEEvRT_OT0_DpOT1_
000000000004c09c t __ZN8nlohmann16json_abi_v3_12_06detail11concat_intoINSt3__112basic_stringIcNS3_11char_traitsIcEENS3_9allocatorIcEEEES9_JcELi0EEEvRT_OT0_DpOT1_
000000000004c0d8 t __ZN8nlohmann16json_abi_v3_12_06detail11concat_intoINSt3__112basic_stringIcNS3_11char_traitsIcEENS3_9allocatorIcEEEEcJELi0EEEvRT_OT0_DpOT1_
000000000004bcf4 t __ZN8nlohmann16json_abi_v3_12_06detail11concat_intoINSt3__112basic_stringIcNS3_11char_traitsIcEENS3_9allocatorIcEEEEcJS9_RA3_KcELi0EEEvRT_OT0_DpOT1_
000000000004e3a8 t __ZN8nlohmann16json_abi_v3_12_06detail11parse_error15position_stringERKNS1_10position_tE
000000000003fe40 t __ZN8nlohmann16json_abi_v3_12_06detail11parse_error6createIDnLi0EEES2_iRKNS1_10position_tERKNSt3__112basic_stringIcNS7_11char_traitsIcEENS7_9allocatorIcEEEET_
000000000004e428 t __ZN8nlohmann16json_abi_v3_12_06detail11parse_errorC1EimPKc
000000000004e98c t __ZN8nlohmann16json_abi_v3_12_06detail11parse_errorC2EimPKc
000000000004e9e4 t __ZN8nlohmann16json_abi_v3_12_06detail11parse_errorD0Ev
0000000000040134 t __ZN8nlohmann16json_abi_v3_12_06detail11parse_errorD1Ev
000000000004f034 t __ZN8nlohmann16json_abi_v3_12_06detail11parse_errorD2Ev
0000000000043710 t __ZN8nlohmann16json_abi_v3_12_06detail12out_of_range6createIDnLi0EEES2_iRKNSt3__112basic_stringIcNS4_11char_traitsIcEENS4_9allocatorIcEEEET_
000000000004b824 t __ZN8nlohmann16json_abi_v3_12_06detail12out_of_rangeC1EiPKc
000000000004bde0 t __ZN8nlohmann16json_abi_v3_12_06detail12out_of_rangeC2EiPKc
000000000004be88 t __ZN8nlohmann16json_abi_v3_12_06detail12out_of_rangeD0Ev
0000000000043878 t __ZN8nlohmann16json_abi_v3_12_06detail12out_of_rangeD1Ev
000000000004c110 t __ZN8nlohmann16json_abi_v3_12_06detail12out_of_rangeD2Ev
00000000001c7158 s __ZN8nlohmann16json_abi_v3_12_06detail12static_constINS1_10to_json_fnEE5valueE
00000000001c6f57 s __ZN8nlohmann16json_abi_v3_12_06detail12static_constINS1_12from_json_fnEE5valueE
0000000000042fa4 t __ZN8nlohmann16json_abi_v3_12_06detail12unknown_sizeEv
000000000005539c t __ZN8nlohmann16json_abi_v3_12_06detail13binary_writerINS0_10basic_jsonINSt3__13mapENS4_6vectorENS4_12basic_stringIcNS4_11char_traitsIcEENS4_9allocatorIcEEEEbxydSA_NS0_14adl_serializerENS6_IhNSA_IhEEEEvEEcE12to_char_typeIccLPv0EEEcT_
000000000004b964 t __ZN8nlohmann16json_abi_v3_12_06detail13concat_lengthEv
000000000004ee98 t __ZN8nlohmann16json_abi_v3_12_06detail13concat_lengthIJA15_cNSt3__112basic_stringIcNS4_11char_traitsIcEENS4_9allocatorIcEEEEcEEEmPKcDpRKT_
000000000004bc70 t __ZN8nlohmann16json_abi_v3_12_06detail13concat_lengthIJEEEmPKcDpRKT_
000000000004c078 t __ZN8nlohmann16json_abi_v3_12_06detail13concat_lengthIJEEEmcDpRKT_
000000000004e7b4 t __ZN8nlohmann16json_abi_v3_12_06detail13concat_lengthIJNSt3__112basic_stringIcNS3_11char_traitsIcEENS3_9allocatorIcEEEEA10_cS9_EEEmPKcDpRKT_
000000000004bbfc t __ZN8nlohmann16json_abi_v3_12_06detail13concat_lengthIJNSt3__112basic_stringIcNS3_11char_traitsIcEENS3_9allocatorIcEEEEA3_cEEEmcDpRKT_
000000000004e528 t __ZN8nlohmann16json_abi_v3_12_06detail13concat_lengthIJNSt3__112basic_stringIcNS3_11char_traitsIcEENS3_9allocatorIcEEEEA3_cS9_S9_EEEmPKcDpRKT_
000000000004e898 t __ZN8nlohmann16json_abi_v3_12_06detail13concat_lengthIJNSt3__112basic_stringIcNS3_11char_traitsIcEENS3_9allocatorIcEEEEEEEmPKcDpRKT_
000000000004e5d0 t __ZN8nlohmann16json_abi_v3_12_06detail13concat_lengthIJNSt3__112basic_stringIcNS3_11char_traitsIcEENS3_9allocatorIcEEEES9_EEEmPKcDpRKT_
000000000004bfa8 t __ZN8nlohmann16json_abi_v3_12_06detail13concat_lengthIJNSt3__112basic_stringIcNS3_11char_traitsIcEENS3_9allocatorIcEEEEcEEEmPKcDpRKT_
000000000004bafc t __ZN8nlohmann16json_abi_v3_12_06detail13concat_lengthIJNSt3__112basic_stringIcNS3_11char_traitsIcEENS3_9allocatorIcEEEEcS9_A3_cEEEmPKcDpRKT_
000000000004ef7c t __ZN8nlohmann16json_abi_v3_12_06detail13concat_lengthIJPKcEEEmS4_DpRKT_
000000000004e850 t __ZN8nlohmann16json_abi_v3_12_06detail13concat_lengthINSt3__112basic_stringIcNS3_11char_traitsIcEENS3_9allocatorIcEEEEJA10_cS9_EEEmRKT_DpRKT0_
000000000004e46c t __ZN8nlohmann16json_abi_v3_12_06detail13concat_lengthINSt3__112basic_stringIcNS3_11char_traitsIcEENS3_9allocatorIcEEEEJA12_cS9_A3_cS9_S9_EEEmRKT_DpRKT0_
000000000004bc30 t __ZN8nlohmann16json_abi_v3_12_06detail13concat_lengthINSt3__112basic_stringIcNS3_11char_traitsIcEENS3_9allocatorIcEEEEJA3_cEEEmRKT_DpRKT0_
000000000004e580 t __ZN8nlohmann16json_abi_v3_12_06detail13concat_lengthINSt3__112basic_stringIcNS3_11char_traitsIcEENS3_9allocatorIcEEEEJA3_cS9_S9_EEEmRKT_DpRKT0_
000000000004b92c t __ZN8nlohmann16json_abi_v3_12_06detail13concat_lengthINSt3__112basic_stringIcNS3_11char_traitsIcEENS3_9allocatorIcEEEEJEEEmRKT_DpRKT0_
000000000004b8ec t __ZN8nlohmann16json_abi_v3_12_06detail13concat_lengthINSt3__112basic_stringIcNS3_11char_traitsIcEENS3_9allocatorIcEEEEJS9_EEEmRKT_DpRKT0_
000000000004b860 t __ZN8nlohmann16json_abi_v3_12_06detail13concat_lengthINSt3__112basic_stringIcNS3_11char_traitsIcEENS3_9allocatorIcEEEEJS9_S9_EEEmRKT_DpRKT0_
000000000004c034 t __ZN8nlohmann16json_abi_v3_12_06detail13concat_lengthINSt3__112basic_stringIcNS3_11char_traitsIcEENS3_9allocatorIcEEEEJcEEEmRKT_DpRKT0_
000000000004bba8 t __ZN8nlohmann16json_abi_v3_12_06detail13concat_lengthINSt3__112basic_stringIcNS3_11char_traitsIcEENS3_9allocatorIcEEEEJcS9_A3_cEEEmRKT_DpRKT0_
000000000003e760 t __ZN8nlohmann16json_abi_v3_12_06detail13input_adapterINSt3__111__wrap_iterIPKcEEEENS1_30iterator_input_adapter_factoryIT_vE12adapter_typeES9_S9_
0000000000038b90 t __ZN8nlohmann16json_abi_v3_12_06detail13input_adapterINSt3__112basic_stringIcNS3_11char_traitsIcEENS3_9allocatorIcEEEEEENS1_36container_input_adapter_factory_impl31container_input_adapter_factoryIT_vE12adapter_typeERKSC_
000000000005191c t __ZN8nlohmann16json_abi_v3_12_06detail14output_adapterIcNSt3__112basic_stringIcNS3_11char_traitsIcEENS3_9allocatorIcEEEEEC1ERS9_
0000000000052afc t __ZN8nlohmann16json_abi_v3_12_06detail14output_adapterIcNSt3__112basic_stringIcNS3_11char_traitsIcEENS3_9allocatorIcEEEEEC2ERS9_
00000000000519f8 t __ZN8nlohmann16json_abi_v3_12_06detail14output_adapterIcNSt3__112basic_stringIcNS3_11char_traitsIcEENS3_9allocatorIcEEEEED1Ev
0000000000053cb4 t __ZN8nlohmann16json_abi_v3_12_06detail14output_adapterIcNSt3__112basic_stringIcNS3_11char_traitsIcEENS3_9allocatorIcEEEEED2Ev
0000000000051950 t __ZN8nlohmann16json_abi_v3_12_06detail14output_adapterIcNSt3__112basic_stringIcNS3_11char_traitsIcEENS3_9allocatorIcEEEEEcvNS3_10shared_ptrINS1_23output_adapter_protocolIcEEEEEv
000000000004f3bc t __ZN8nlohmann16json_abi_v3_12_06detail19json_sax_dom_parserINS0_10basic_jsonINSt3__13mapENS4_6vectorENS4_12basic_stringIcNS4_11char_traitsIcEENS4_9allocatorIcEEEEbxydSA_NS0_14adl_serializerENS6_IhNSA_IhEEEEvEENS1_22iterator_input_adapterINS4_11__wrap_iterIPKcEEEEE10end_objectEv
0000000000041308 t __ZN8nlohmann16json_abi_v3_12_06detail19json_sax_dom_parserINS0_10basic_jsonINSt3__13mapENS4_6vectorENS4_12basic_stringIcNS4_11char_traitsIcEENS4_9allocatorIcEEEEbxydSA_NS0_14adl_serializerENS6_IhNSA_IhEEEEvEENS1_22iterator_input_adapterINS4_11__wrap_iterIPKcEEEEE11parse_errorINS1_11parse_errorEEEbmRKSC_RKT_
000000000004f6bc t __ZN8nlohmann16json_abi_v3_12_06detail19json_sax_dom_parserINS0_10basic_jsonINSt3__13mapENS4_6vectorENS4_12basic_stringIcNS4_11char_traitsIcEENS4_9allocatorIcEEEEbxydSA_NS0_14adl_serializerENS6_IhNSA_IhEEEEvEENS1_22iterator_input_adapterINS4_11__wrap_iterIPKcEEEEE11parse_errorINS1_12out_of_rangeEEEbmRKSC_RKT_
000000000004f544 t __ZN8nlohmann16json_abi_v3_12_06detail19json_sax_dom_parserINS0_10basic_jsonINSt3__13mapENS4_6vectorENS4_12basic_stringIcNS4_11char_traitsIcEENS4_9allocatorIcEEEEbxydSA_NS0_14adl_serializerENS6_IhNSA_IhEEEEvEENS1_22iterator_input_adapterINS4_11__wrap_iterIPKcEEEEE11start_arrayEm
00000000000506b8 t __ZN8nlohmann16json_abi_v3_12_06detail19json_sax_dom_parserINS0_10basic_jsonINSt3__13mapENS4_6vectorENS4_12basic_stringIcNS4_11char_traitsIcEENS4_9allocatorIcEEEEbxydSA_NS0_14adl_serializerENS6_IhNSA_IhEEEEvEENS1_22iterator_input_adapterINS4_11__wrap_iterIPKcEEEEE12handle_valueIDnEEPSG_OT_
000000000004f8e0 t __ZN8nlohmann16json_abi_v3_12_06detail19json_sax_dom_parserINS0_10basic_jsonINSt3__13mapENS4_6vectorENS4_12basic_stringIcNS4_11char_traitsIcEENS4_9allocatorIcEEEEbxydSA_NS0_14adl_serializerENS6_IhNSA_IhEEEEvEENS1_22iterator_input_adapterINS4_11__wrap_iterIPKcEEEEE12handle_valueINS1_7value_tEEEPSG_OT_
0000000000050ee0 t __ZN8nlohmann16json_abi_v3_12_06detail19json_sax_dom_parserINS0_10basic_jsonINSt3__13mapENS4_6vectorENS4_12basic_stringIcNS4_11char_traitsIcEENS4_9allocatorIcEEEEbxydSA_NS0_14adl_serializerENS6_IhNSA_IhEEEEvEENS1_22iterator_input_adapterINS4_11__wrap_iterIPKcEEEEE12handle_valueIRSC_EEPSG_OT_
00000000000502a4 t __ZN8nlohmann16json_abi_v3_12_06detail19json_sax_dom_parserINS0_10basic_jsonINSt3__13mapENS4_6vectorENS4_12basic_stringIcNS4_11char_traitsIcEENS4_9allocatorIcEEEEbxydSA_NS0_14adl_serializerENS6_IhNSA_IhEEEEvEENS1_22iterator_input_adapterINS4_11__wrap_iterIPKcEEEEE12handle_valueIRbEEPSG_OT_
000000000004fe90 t __ZN8nlohmann16json_abi_v3_12_06detail19json_sax_dom_parserINS0_10basic_jsonINSt3__13mapENS4_6vectorENS4_12basic_stringIcNS4_11char_traitsIcEENS4_9allocatorIcEEEEbxydSA_NS0_14adl_serializerENS6_IhNSA_IhEEEEvEENS1_22iterator_input_adapterINS4_11__wrap_iterIPKcEEEEE12handle_valueIRdEEPSG_OT_
0000000000050acc t __ZN8nlohmann16json_abi_v3_12_06detail19json_sax_dom_parserINS0_10basic_jsonINSt3__13mapENS4_6vectorENS4_12basic_stringIcNS4_11char_traitsIcEENS4_9allocatorIcEEEEbxydSA_NS0_14adl_serializerENS6_IhNSA_IhEEEEvEENS1_22iterator_input_adapterINS4_11__wrap_iterIPKcEEEEE12handle_valueIRxEEPSG_OT_
00000000000512f4 t __ZN8nlohmann16json_abi_v3_12_06detail19json_sax_dom_parserINS0_10basic_jsonINSt3__13mapENS4_6vectorENS4_12basic_stringIcNS4_11char_traitsIcEENS4_9allocatorIcEEEEbxydSA_NS0_14adl_serializerENS6_IhNSA_IhEEEEvEENS1_22iterator_input_adapterINS4_11__wrap_iterIPKcEEEEE12handle_valueIRyEEPSG_OT_
000000000004f708 t __ZN8nlohmann16json_abi_v3_12_06detail19json_sax_dom_parserINS0_10basic_jsonINSt3__13mapENS4_6vectorENS4_12basic_stringIcNS4_11char_traitsIcEENS4_9allocatorIcEEEEbxydSA_NS0_14adl_serializerENS6_IhNSA_IhEEEEvEENS1_22iterator_input_adapterINS4_11__wrap_iterIPKcEEEEE12number_floatEdRKSC_
000000000004f304 t __ZN8nlohmann16json_abi_v3_12_06detail19json_sax_dom_parserINS0_10basic_jsonINSt3__13mapENS4_6vectorENS4_12basic_stringIcNS4_11char_traitsIcEENS4_9allocatorIcEEEEbxydSA_NS0_14adl_serializerENS6_IhNSA_IhEEEEvEENS1_22iterator_input_adapterINS4_11__wrap_iterIPKcEEEEE12start_objectEm
000000000004f7b0 t __ZN8nlohmann16json_abi_v3_12_06detail19json_sax_dom_parserINS0_10basic_jsonINSt3__13mapENS4_6vectorENS4_12basic_stringIcNS4_11char_traitsIcEENS4_9allocatorIcEEEEbxydSA_NS0_14adl_serializerENS6_IhNSA_IhEEEEvEENS1_22iterator_input_adapterINS4_11__wrap_iterIPKcEEEEE14number_integerEx
000000000004f81c t __ZN8nlohmann16json_abi_v3_12_06detail19json_sax_dom_parserINS0_10basic_jsonINSt3__13mapENS4_6vectorENS4_12basic_stringIcNS4_11char_traitsIcEENS4_9allocatorIcEEEEbxydSA_NS0_14adl_serializerENS6_IhNSA_IhEEEEvEENS1_22iterator_input_adapterINS4_11__wrap_iterIPKcEEEEE15number_unsignedEy
000000000004f47c t __ZN8nlohmann16json_abi_v3_12_06detail19json_sax_dom_parserINS0_10basic_jsonINSt3__13mapENS4_6vectorENS4_12basic_stringIcNS4_11char_traitsIcEENS4_9allocatorIcEEEEbxydSA_NS0_14adl_serializerENS6_IhNSA_IhEEEEvEENS1_22iterator_input_adapterINS4_11__wrap_iterIPKcEEEEE3keyERSC_
000000000004f77c t __ZN8nlohmann16json_abi_v3_12_06detail19json_sax_dom_parserINS0_10basic_jsonINSt3__13mapENS4_6vectorENS4_12basic_stringIcNS4_11char_traitsIcEENS4_9allocatorIcEEEEbxydSA_NS0_14adl_serializerENS6_IhNSA_IhEEEEvEENS1_22iterator_input_adapterINS4_11__wrap_iterIPKcEEEEE4nullEv
000000000004f7e8 t __ZN8nlohmann16json_abi_v3_12_06detail19json_sax_dom_parserINS0_10basic_jsonINSt3__13mapENS4_6vectorENS4_12basic_stringIcNS4_11char_traitsIcEENS4_9allocatorIcEEEEbxydSA_NS0_14adl_serializerENS6_IhNSA_IhEEEEvEENS1_22iterator_input_adapterINS4_11__wrap_iterIPKcEEEEE6stringERSC_
000000000004f744 t __ZN8nlohmann16json_abi_v3_12_06detail19json_sax_dom_parserINS0_10basic_jsonINSt3__13mapENS4_6vectorENS4_12basic_stringIcNS4_11char_traitsIcEENS4_9allocatorIcEEEEbxydSA_NS0_14adl_serializerENS6_IhNSA_IhEEEEvEENS1_22iterator_input_adapterINS4_11__wrap_iterIPKcEEEEE7booleanEb
000000000004f5fc t __ZN8nlohmann16json_abi_v3_12_06detail19json_sax_dom_parserINS0_10basic_jsonINSt3__13mapENS4_6vectorENS4_12basic_stringIcNS4_11char_traitsIcEENS4_9allocatorIcEEEEbxydSA_NS0_14adl_serializerENS6_IhNSA_IhEEEEvEENS1_22iterator_input_adapterINS4_11__wrap_iterIPKcEEEEE9end_arrayEv
0000000000040228 t __ZN8nlohmann16json_abi_v3_12_06detail19json_sax_dom_parserINS0_10basic_jsonINSt3__13mapENS4_6vectorENS4_12basic_stringIcNS4_11char_traitsIcEENS4_9allocatorIcEEEEbxydSA_NS0_14adl_serializerENS6_IhNSA_IhEEEEvEENS1_22iterator_input_adapterINS4_11__wrap_iterIPKcEEEEEC1ERSG_bPNS1_5lexerISG_SM_EE
000000000004f2a4 t __ZN8nlohmann16json_abi_v3_12_06detail19json_sax_dom_parserINS0_10basic_jsonINSt3__13mapENS4_6vectorENS4_12basic_stringIcNS4_11char_traitsIcEENS4_9allocatorIcEEEEbxydSA_NS0_14adl_serializerENS6_IhNSA_IhEEEEvEENS1_22iterator_input_adapterINS4_11__wrap_iterIPKcEEEEEC2ERSG_bPNS1_5lexerISG_SM_EE
0000000000041370 t __ZN8nlohmann16json_abi_v3_12_06detail19json_sax_dom_parserINS0_10basic_jsonINSt3__13mapENS4_6vectorENS4_12basic_stringIcNS4_11char_traitsIcEENS4_9allocatorIcEEEEbxydSA_NS0_14adl_serializerENS6_IhNSA_IhEEEEvEENS1_22iterator_input_adapterINS4_11__wrap_iterIPKcEEEEED1Ev
0000000000051708 t __ZN8nlohmann16json_abi_v3_12_06detail19json_sax_dom_parserINS0_10basic_jsonINSt3__13mapENS4_6vectorENS4_12basic_stringIcNS4_11char_traitsIcEENS4_9allocatorIcEEEEbxydSA_NS0_14adl_serializerENS6_IhNSA_IhEEEEvEENS1_22iterator_input_adapterINS4_11__wrap_iterIPKcEEEEED2Ev
000000000004b2a8 t __ZN8nlohmann16json_abi_v3_12_06detail20external_constructorILNS1_7value_tE3EE9constructINS0_10basic_jsonINSt3__13mapENS7_6vectorENS7_12basic_stringIcNS7_11char_traitsIcEENS7_9allocatorIcEEEEbxydSD_NS0_14adl_serializerENS9_IhNSD_IhEEEEvEEEEvRT_RKNSK_8string_tE
000000000004ccbc t __ZN8nlohmann16json_abi_v3_12_06detail20external_constructorILNS1_7value_tE4EE9constructINS0_10basic_jsonINSt3__13mapENS7_6vectorENS7_12basic_stringIcNS7_11char_traitsIcEENS7_9allocatorIcEEEEbxydSD_NS0_14adl_serializerENS9_IhNSD_IhEEEEvEEEEvRT_NSK_9boolean_tE
000000000004d718 t __ZN8nlohmann16json_abi_v3_12_06detail20external_constructorILNS1_7value_tE5EE9constructINS0_10basic_jsonINSt3__13mapENS7_6vectorENS7_12basic_stringIcNS7_11char_traitsIcEENS7_9allocatorIcEEEEbxydSD_NS0_14adl_serializerENS9_IhNSD_IhEEEEvEEEEvRT_NSK_16number_integer_tE
000000000004e16c t __ZN8nlohmann16json_abi_v3_12_06detail20external_constructorILNS1_7value_tE6EE9constructINS0_10basic_jsonINSt3__13mapENS7_6vectorENS7_12basic_stringIcNS7_11char_traitsIcEENS7_9allocatorIcEEEEbxydSD_NS0_14adl_serializerENS9_IhNSD_IhEEEEvEEEEvRT_NSK_17number_unsigned_tE
000000000004c6c4 t __ZN8nlohmann16json_abi_v3_12_06detail20external_constructorILNS1_7value_tE7EE9constructINS0_10basic_jsonINSt3__13mapENS7_6vectorENS7_12basic_stringIcNS7_11char_traitsIcEENS7_9allocatorIcEEEEbxydSD_NS0_14adl_serializerENS9_IhNSD_IhEEEEvEEEEvRT_NSK_14number_float_tE
0000000000021150 t __ZN8nlohmann16json_abi_v3_12_06detail20from_json_array_implINS0_10basic_jsonINSt3__13mapENS4_6vectorENS4_12basic_stringIcNS4_11char_traitsIcEENS4_9allocatorIcEEEEbxydSA_NS0_14adl_serializerENS6_IhNSA_IhEEEEvEENS6_IN6Celebi11LibraryItemENSA_ISI_EEEELi0EEEDTcmcmcldtfp0_7reserveclsr3stdE7declvalINT0_9size_typeEEEEcldtfp_3getINSL_10value_typeEEEcvv_EERKT_RSL_NS1_12priority_tagILj1EEE
00000000000264b8 t __ZN8nlohmann16json_abi_v3_12_06detail20from_json_array_implINS0_10basic_jsonINSt3__13mapENS4_6vectorENS4_12basic_stringIcNS4_11char_traitsIcEENS4_9allocatorIcEEEEbxydSA_NS0_14adl_serializerENS6_IhNSA_IhEEEEvEENS6_ISC_NSA_ISC_EEEELi0EEEDTcmcmcldtfp0_7reserveclsr3stdE7declvalINT0_9size_typeEEEEcldtfp_3getINSJ_10value_typeEEEcvv_EERKT_RSJ_NS1_12priority_tagILj1EEE
0000000000023c78 t __ZN8nlohmann16json_abi_v3_12_06detail20get_arithmetic_valueINS0_10basic_jsonINSt3__13mapENS4_6vectorENS4_12basic_stringIcNS4_11char_traitsIcEENS4_9allocatorIcEEEEbxydSA_NS0_14adl_serializerENS6_IhNSA_IhEEEEvEExLi0EEEvRKT_RT0_
0000000000025b08 t __ZN8nlohmann16json_abi_v3_12_06detail20primitive_iterator_t7set_endEv
0000000000025b24 t __ZN8nlohmann16json_abi_v3_12_06detail20primitive_iterator_t9set_beginEv
000000000002599c t __ZN8nlohmann16json_abi_v3_12_06detail20primitive_iterator_tC1Ev
0000000000025a50 t __ZN8nlohmann16json_abi_v3_12_06detail20primitive_iterator_tC2Ev
00000000000253f4 t __ZN8nlohmann16json_abi_v3_12_06detail20primitive_iterator_tppEv
0000000000053388 t __ZN8nlohmann16json_abi_v3_12_06detail21output_string_adapterIcNSt3__112basic_stringIcNS3_11char_traitsIcEENS3_9allocatorIcEEEEE15write_characterEc
00000000000533b8 t __ZN8nlohmann16json_abi_v3_12_06detail21output_string_adapterIcNSt3__112basic_stringIcNS3_11char_traitsIcEENS3_9allocatorIcEEEEE16write_charactersEPKcm
00000000000532e8 t __ZN8nlohmann16json_abi_v3_12_06detail21output_string_adapterIcNSt3__112basic_stringIcNS3_11char_traitsIcEENS3_9allocatorIcEEEEEC1ERS9_
000000000005331c t __ZN8nlohmann16json_abi_v3_12_06detail21output_string_adapterIcNSt3__112basic_stringIcNS3_11char_traitsIcEENS3_9allocatorIcEEEEEC2ERS9_
000000000005341c t __ZN8nlohmann16json_abi_v3_12_06detail21output_string_adapterIcNSt3__112basic_stringIcNS3_11char_traitsIcEENS3_9allocatorIcEEEEED0Ev
00000000000533f0 t __ZN8nlohmann16json_abi_v3_12_06detail21output_string_adapterIcNSt3__112basic_stringIcNS3_11char_traitsIcEENS3_9allocatorIcEEEEED1Ev
000000000005346c t __ZN8nlohmann16json_abi_v3_12_06detail21output_string_adapterIcNSt3__112basic_stringIcNS3_11char_traitsIcEENS3_9allocatorIcEEEEED2Ev
000000000003cfd4 t __ZN8nlohmann16json_abi_v3_12_06detail22iterator_input_adapterINSt3__111__wrap_iterIPKcEEE13get_characterEv
000000000003e84c t __ZN8nlohmann16json_abi_v3_12_06detail22iterator_input_adapterINSt3__111__wrap_iterIPKcEEEC1ES7_S7_
000000000003e888 t __ZN8nlohmann16json_abi_v3_12_06detail22iterator_input_adapterINSt3__111__wrap_iterIPKcEEEC2ES7_S7_
0000000000053364 t __ZN8nlohmann16json_abi_v3_12_06detail23output_adapter_protocolIcEC2Ev
0000000000053460 t __ZN8nlohmann16json_abi_v3_12_06detail23output_adapter_protocolIcED0Ev
000000000005344c t __ZN8nlohmann16json_abi_v3_12_06detail23output_adapter_protocolIcED1Ev
0000000000053498 t __ZN8nlohmann16json_abi_v3_12_06detail23output_adapter_protocolIcED2Ev
0000000000042fb8 t __ZN8nlohmann16json_abi_v3_12_06detail28json_sax_dom_callback_parserINS0_10basic_jsonINSt3__13mapENS4_6vectorENS4_12basic_stringIcNS4_11char_traitsIcEENS4_9allocatorIcEEEEbxydSA_NS0_14adl_serializerENS6_IhNSA_IhEEEEvEENS1_22iterator_input_adapterINS4_11__wrap_iterIPKcEEEEE10end_objectEv
000000000003fc34 t __ZN8nlohmann16json_abi_v3_12_06detail28json_sax_dom_callback_parserINS0_10basic_jsonINSt3__13mapENS4_6vectorENS4_12basic_stringIcNS4_11char_traitsIcEENS4_9allocatorIcEEEEbxydSA_NS0_14adl_serializerENS6_IhNSA_IhEEEEvEENS1_22iterator_input_adapterINS4_11__wrap_iterIPKcEEEEE11parse_errorINS1_11parse_errorEEEbmRKSC_RKT_
00000000000436c4 t __ZN8nlohmann16json_abi_v3_12_06detail28json_sax_dom_callback_parserINS0_10basic_jsonINSt3__13mapENS4_6vectorENS4_12basic_stringIcNS4_11char_traitsIcEENS4_9allocatorIcEEEEbxydSA_NS0_14adl_serializerENS6_IhNSA_IhEEEEvEENS1_22iterator_input_adapterINS4_11__wrap_iterIPKcEEEEE11parse_errorINS1_12out_of_rangeEEEbmRKSC_RKT_
0000000000043380 t __ZN8nlohmann16json_abi_v3_12_06detail28json_sax_dom_callback_parserINS0_10basic_jsonINSt3__13mapENS4_6vectorENS4_12basic_stringIcNS4_11char_traitsIcEENS4_9allocatorIcEEEEbxydSA_NS0_14adl_serializerENS6_IhNSA_IhEEEEvEENS1_22iterator_input_adapterINS4_11__wrap_iterIPKcEEEEE11start_arrayEm
000000000004cd30 t __ZN8nlohmann16json_abi_v3_12_06detail28json_sax_dom_callback_parserINS0_10basic_jsonINSt3__13mapENS4_6vectorENS4_12basic_stringIcNS4_11char_traitsIcEENS4_9allocatorIcEEEEbxydSA_NS0_14adl_serializerENS6_IhNSA_IhEEEEvEENS1_22iterator_input_adapterINS4_11__wrap_iterIPKcEEEEE12handle_valueIDnEENS4_4pairIbPSG_EEOT_b
0000000000043b5c t __ZN8nlohmann16json_abi_v3_12_06detail28json_sax_dom_callback_parserINS0_10basic_jsonINSt3__13mapENS4_6vectorENS4_12basic_stringIcNS4_11char_traitsIcEENS4_9allocatorIcEEEEbxydSA_NS0_14adl_serializerENS6_IhNSA_IhEEEEvEENS1_22iterator_input_adapterINS4_11__wrap_iterIPKcEEEEE12handle_valueINS1_7value_tEEENS4_4pairIbPSG_EEOT_b
000000000004d780 t __ZN8nlohmann16json_abi_v3_12_06detail28json_sax_dom_callback_parserINS0_10basic_jsonINSt3__13mapENS4_6vectorENS4_12basic_stringIcNS4_11char_traitsIcEENS4_9allocatorIcEEEEbxydSA_NS0_14adl_serializerENS6_IhNSA_IhEEEEvEENS1_22iterator_input_adapterINS4_11__wrap_iterIPKcEEEEE12handle_valueIRSC_EENS4_4pairIbPSG_EEOT_b
000000000004c72c t __ZN8nlohmann16json_abi_v3_12_06detail28json_sax_dom_callback_parserINS0_10basic_jsonINSt3__13mapENS4_6vectorENS4_12basic_stringIcNS4_11char_traitsIcEENS4_9allocatorIcEEEEbxydSA_NS0_14adl_serializerENS6_IhNSA_IhEEEEvEENS1_22iterator_input_adapterINS4_11__wrap_iterIPKcEEEEE12handle_valueIRbEENS4_4pairIbPSG_EEOT_b
000000000004c13c t __ZN8nlohmann16json_abi_v3_12_06detail28json_sax_dom_callback_parserINS0_10basic_jsonINSt3__13mapENS4_6vectorENS4_12basic_stringIcNS4_11char_traitsIcEENS4_9allocatorIcEEEEbxydSA_NS0_14adl_serializerENS6_IhNSA_IhEEEEvEENS1_22iterator_input_adapterINS4_11__wrap_iterIPKcEEEEE12handle_valueIRdEENS4_4pairIbPSG_EEOT_b
000000000004d190 t __ZN8nlohmann16json_abi_v3_12_06detail28json_sax_dom_callback_parserINS0_10basic_jsonINSt3__13mapENS4_6vectorENS4_12basic_stringIcNS4_11char_traitsIcEENS4_9allocatorIcEEEEbxydSA_NS0_14adl_serializerENS6_IhNSA_IhEEEEvEENS1_22iterator_input_adapterINS4_11__wrap_iterIPKcEEEEE12handle_valueIRxEENS4_4pairIbPSG_EEOT_b
000000000004dbe4 t __ZN8nlohmann16json_abi_v3_12_06detail28json_sax_dom_callback_parserINS0_10basic_jsonINSt3__13mapENS4_6vectorENS4_12basic_stringIcNS4_11char_traitsIcEENS4_9allocatorIcEEEEbxydSA_NS0_14adl_serializerENS6_IhNSA_IhEEEEvEENS1_22iterator_input_adapterINS4_11__wrap_iterIPKcEEEEE12handle_valueIRyEENS4_4pairIbPSG_EEOT_b
00000000000438a4 t __ZN8nlohmann16json_abi_v3_12_06detail28json_sax_dom_callback_parserINS0_10basic_jsonINSt3__13mapENS4_6vectorENS4_12basic_stringIcNS4_11char_traitsIcEENS4_9allocatorIcEEEEbxydSA_NS0_14adl_serializerENS6_IhNSA_IhEEEEvEENS1_22iterator_input_adapterINS4_11__wrap_iterIPKcEEEEE12number_floatEdRKSC_
0000000000042e84 t __ZN8nlohmann16json_abi_v3_12_06detail28json_sax_dom_callback_parserINS0_10basic_jsonINSt3__13mapENS4_6vectorENS4_12basic_stringIcNS4_11char_traitsIcEENS4_9allocatorIcEEEEbxydSA_NS0_14adl_serializerENS6_IhNSA_IhEEEEvEENS1_22iterator_input_adapterINS4_11__wrap_iterIPKcEEEEE12start_objectEm
0000000000043994 t __ZN8nlohmann16json_abi_v3_12_06detail28json_sax_dom_callback_parserINS0_10basic_jsonINSt3__13mapENS4_6vectorENS4_12basic_stringIcNS4_11char_traitsIcEENS4_9allocatorIcEEEEbxydSA_NS0_14adl_serializerENS6_IhNSA_IhEEEEvEENS1_22iterator_input_adapterINS4_11__wrap_iterIPKcEEEEE14number_integerEx
0000000000043a48 t __ZN8nlohmann16json_abi_v3_12_06detail28json_sax_dom_callback_parserINS0_10basic_jsonINSt3__13mapENS4_6vectorENS4_12basic_stringIcNS4_11char_traitsIcEENS4_9allocatorIcEEEEbxydSA_NS0_14adl_serializerENS6_IhNSA_IhEEEEvEENS1_22iterator_input_adapterINS4_11__wrap_iterIPKcEEEEE15number_unsignedEy
0000000000043220 t __ZN8nlohmann16json_abi_v3_12_06detail28json_sax_dom_callback_parserINS0_10basic_jsonINSt3__13mapENS4_6vectorENS4_12basic_stringIcNS4_11char_traitsIcEENS4_9allocatorIcEEEEbxydSA_NS0_14adl_serializerENS6_IhNSA_IhEEEEvEENS1_22iterator_input_adapterINS4_11__wrap_iterIPKcEEEEE3keyERSC_
0000000000043948 t __ZN8nlohmann16json_abi_v3_12_06detail28json_sax_dom_callback_parserINS0_10basic_jsonINSt3__13mapENS4_6vectorENS4_12basic_stringIcNS4_11char_traitsIcEENS4_9allocatorIcEEEEbxydSA_NS0_14adl_serializerENS6_IhNSA_IhEEEEvEENS1_22iterator_input_adapterINS4_11__wrap_iterIPKcEEEEE4nullEv
00000000000439fc t __ZN8nlohmann16json_abi_v3_12_06detail28json_sax_dom_callback_parserINS0_10basic_jsonINSt3__13mapENS4_6vectorENS4_12basic_stringIcNS4_11char_traitsIcEENS4_9allocatorIcEEEEbxydSA_NS0_14adl_serializerENS6_IhNSA_IhEEEEvEENS1_22iterator_input_adapterINS4_11__wrap_iterIPKcEEEEE6stringERSC_
00000000000438f8 t __ZN8nlohmann16json_abi_v3_12_06detail28json_sax_dom_callback_parserINS0_10basic_jsonINSt3__13mapENS4_6vectorENS4_12basic_stringIcNS4_11char_traitsIcEENS4_9allocatorIcEEEEbxydSA_NS0_14adl_serializerENS6_IhNSA_IhEEEEvEENS1_22iterator_input_adapterINS4_11__wrap_iterIPKcEEEEE7booleanEb
00000000000434a8 t __ZN8nlohmann16json_abi_v3_12_06detail28json_sax_dom_callback_parserINS0_10basic_jsonINSt3__13mapENS4_6vectorENS4_12basic_stringIcNS4_11char_traitsIcEENS4_9allocatorIcEEEEbxydSA_NS0_14adl_serializerENS6_IhNSA_IhEEEEvEENS1_22iterator_input_adapterINS4_11__wrap_iterIPKcEEEEE9end_arrayEv
000000000003eb4c t __ZN8nlohmann16json_abi_v3_12_06detail28json_sax_dom_callback_parserINS0_10basic_jsonINSt3__13mapENS4_6vectorENS4_12basic_stringIcNS4_11char_traitsIcEENS4_9allocatorIcEEEEbxydSA_NS0_14adl_serializerENS6_IhNSA_IhEEEEvEENS1_22iterator_input_adapterINS4_11__wrap_iterIPKcEEEEEC1ERSG_NS4_8functionIFbiNS1_13parse_event_tESO_EEEbPNS1_5lexerISG_SM_EE
00000000000414d8 t __ZN8nlohmann16json_abi_v3_12_06detail28json_sax_dom_callback_parserINS0_10basic_jsonINSt3__13mapENS4_6vectorENS4_12basic_stringIcNS4_11char_traitsIcEENS4_9allocatorIcEEEEbxydSA_NS0_14adl_serializerENS6_IhNSA_IhEEEEvEENS1_22iterator_input_adapterINS4_11__wrap_iterIPKcEEEEEC2ERSG_NS4_8functionIFbiNS1_13parse_event_tESO_EEEbPNS1_5lexerISG_SM_EE
00000000000401fc t __ZN8nlohmann16json_abi_v3_12_06detail28json_sax_dom_callback_parserINS0_10basic_jsonINSt3__13mapENS4_6vectorENS4_12basic_stringIcNS4_11char_traitsIcEENS4_9allocatorIcEEEEbxydSA_NS0_14adl_serializerENS6_IhNSA_IhEEEEvEENS1_22iterator_input_adapterINS4_11__wrap_iterIPKcEEEEED1Ev
000000000004f0d8 t __ZN8nlohmann16json_abi_v3_12_06detail28json_sax_dom_callback_parserINS0_10basic_jsonINSt3__13mapENS4_6vectorENS4_12basic_stringIcNS4_11char_traitsIcEENS4_9allocatorIcEEEEbxydSA_NS0_14adl_serializerENS6_IhNSA_IhEEEEvEENS1_22iterator_input_adapterINS4_11__wrap_iterIPKcEEEEED2Ev
000000000003e804 t __ZN8nlohmann16json_abi_v3_12_06detail30iterator_input_adapter_factoryINSt3__111__wrap_iterIPKcEEvE6createES7_S7_
000000000003e710 t __ZN8nlohmann16json_abi_v3_12_06detail36container_input_adapter_factory_impl31container_input_adapter_factoryINSt3__112basic_stringIcNS4_11char_traitsIcEENS4_9allocatorIcEEEEvE6createERKSA_
0000000000043314 t __ZN8nlohmann16json_abi_v3_12_06detail5lexerINS0_10basic_jsonINSt3__13mapENS4_6vectorENS4_12basic_stringIcNS4_11char_traitsIcEENS4_9allocatorIcEEEEbxydSA_NS0_14adl_serializerENS6_IhNSA_IhEEEEvEENS1_22iterator_input_adapterINS4_11__wrap_iterIPKcEEEEE10get_stringEv
000000000003c7cc t __ZN8nlohmann16json_abi_v3_12_06detail5lexerINS0_10basic_jsonINSt3__13mapENS4_6vectorENS4_12basic_stringIcNS4_11char_traitsIcEENS4_9allocatorIcEEEEbxydSA_NS0_14adl_serializerENS6_IhNSA_IhEEEEvEENS1_22iterator_input_adapterINS4_11__wrap_iterIPKcEEEEE11scan_numberEv
000000000003b864 t __ZN8nlohmann16json_abi_v3_12_06detail5lexerINS0_10basic_jsonINSt3__13mapENS4_6vectorENS4_12basic_stringIcNS4_11char_traitsIcEENS4_9allocatorIcEEEEbxydSA_NS0_14adl_serializerENS6_IhNSA_IhEEEEvEENS1_22iterator_input_adapterINS4_11__wrap_iterIPKcEEEEE11scan_stringEv
000000000003b5c4 t __ZN8nlohmann16json_abi_v3_12_06detail5lexerINS0_10basic_jsonINSt3__13mapENS4_6vectorENS4_12basic_stringIcNS4_11char_traitsIcEENS4_9allocatorIcEEEEbxydSA_NS0_14adl_serializerENS6_IhNSA_IhEEEEvEENS1_22iterator_input_adapterINS4_11__wrap_iterIPKcEEEEE12scan_commentEv
000000000003b720 t __ZN8nlohmann16json_abi_v3_12_06detail5lexerINS0_10basic_jsonINSt3__13mapENS4_6vectorENS4_12basic_stringIcNS4_11char_traitsIcEENS4_9allocatorIcEEEEbxydSA_NS0_14adl_serializerENS6_IhNSA_IhEEEEvEENS1_22iterator_input_adapterINS4_11__wrap_iterIPKcEEEEE12scan_literalESK_mNS1_10lexer_baseISG_E10token_typeE
000000000003e064 t __ZN8nlohmann16json_abi_v3_12_06detail5lexerINS0_10basic_jsonINSt3__13mapENS4_6vectorENS4_12basic_stringIcNS4_11char_traitsIcEENS4_9allocatorIcEEEEbxydSA_NS0_14adl_serializerENS6_IhNSA_IhEEEEvEENS1_22iterator_input_adapterINS4_11__wrap_iterIPKcEEEEE13get_codepointEv
000000000003b518 t __ZN8nlohmann16json_abi_v3_12_06detail5lexerINS0_10basic_jsonINSt3__13mapENS4_6vectorENS4_12basic_stringIcNS4_11char_traitsIcEENS4_9allocatorIcEEEEbxydSA_NS0_14adl_serializerENS6_IhNSA_IhEEEEvEENS1_22iterator_input_adapterINS4_11__wrap_iterIPKcEEEEE15skip_whitespaceEv
000000000003aea0 t __ZN8nlohmann16json_abi_v3_12_06detail5lexerINS0_10basic_jsonINSt3__13mapENS4_6vectorENS4_12basic_stringIcNS4_11char_traitsIcEENS4_9allocatorIcEEEEbxydSA_NS0_14adl_serializerENS6_IhNSA_IhEEEEvEENS1_22iterator_input_adapterINS4_11__wrap_iterIPKcEEEEE17get_decimal_pointEv
000000000003e2ec t __ZN8nlohmann16json_abi_v3_12_06detail5lexerINS0_10basic_jsonINSt3__13mapENS4_6vectorENS4_12basic_stringIcNS4_11char_traitsIcEENS4_9allocatorIcEEEEbxydSA_NS0_14adl_serializerENS6_IhNSA_IhEEEEvEENS1_22iterator_input_adapterINS4_11__wrap_iterIPKcEEEEE18next_byte_in_rangeESt16initializer_listIiE
000000000003e030 t __ZN8nlohmann16json_abi_v3_12_06detail5lexerINS0_10basic_jsonINSt3__13mapENS4_6vectorENS4_12basic_stringIcNS4_11char_traitsIcEENS4_9allocatorIcEEEEbxydSA_NS0_14adl_serializerENS6_IhNSA_IhEEEEvEENS1_22iterator_input_adapterINS4_11__wrap_iterIPKcEEEEE3addEi
000000000003ce00 t __ZN8nlohmann16json_abi_v3_12_06detail5lexerINS0_10basic_jsonINSt3__13mapENS4_6vectorENS4_12basic_stringIcNS4_11char_traitsIcEENS4_9allocatorIcEEEEbxydSA_NS0_14adl_serializerENS6_IhNSA_IhEEEEvEENS1_22iterator_input_adapterINS4_11__wrap_iterIPKcEEEEE3getEv
000000000003b004 t __ZN8nlohmann16json_abi_v3_12_06detail5lexerINS0_10basic_jsonINSt3__13mapENS4_6vectorENS4_12basic_stringIcNS4_11char_traitsIcEENS4_9allocatorIcEEEEbxydSA_NS0_14adl_serializerENS6_IhNSA_IhEEEEvEENS1_22iterator_input_adapterINS4_11__wrap_iterIPKcEEEEE4scanEv
000000000003dfd0 t __ZN8nlohmann16json_abi_v3_12_06detail5lexerINS0_10basic_jsonINSt3__13mapENS4_6vectorENS4_12basic_stringIcNS4_11char_traitsIcEENS4_9allocatorIcEEEEbxydSA_NS0_14adl_serializerENS6_IhNSA_IhEEEEvEENS1_22iterator_input_adapterINS4_11__wrap_iterIPKcEEEEE5resetEv
000000000003cee8 t __ZN8nlohmann16json_abi_v3_12_06detail5lexerINS0_10basic_jsonINSt3__13mapENS4_6vectorENS4_12basic_stringIcNS4_11char_traitsIcEENS4_9allocatorIcEEEEbxydSA_NS0_14adl_serializerENS6_IhNSA_IhEEEEvEENS1_22iterator_input_adapterINS4_11__wrap_iterIPKcEEEEE5ungetEv
000000000003e684 t __ZN8nlohmann16json_abi_v3_12_06detail5lexerINS0_10basic_jsonINSt3__13mapENS4_6vectorENS4_12basic_stringIcNS4_11char_traitsIcEENS4_9allocatorIcEEEEbxydSA_NS0_14adl_serializerENS6_IhNSA_IhEEEEvEENS1_22iterator_input_adapterINS4_11__wrap_iterIPKcEEEEE6strtofERdSK_PPc
000000000003b478 t __ZN8nlohmann16json_abi_v3_12_06detail5lexerINS0_10basic_jsonINSt3__13mapENS4_6vectorENS4_12basic_stringIcNS4_11char_traitsIcEENS4_9allocatorIcEEEEbxydSA_NS0_14adl_serializerENS6_IhNSA_IhEEEEvEENS1_22iterator_input_adapterINS4_11__wrap_iterIPKcEEEEE8skip_bomEv
000000000003ad4c t __ZN8nlohmann16json_abi_v3_12_06detail5lexerINS0_10basic_jsonINSt3__13mapENS4_6vectorENS4_12basic_stringIcNS4_11char_traitsIcEENS4_9allocatorIcEEEEbxydSA_NS0_14adl_serializerENS6_IhNSA_IhEEEEvEENS1_22iterator_input_adapterINS4_11__wrap_iterIPKcEEEEEC1EOSM_b
000000000003adc0 t __ZN8nlohmann16json_abi_v3_12_06detail5lexerINS0_10basic_jsonINSt3__13mapENS4_6vectorENS4_12basic_stringIcNS4_11char_traitsIcEENS4_9allocatorIcEEEEbxydSA_NS0_14adl_serializerENS6_IhNSA_IhEEEEvEENS1_22iterator_input_adapterINS4_11__wrap_iterIPKcEEEEEC2EOSM_b
0000000000051770 t __ZN8nlohmann16json_abi_v3_12_06detail5lexerINS0_10basic_jsonINSt3__13mapENS4_6vectorENS4_12basic_stringIcNS4_11char_traitsIcEENS4_9allocatorIcEEEEbxydSA_NS0_14adl_serializerENS6_IhNSA_IhEEEEvEENS1_22iterator_input_adapterINS4_11__wrap_iterIPKcEEEEED1Ev
000000000005179c t __ZN8nlohmann16json_abi_v3_12_06detail5lexerINS0_10basic_jsonINSt3__13mapENS4_6vectorENS4_12basic_stringIcNS4_11char_traitsIcEENS4_9allocatorIcEEEEbxydSA_NS0_14adl_serializerENS6_IhNSA_IhEEEEvEENS1_22iterator_input_adapterINS4_11__wrap_iterIPKcEEEEED2Ev
000000000004eb18 t __ZN8nlohmann16json_abi_v3_12_06detail6concatINSt3__112basic_stringIcNS3_11char_traitsIcEENS3_9allocatorIcEEEEJPKcRA15_SA_S9_cEEET_DpOT0_
000000000004e6fc t __ZN8nlohmann16json_abi_v3_12_06detail6concatINSt3__112basic_stringIcNS3_11char_traitsIcEENS3_9allocatorIcEEEEJRA10_KcS9_SC_S9_EEET_DpOT0_
000000000004ebec t __ZN8nlohmann16json_abi_v3_12_06detail6concatINSt3__112basic_stringIcNS3_11char_traitsIcEENS3_9allocatorIcEEEEJRA12_KcPSA_EEET_DpOT0_
000000000004ea40 t __ZN8nlohmann16json_abi_v3_12_06detail6concatINSt3__112basic_stringIcNS3_11char_traitsIcEENS3_9allocatorIcEEEEJRA15_KcRKS9_cEEET_DpOT0_
000000000004ba38 t __ZN8nlohmann16json_abi_v3_12_06detail6concatINSt3__112basic_stringIcNS3_11char_traitsIcEENS3_9allocatorIcEEEEJRA17_KcRKS9_cS9_RA3_SA_EEET_DpOT0_
00000000000437cc t __ZN8nlohmann16json_abi_v3_12_06detail6concatINSt3__112basic_stringIcNS3_11char_traitsIcEENS3_9allocatorIcEEEEJRA26_KcS9_cEEET_DpOT0_
000000000004e2d8 t __ZN8nlohmann16json_abi_v3_12_06detail6concatINSt3__112basic_stringIcNS3_11char_traitsIcEENS3_9allocatorIcEEEEJS9_RA12_KcS9_RA3_SA_S9_RKS9_EEET_DpOT0_
000000000004b6c0 t __ZN8nlohmann16json_abi_v3_12_06detail6concatINSt3__112basic_stringIcNS3_11char_traitsIcEENS3_9allocatorIcEEEEJS9_S9_RKS9_EEET_DpOT0_
000000000003ff3c t __ZN8nlohmann16json_abi_v3_12_06detail6parserINS0_10basic_jsonINSt3__13mapENS4_6vectorENS4_12basic_stringIcNS4_11char_traitsIcEENS4_9allocatorIcEEEEbxydSA_NS0_14adl_serializerENS6_IhNSA_IhEEEEvEENS1_22iterator_input_adapterINS4_11__wrap_iterIPKcEEEEE17exception_messageENS1_10lexer_baseISG_E10token_typeERKSC_
0000000000040270 t __ZN8nlohmann16json_abi_v3_12_06detail6parserINS0_10basic_jsonINSt3__13mapENS4_6vectorENS4_12basic_stringIcNS4_11char_traitsIcEENS4_9allocatorIcEEEEbxydSA_NS0_14adl_serializerENS6_IhNSA_IhEEEEvEENS1_22iterator_input_adapterINS4_11__wrap_iterIPKcEEEEE18sax_parse_internalINS1_19json_sax_dom_parserISG_SM_EEEEbPT_
000000000003eb9c t __ZN8nlohmann16json_abi_v3_12_06detail6parserINS0_10basic_jsonINSt3__13mapENS4_6vectorENS4_12basic_stringIcNS4_11char_traitsIcEENS4_9allocatorIcEEEEbxydSA_NS0_14adl_serializerENS6_IhNSA_IhEEEEvEENS1_22iterator_input_adapterINS4_11__wrap_iterIPKcEEEEE18sax_parse_internalINS1_28json_sax_dom_callback_parserISG_SM_EEEEbPT_
0000000000038bf8 t __ZN8nlohmann16json_abi_v3_12_06detail6parserINS0_10basic_jsonINSt3__13mapENS4_6vectorENS4_12basic_stringIcNS4_11char_traitsIcEENS4_9allocatorIcEEEEbxydSA_NS0_14adl_serializerENS6_IhNSA_IhEEEEvEENS1_22iterator_input_adapterINS4_11__wrap_iterIPKcEEEEE5parseEbRSG_
000000000003ad8c t __ZN8nlohmann16json_abi_v3_12_06detail6parserINS0_10basic_jsonINSt3__13mapENS4_6vectorENS4_12basic_stringIcNS4_11char_traitsIcEENS4_9allocatorIcEEEEbxydSA_NS0_14adl_serializerENS6_IhNSA_IhEEEEvEENS1_22iterator_input_adapterINS4_11__wrap_iterIPKcEEEEE9get_tokenEv
000000000003ac74 t __ZN8nlohmann16json_abi_v3_12_06detail6parserINS0_10basic_jsonINSt3__13mapENS4_6vectorENS4_12basic_stringIcNS4_11char_traitsIcEENS4_9allocatorIcEEEEbxydSA_NS0_14adl_serializerENS6_IhNSA_IhEEEEvEENS1_22iterator_input_adapterINS4_11__wrap_iterIPKcEEEEEC1EOSM_NS4_8functionIFbiNS1_13parse_event_tERSG_EEEbb
000000000003acc8 t __ZN8nlohmann16json_abi_v3_12_06detail6parserINS0_10basic_jsonINSt3__13mapENS4_6vectorENS4_12basic_stringIcNS4_11char_traitsIcEENS4_9allocatorIcEEEEbxydSA_NS0_14adl_serializerENS6_IhNSA_IhEEEEvEENS1_22iterator_input_adapterINS4_11__wrap_iterIPKcEEEEEC2EOSM_NS4_8functionIFbiNS1_13parse_event_tERSG_EEEbb
0000000000038fc8 t __ZN8nlohmann16json_abi_v3_12_06detail6parserINS0_10basic_jsonINSt3__13mapENS4_6vectorENS4_12basic_stringIcNS4_11char_traitsIcEENS4_9allocatorIcEEEEbxydSA_NS0_14adl_serializerENS6_IhNSA_IhEEEEvEENS1_22iterator_input_adapterINS4_11__wrap_iterIPKcEEEEED1Ev
0000000000051738 t __ZN8nlohmann16json_abi_v3_12_06detail6parserINS0_10basic_jsonINSt3__13mapENS4_6vectorENS4_12basic_stringIcNS4_11char_traitsIcEENS4_9allocatorIcEEEEbxydSA_NS0_14adl_serializerENS6_IhNSA_IhEEEEvEENS1_22iterator_input_adapterINS4_11__wrap_iterIPKcEEEEED2Ev
000000000004b27c t __ZN8nlohmann16json_abi_v3_12_06detail7to_jsonINS0_10basic_jsonINSt3__13mapENS4_6vectorENS4_12basic_stringIcNS4_11char_traitsIcEENS4_9allocatorIcEEEEbxydSA_NS0_14adl_serializerENS6_IhNSA_IhEEEEvEESC_Li0EEEvRT_RKT0_
000000000004cc8c t __ZN8nlohmann16json_abi_v3_12_06detail7to_jsonINS0_10basic_jsonINSt3__13mapENS4_6vectorENS4_12basic_stringIcNS4_11char_traitsIcEENS4_9allocatorIcEEEEbxydSA_NS0_14adl_serializerENS6_IhNSA_IhEEEEvEEbLi0EEEvRT_T0_
000000000004c698 t __ZN8nlohmann16json_abi_v3_12_06detail7to_jsonINS0_10basic_jsonINSt3__13mapENS4_6vectorENS4_12basic_stringIcNS4_11char_traitsIcEENS4_9allocatorIcEEEEbxydSA_NS0_14adl_serializerENS6_IhNSA_IhEEEEvEEdLi0EEEvRT_T0_
000000000004d6ec t __ZN8nlohmann16json_abi_v3_12_06detail7to_jsonINS0_10basic_jsonINSt3__13mapENS4_6vectorENS4_12basic_stringIcNS4_11char_traitsIcEENS4_9allocatorIcEEEEbxydSA_NS0_14adl_serializerENS6_IhNSA_IhEEEEvEExLi0EEEvRT_T0_
000000000004e140 t __ZN8nlohmann16json_abi_v3_12_06detail7to_jsonINS0_10basic_jsonINSt3__13mapENS4_6vectorENS4_12basic_stringIcNS4_11char_traitsIcEENS4_9allocatorIcEEEEbxydSA_NS0_14adl_serializerENS6_IhNSA_IhEEEEvEEyLi0EEEvRT_T0_
0000000000055a58 t __ZN8nlohmann16json_abi_v3_12_06detail8to_charsIdEEPcS3_PKcT_
0000000000057288 t __ZN8nlohmann16json_abi_v3_12_06detail9dtoa_impl12grisu2_roundEPciyyyy
0000000000055db4 t __ZN8nlohmann16json_abi_v3_12_06detail9dtoa_impl13format_bufferEPciiii
00000000000574d0 t __ZN8nlohmann16json_abi_v3_12_06detail9dtoa_impl15append_exponentEPci
0000000000056ae8 t __ZN8nlohmann16json_abi_v3_12_06detail9dtoa_impl16grisu2_digit_genEPcRiS4_NS2_5diyfpES5_S5_
00000000000565b4 t __ZN8nlohmann16json_abi_v3_12_06detail9dtoa_impl16reinterpret_bitsIydEET_T0_
00000000000560fc t __ZN8nlohmann16json_abi_v3_12_06detail9dtoa_impl18compute_boundariesIdEENS2_10boundariesET_
00000000000570b4 t __ZN8nlohmann16json_abi_v3_12_06detail9dtoa_impl18find_largest_pow10EjRj
00000000000567a0 t __ZN8nlohmann16json_abi_v3_12_06detail9dtoa_impl36get_cached_power_for_binary_exponentEi
000000000005669c t __ZN8nlohmann16json_abi_v3_12_06detail9dtoa_impl5diyfp12normalize_toERKS3_i
00000000000569a8 t __ZN8nlohmann16json_abi_v3_12_06detail9dtoa_impl5diyfp3mulERKS3_S5_
0000000000056fe8 t __ZN8nlohmann16json_abi_v3_12_06detail9dtoa_impl5diyfp3subERKS3_S5_
000000000005660c t __ZN8nlohmann16json_abi_v3_12_06detail9dtoa_impl5diyfp9normalizeES3_
00000000000565d0 t __ZN8nlohmann16json_abi_v3_12_06detail9dtoa_impl5diyfpC1Eyi
0000000000056774 t __ZN8nlohmann16json_abi_v3_12_06detail9dtoa_impl5diyfpC2Eyi
000000000005639c t __ZN8nlohmann16json_abi_v3_12_06detail9dtoa_impl6grisu2EPcRiS4_NS2_5diyfpES5_S5_
0000000000055ccc t __ZN8nlohmann16json_abi_v3_12_06detail9dtoa_impl6grisu2IdEEvPcRiS5_T_
000000000004b7e8 t __ZN8nlohmann16json_abi_v3_12_06detail9exception11diagnosticsEDn
000000000004b76c t __ZN8nlohmann16json_abi_v3_12_06detail9exception4nameERKNSt3__112basic_stringIcNS3_11char_traitsIcEENS3_9allocatorIcEEEEi
000000000004be2c t __ZN8nlohmann16json_abi_v3_12_06detail9exceptionC2EiPKc
000000000004bf30 t __ZN8nlohmann16json_abi_v3_12_06detail9exceptionD0Ev
000000000004bf04 t __ZN8nlohmann16json_abi_v3_12_06detail9exceptionD1Ev
000000000004bf60 t __ZN8nlohmann16json_abi_v3_12_06detail9exceptionD2Ev
0000000000023c4c t __ZN8nlohmann16json_abi_v3_12_06detail9from_jsonINS0_10basic_jsonINSt3__13mapENS4_6vectorENS4_12basic_stringIcNS4_11char_traitsIcEENS4_9allocatorIcEEEEbxydSA_NS0_14adl_serializerENS6_IhNSA_IhEEEEvEEEEvRKT_RNSH_16number_integer_tE
000000000002342c t __ZN8nlohmann16json_abi_v3_12_06detail9from_jsonINS0_10basic_jsonINSt3__13mapENS4_6vectorENS4_12basic_stringIcNS4_11char_traitsIcEENS4_9allocatorIcEEEEbxydSA_NS0_14adl_serializerENS6_IhNSA_IhEEEEvEEEEvRKT_RNSH_8string_tE
00000000000210f0 t __ZN8nlohmann16json_abi_v3_12_06detail9from_jsonINS0_10basic_jsonINSt3__13mapENS4_6vectorENS4_12basic_stringIcNS4_11char_traitsIcEENS4_9allocatorIcEEEEbxydSA_NS0_14adl_serializerENS6_IhNSA_IhEEEEvEENS6_IN6Celebi11LibraryItemENSA_ISI_EEEELi0EEEDTcmcmcl20from_json_array_implfp_fp0_tlNS1_12priority_tagILj3EEEEEcldtfp_3getINT0_10value_typeEEEcvv_EERKT_RSN_
0000000000026478 t __ZN8nlohmann16json_abi_v3_12_06detail9from_jsonINS0_10basic_jsonINSt3__13mapENS4_6vectorENS4_12basic_stringIcNS4_11char_traitsIcEENS4_9allocatorIcEEEEbxydSA_NS0_14adl_serializerENS6_IhNSA_IhEEEEvEENS6_ISC_NSA_ISC_EEEELi0EEEDTcmcmcl20from_json_array_implfp_fp0_tlNS1_12priority_tagILj3EEEEEcldtfp_3getINT0_10value_typeEEEcvv_EERKT_RSL_
0000000000025bc4 t __ZN8nlohmann16json_abi_v3_12_06detail9iter_implIKNS0_10basic_jsonINSt3__13mapENS4_6vectorENS4_12basic_stringIcNS4_11char_traitsIcEENS4_9allocatorIcEEEEbxydSA_NS0_14adl_serializerENS6_IhNSA_IhEEEEvEEE7set_endEv
0000000000025700 t __ZN8nlohmann16json_abi_v3_12_06detail9iter_implIKNS0_10basic_jsonINSt3__13mapENS4_6vectorENS4_12basic_stringIcNS4_11char_traitsIcEENS4_9allocatorIcEEEEbxydSA_NS0_14adl_serializerENS6_IhNSA_IhEEEEvEEE9set_beginEv
00000000000256cc t __ZN8nlohmann16json_abi_v3_12_06detail9iter_implIKNS0_10basic_jsonINSt3__13mapENS4_6vectorENS4_12basic_stringIcNS4_11char_traitsIcEENS4_9allocatorIcEEEEbxydSA_NS0_14adl_serializerENS6_IhNSA_IhEEEEvEEEC1EPSH_
0000000000025810 t __ZN8nlohmann16json_abi_v3_12_06detail9iter_implIKNS0_10basic_jsonINSt3__13mapENS4_6vectorENS4_12basic_stringIcNS4_11char_traitsIcEENS4_9allocatorIcEEEEbxydSA_NS0_14adl_serializerENS6_IhNSA_IhEEEEvEEEC2EPSH_
0000000000022850 t __ZN8nlohmann16json_abi_v3_12_06detail9iter_implIKNS0_10basic_jsonINSt3__13mapENS4_6vectorENS4_12basic_stringIcNS4_11char_traitsIcEENS4_9allocatorIcEEEEbxydSA_NS0_14adl_serializerENS6_IhNSA_IhEEEEvEEEppEv
000000000004a2ac t __ZN8nlohmann16json_abi_v3_12_06detail9iter_implINS0_10basic_jsonINSt3__13mapENS4_6vectorENS4_12basic_stringIcNS4_11char_traitsIcEENS4_9allocatorIcEEEEbxydSA_NS0_14adl_serializerENS6_IhNSA_IhEEEEvEEE7set_endEv
0000000000049f34 t __ZN8nlohmann16json_abi_v3_12_06detail9iter_implINS0_10basic_jsonINSt3__13mapENS4_6vectorENS4_12basic_stringIcNS4_11char_traitsIcEENS4_9allocatorIcEEEEbxydSA_NS0_14adl_serializerENS6_IhNSA_IhEEEEvEEE9set_beginEv
0000000000049f00 t __ZN8nlohmann16json_abi_v3_12_06detail9iter_implINS0_10basic_jsonINSt3__13mapENS4_6vectorENS4_12basic_stringIcNS4_11char_traitsIcEENS4_9allocatorIcEEEEbxydSA_NS0_14adl_serializerENS6_IhNSA_IhEEEEvEEEC1EPSG_
000000000004574c t __ZN8nlohmann16json_abi_v3_12_06detail9iter_implINS0_10basic_jsonINSt3__13mapENS4_6vectorENS4_12basic_stringIcNS4_11char_traitsIcEENS4_9allocatorIcEEEEbxydSA_NS0_14adl_serializerENS6_IhNSA_IhEEEEvEEEC1ERKSH_
000000000004a044 t __ZN8nlohmann16json_abi_v3_12_06detail9iter_implINS0_10basic_jsonINSt3__13mapENS4_6vectorENS4_12basic_stringIcNS4_11char_traitsIcEENS4_9allocatorIcEEEEbxydSA_NS0_14adl_serializerENS6_IhNSA_IhEEEEvEEEC2EPSG_
000000000004b08c t __ZN8nlohmann16json_abi_v3_12_06detail9iter_implINS0_10basic_jsonINSt3__13mapENS4_6vectorENS4_12basic_stringIcNS4_11char_traitsIcEENS4_9allocatorIcEEEEbxydSA_NS0_14adl_serializerENS6_IhNSA_IhEEEEvEEEC2ERKSH_
0000000000045780 t __ZN8nlohmann16json_abi_v3_12_06detail9iter_implINS0_10basic_jsonINSt3__13mapENS4_6vectorENS4_12basic_stringIcNS4_11char_traitsIcEENS4_9allocatorIcEEEEbxydSA_NS0_14adl_serializerENS6_IhNSA_IhEEEEvEEEppEv
0000000000022ac0 t __ZN8nlohmann16json_abi_v3_12_06detaileqENS1_20primitive_iterator_tES2_
00000000000121b4 t __ZNK13MinecraftNode17get_terrain_depthEv
0000000000012474 t __ZNK13MinecraftNode17get_terrain_scaleEv
0000000000012174 t __ZNK13MinecraftNode17get_terrain_widthEv
000000000001e6a4 t __ZNK13MinecraftNode19_is_extension_classEv
000000000001278c t __ZNK13MinecraftNode20get_terrain_materialEv
00000000000124b4 t __ZNK13MinecraftNode24get_terrain_height_scaleEv
000000000010c39c t __ZNK5godot10BaseButton10is_hoveredEv
000000000010bfcc t __ZNK5godot10BaseButton10is_pressedEv
000000000010cdbc t __ZNK5godot10BaseButton11is_disabledEv
000000000010e0bc t __ZNK5godot10BaseButton12get_shortcutEv
000000000010d680 t __ZNK5godot10BaseButton13get_draw_modeEv
000000000010c6fc t __ZNK5godot10BaseButton14is_toggle_modeEv
000000000010d110 t __ZNK5godot10BaseButton15get_action_modeEv
000000000010d4a0 t __ZNK5godot10BaseButton15get_button_maskEv
000000000010e584 t __ZNK5godot10BaseButton16get_button_groupEv
000000000010dd28 t __ZNK5godot10BaseButton20is_shortcut_feedbackEv
000000000010d9c8 t __ZNK5godot10BaseButton23is_keep_pressed_outsideEv
000000000010ca5c t __ZNK5godot10BaseButton30is_shortcut_in_tooltip_enabledEv
000000000011c850 t __ZNK5godot10CanvasItem10get_canvasEv
000000000011388c t __ZNK5godot10CanvasItem10is_visibleEv
000000000011905c t __ZNK5godot10CanvasItem11draw_stringERKNS_3RefINS_4FontEEERKNS_7Vector2ERKNS_6StringENS_19HorizontalAlignmentEfiRKNS_5ColorENS_8BitFieldINS_10TextServer17JustificationFlagEEENSH_9DirectionENSH_11OrientationE
000000000011521c t __ZNK5godot10CanvasItem11get_z_indexEv
000000000011d0d8 t __ZNK5godot10CanvasItem12get_materialEv
0000000000114a6c t __ZNK5godot10CanvasItem12get_modulateEv
000000000011cc10 t __ZNK5godot10CanvasItem12get_world_2dEv
000000000011b780 t __ZNK5godot10CanvasItem13get_transformEv
0000000000115564 t __ZNK5godot10CanvasItem13is_z_relativeEv
00000000001146dc t __ZNK5godot10CanvasItem14get_light_maskEv
00000000001134c4 t __ZNK5godot10CanvasItem15get_canvas_itemEv
000000000011e688 t __ZNK5godot10CanvasItem16make_input_localERKNS_3RefINS_10InputEventEEE
000000000011a5d8 t __ZNK5godot10CanvasItem17draw_char_outlineERKNS_3RefINS_4FontEEERKNS_7Vector2ERKNS_6StringEiiRKNS_5ColorE
0000000000114e8c t __ZNK5godot10CanvasItem17get_self_modulateEv
000000000011be2c t __ZNK5godot10CanvasItem17get_viewport_rectEv
00000000001158c4 t __ZNK5godot10CanvasItem17is_y_sort_enabledEv
000000000011f368 t __ZNK5godot10CanvasItem18get_texture_filterEv
000000000011f6a4 t __ZNK5godot10CanvasItem18get_texture_repeatEv
0000000000113a38 t __ZNK5godot10CanvasItem18is_visible_in_treeEv
0000000000119950 t __ZNK5godot10CanvasItem19draw_string_outlineERKNS_3RefINS_4FontEEERKNS_7Vector2ERKNS_6StringENS_19HorizontalAlignmentEfiiRKNS_5ColorENS_8BitFieldINS_10TextServer17JustificationFlagEEENSH_9DirectionENSH_11OrientationE
0000000000114388 t __ZNK5godot10CanvasItem19is_set_as_top_levelEv
000000000011c078 t __ZNK5godot10CanvasItem20get_canvas_transformEv
000000000011b988 t __ZNK5godot10CanvasItem20get_global_transformEv
000000000011c204 t __ZNK5godot10CanvasItem20get_screen_transformEv
000000000011eb80 t __ZNK5godot10CanvasItem20get_visibility_layerEv
0000000000119498 t __ZNK5godot10CanvasItem21draw_multiline_stringERKNS_3RefINS_4FontEEERKNS_7Vector2ERKNS_6StringENS_19HorizontalAlignmentEfiiRKNS_5ColorENS_8BitFieldINS_10TextServer13LineBreakFlagEEENSG_INSH_17JustificationFlagEEENSH_9DirectionENSH_11OrientationE
000000000011c9e0 t __ZNK5godot10CanvasItem21get_canvas_layer_nodeEv
000000000011f9e0 t __ZNK5godot10CanvasItem22get_clip_children_modeEv
000000000011bca0 t __ZNK5godot10CanvasItem22get_viewport_transformEv
000000000011d9c4 t __ZNK5godot10CanvasItem23get_use_parent_materialEv
000000000011c390 t __ZNK5godot10CanvasItem24get_local_mouse_positionEv
000000000011ef74 t __ZNK5godot10CanvasItem24get_visibility_layer_bitEj
000000000011c658 t __ZNK5godot10CanvasItem25get_global_mouse_positionEv
000000000011e3ac t __ZNK5godot10CanvasItem26make_canvas_position_localERKNS_7Vector2E
0000000000119ddc t __ZNK5godot10CanvasItem29draw_multiline_string_outlineERKNS_3RefINS_4FontEEERKNS_7Vector2ERKNS_6StringENS_19HorizontalAlignmentEfiiiRKNS_5ColorENS_8BitFieldINS_10TextServer13LineBreakFlagEEENSG_INSH_17JustificationFlagEEENSH_9DirectionENSH_11OrientationE
000000000011d5a8 t __ZNK5godot10CanvasItem29get_instance_shader_parameterERKNS_10StringNameE
0000000000115c24 t __ZNK5godot10CanvasItem29is_draw_behind_parent_enabledEv
000000000011bb14 t __ZNK5godot10CanvasItem32get_global_transform_with_canvasEv
000000000011e084 t __ZNK5godot10CanvasItem33is_transform_notification_enabledEv
000000000011dd24 t __ZNK5godot10CanvasItem39is_local_transform_notification_enabledEv
000000000011a2dc t __ZNK5godot10CanvasItem9draw_charERKNS_3RefINS_4FontEEERKNS_7Vector2ERKNS_6StringEiRKNS_5ColorE
00000000000f1134 t __ZNK5godot10Dictionary12is_read_onlyEv
00000000000f0d7c t __ZNK5godot10Dictionary12is_typed_keyEv
00000000000f0dec t __ZNK5godot10Dictionary13is_same_typedERKS0_
00000000000f0db4 t __ZNK5godot10Dictionary14is_typed_valueEv
00000000000f116c t __ZNK5godot10Dictionary15recursive_equalERKS0_x
00000000000f0e8c t __ZNK5godot10Dictionary17is_same_typed_keyERKS0_
00000000000f0ecc t __ZNK5godot10Dictionary19is_same_typed_valueERKS0_
00000000000f0fdc t __ZNK5godot10Dictionary20get_typed_key_scriptEv
00000000000f0f0c t __ZNK5godot10Dictionary21get_typed_key_builtinEv
00000000000f10cc t __ZNK5godot10Dictionary22get_typed_value_scriptEv
00000000000f0f3c t __ZNK5godot10Dictionary23get_typed_value_builtinEv
00000000000f0f6c t __ZNK5godot10Dictionary24get_typed_key_class_nameEv
00000000000f0fa4 t __ZNK5godot10Dictionary26get_typed_value_class_nameEv
00000000000f0b40 t __ZNK5godot10Dictionary3getERKNS_7VariantES3_
00000000000f0710 t __ZNK5godot10Dictionary3hasERKNS_7VariantE
00000000000f0984 t __ZNK5godot10Dictionary4hashEv
00000000000f09b4 t __ZNK5godot10Dictionary4keysEv
00000000000f0358 t __ZNK5godot10Dictionary4sizeEv
00000000000f05e0 t __ZNK5godot10Dictionary6mergedERKS0_b
00000000000f09ec t __ZNK5godot10Dictionary6valuesEv
00000000000f07b0 t __ZNK5godot10Dictionary7has_allERKNS_5ArrayE
00000000000f0850 t __ZNK5godot10Dictionary8find_keyERKNS_7VariantE
00000000000f0388 t __ZNK5godot10Dictionary8is_emptyEv
00000000000f0d44 t __ZNK5godot10Dictionary8is_typedEv
00000000000f0a24 t __ZNK5godot10Dictionary9duplicateEb
00000000000f123c t __ZNK5godot10DictionaryeqERKNS_7VariantE
00000000000f12f8 t __ZNK5godot10DictionaryeqERKS0_
00000000000db818 t __ZNK5godot10DictionaryixERKNS_7VariantE
00000000000f127c t __ZNK5godot10DictionaryneERKNS_7VariantE
00000000000f1338 t __ZNK5godot10DictionaryneERKS0_
00000000000f12bc t __ZNK5godot10DictionaryntEv
000000000015c200 t __ZNK5godot10FileAccess10get_bufferEx
000000000015bed4 t __ZNK5godot10FileAccess10get_doubleEv
000000000015b21c t __ZNK5godot10FileAccess10get_lengthEv
000000000015b3ac t __ZNK5godot10FileAccess11eof_reachedEv
000000000015c7b4 t __ZNK5godot10FileAccess11get_as_textEb
000000000015c614 t __ZNK5godot10FileAccess12get_csv_lineERKNS_6StringE
000000000015b08c t __ZNK5godot10FileAccess12get_positionEv
000000000015cd64 t __ZNK5godot10FileAccess13is_big_endianEv
000000000015aa00 t __ZNK5godot10FileAccess17get_path_absoluteEv
000000000015b558 t __ZNK5godot10FileAccess5get_8Ev
000000000015b6ec t __ZNK5godot10FileAccess6get_16Ev
000000000015b880 t __ZNK5godot10FileAccess6get_32Ev
000000000015ba14 t __ZNK5godot10FileAccess6get_64Ev
000000000015d258 t __ZNK5godot10FileAccess7get_varEb
000000000015ab90 t __ZNK5godot10FileAccess7is_openEv
000000000015bba4 t __ZNK5godot10FileAccess8get_halfEv
000000000015c484 t __ZNK5godot10FileAccess8get_lineEv
000000000015a870 t __ZNK5godot10FileAccess8get_pathEv
000000000015c068 t __ZNK5godot10FileAccess8get_realEv
000000000015d0c4 t __ZNK5godot10FileAccess9get_errorEv
000000000015bd3c t __ZNK5godot10FileAccess9get_floatEv
00000000000606bc t __ZNK5godot10MethodBind17get_argument_infoEi
0000000000060474 t __ZNK5godot10MethodBind18get_argument_namesEv
00000000000646c8 t __ZNK5godot10MethodBind23get_arguments_info_listEv
00000000000647f0 t __ZNK5godot10MethodBind27get_arguments_metadata_listEv
00000000000602c4 t __ZNK5godot10MethodBind8get_nameEv
0000000000077ecc t __ZNK5godot10MethodInfocvNS_10DictionaryEEv
00000000000c62e8 t __ZNK5godot10Projection10get_aspectEv
00000000000c051c t __ZNK5godot10Projection10get_z_nearEv
00000000000b7a50 t __ZNK5godot10Projection11determinantEv
00000000000c1140 t __ZNK5godot10Projection13get_endpointsERKNS_11Transform3DEPNS_7Vector3E
00000000000c6e2c t __ZNK5godot10Projection13is_orthogonalEv
00000000000bffc0 t __ZNK5godot10Projection15jitter_offsetedERKNS_7Vector2E
00000000000c725c t __ZNK5godot10Projection18get_lod_multiplierEv
00000000000c6320 t __ZNK5godot10Projection20get_pixels_per_meterEi
00000000000bef38 t __ZNK5godot10Projection20get_projection_planeENS0_6PlanesE
00000000000c1604 t __ZNK5godot10Projection21get_projection_planesERKNS_11Transform3DE
00000000000c0698 t __ZNK5godot10Projection25get_viewport_half_extentsEv
00000000000c0bec t __ZNK5godot10Projection26get_far_plane_half_extentsEv
00000000000bee7c t __ZNK5godot10Projection26perspective_znear_adjustedEf
00000000000bb488 t __ZNK5godot10Projection5xformERKNS_7Vector4E
00000000000bab5c t __ZNK5godot10Projection6xform4ERKNS_5PlaneE
00000000000c6ecc t __ZNK5godot10Projection7get_fovEv
00000000000c4e34 t __ZNK5godot10Projection7inverseEv
00000000000bfdfc t __ZNK5godot10Projection9flipped_yEv
00000000000bc81c t __ZNK5godot10Projection9get_z_farEv
00000000000bbd98 t __ZNK5godot10Projection9xform_invERKNS_7Vector4E
00000000000c74b4 t __ZNK5godot10ProjectioncvNS_11Transform3DEEv
00000000000c60e8 t __ZNK5godot10ProjectioncvNS_6StringEEv
00000000000c0220 t __ZNK5godot10ProjectionmlERKS0_
00000000000cd818 t __ZNK5godot10Quaternion10normalizedEv
00000000000cd914 t __ZNK5godot10Quaternion13is_normalizedEv
00000000000cd5cc t __ZNK5godot10Quaternion15is_equal_approxERKS0_
00000000000ce764 t __ZNK5godot10Quaternion27spherical_cubic_interpolateERKS0_S2_S2_f
00000000000cf1dc t __ZNK5godot10Quaternion35spherical_cubic_interpolate_in_timeERKS0_S2_S2_ffff
00000000000cde18 t __ZNK5godot10Quaternion3expEv
00000000000cda34 t __ZNK5godot10Quaternion3logEv
00000000000ce1b4 t __ZNK5godot10Quaternion5slerpERKS0_f
00000000000cd710 t __ZNK5godot10Quaternion6lengthEv
00000000000cd99c t __ZNK5godot10Quaternion7inverseEv
00000000000ce528 t __ZNK5godot10Quaternion7slerpniERKS0_f
00000000000cd328 t __ZNK5godot10Quaternion8angle_toERKS0_
00000000000cdbe8 t __ZNK5godot10Quaternion8get_axisEv
00000000000cdde4 t __ZNK5godot10Quaternion9get_angleEv
00000000000cd3bc t __ZNK5godot10Quaternion9get_eulerENS_10EulerOrderE
00000000000cd680 t __ZNK5godot10Quaternion9is_finiteEv
00000000000cfe88 t __ZNK5godot10QuaternioncvNS_6StringEEv
00000000000cd550 t __ZNK5godot10QuaternionmlERKS0_
0000000000194ea4 t __ZNK5godot10RefCounted19get_reference_countEv
00000000000e9a20 t __ZNK5godot10StringName10bin_to_intEv
00000000000e9688 t __ZNK5godot10StringName10c_unescapeEv
00000000000e8b78 t __ZNK5godot10StringName10capitalizeEv
00000000000e81ac t __ZNK5godot10StringName10casecmp_toERKNS_6StringE
00000000000e8410 t __ZNK5godot10StringName10get_slicecExx
00000000000e9d30 t __ZNK5godot10StringName10hex_decodeEv
00000000000e99f0 t __ZNK5godot10StringName10hex_to_intEv
00000000000e92c8 t __ZNK5godot10StringName10md5_bufferEv
00000000000e88f0 t __ZNK5godot10StringName10similarityERKNS_6StringE
00000000000e9154 t __ZNK5godot10StringName10unicode_atEx
00000000000e9618 t __ZNK5godot10StringName10uri_decodeEv
00000000000e95e0 t __ZNK5godot10StringName10uri_encodeEv
00000000000e9540 t __ZNK5godot10StringName10xml_escapeEb
00000000000e87b8 t __ZNK5godot10StringName11begins_withERKNS_6StringE
00000000000e96c0 t __ZNK5godot10StringName11json_escapeEv
00000000000e9300 t __ZNK5godot10StringName11sha1_bufferEv
00000000000e9290 t __ZNK5godot10StringName11sha256_textEv
00000000000e8f58 t __ZNK5godot10StringName11strip_edgesEbb
00000000000e9bd0 t __ZNK5godot10StringName11trim_prefixERKNS_6StringE
00000000000e9c10 t __ZNK5godot10StringName11trim_suffixERKNS_6StringE
00000000000e94d0 t __ZNK5godot10StringName12get_base_dirEv
00000000000e90dc t __ZNK5godot10StringName12get_basenameEv
00000000000e9810 t __ZNK5godot10StringName12is_valid_intEv
00000000000e81e4 t __ZNK5godot10StringName12nocasecmp_toERKNS_6StringE
00000000000e9b18 t __ZNK5godot10StringName12pad_decimalsEx
00000000000e8d80 t __ZNK5godot10StringName12split_floatsERKNS_6StringEb
00000000000e95a8 t __ZNK5godot10StringName12xml_unescapeEv
00000000000e90a4 t __ZNK5godot10StringName13get_extensionEv
00000000000e9338 t __ZNK5godot10StringName13sha256_bufferEv
00000000000e9498 t __ZNK5godot10StringName13simplify_pathEv
00000000000e8fec t __ZNK5godot10StringName13strip_escapesEv
00000000000e8bb0 t __ZNK5godot10StringName13to_camel_caseEv
00000000000e8c20 t __ZNK5godot10StringName13to_snake_caseEv
00000000000e828c t __ZNK5godot10StringName14filecasecmp_toERKNS_6StringE
00000000000e9848 t __ZNK5godot10StringName14is_valid_floatEv
00000000000e8be8 t __ZNK5godot10StringName14to_pascal_caseEv
00000000000e9c88 t __ZNK5godot10StringName14to_utf8_bufferEv
00000000000e8490 t __ZNK5godot10StringName15get_slice_countERKNS_6StringE
00000000000e9c50 t __ZNK5godot10StringName15to_ascii_bufferEv
00000000000e9cc0 t __ZNK5godot10StringName15to_utf16_bufferEv
00000000000e9cf8 t __ZNK5godot10StringName15to_utf32_bufferEv
00000000000e9d68 t __ZNK5godot10StringName15to_wchar_bufferEv
00000000000e82c4 t __ZNK5godot10StringName16filenocasecmp_toERKNS_6StringE
00000000000e9428 t __ZNK5godot10StringName16is_absolute_pathEv
00000000000e9460 t __ZNK5godot10StringName16is_relative_pathEv
00000000000e8838 t __ZNK5godot10StringName17is_subsequence_ofERKNS_6StringE
00000000000e9958 t __ZNK5godot10StringName17is_valid_filenameEv
00000000000e821c t __ZNK5godot10StringName17naturalcasecmp_toERKNS_6StringE
00000000000e9730 t __ZNK5godot10StringName17validate_filenameEv
00000000000e8878 t __ZNK5godot10StringName18is_subsequence_ofnERKNS_6StringE
00000000000e96f8 t __ZNK5godot10StringName18validate_node_nameEv
00000000000e9880 t __ZNK5godot10StringName19is_valid_hex_numberEb
00000000000e98e8 t __ZNK5godot10StringName19is_valid_html_colorEv
00000000000e97d8 t __ZNK5godot10StringName19is_valid_identifierEv
00000000000e9920 t __ZNK5godot10StringName19is_valid_ip_addressEv
00000000000e8254 t __ZNK5godot10StringName19naturalnocasecmp_toERKNS_6StringE
00000000000e9768 t __ZNK5godot10StringName25is_valid_ascii_identifierEv
00000000000e97a0 t __ZNK5godot10StringName27is_valid_unicode_identifierEv
00000000000e84c8 t __ZNK5godot10StringName4findERKNS_6StringEx
00000000000e9da0 t __ZNK5godot10StringName4hashEv
00000000000e8df0 t __ZNK5godot10StringName4joinERKNS_17PackedStringArrayE
00000000000e8ea0 t __ZNK5godot10StringName4leftEx
00000000000e9a50 t __ZNK5godot10StringName4lpadExRKNS_6StringE
00000000000e9ab4 t __ZNK5godot10StringName4rpadExRKNS_6StringE
00000000000e8580 t __ZNK5godot10StringName5countERKNS_6StringExx
00000000000e8af8 t __ZNK5godot10StringName5eraseExx
00000000000e8524 t __ZNK5godot10StringName5findnERKNS_6StringEx
00000000000e8738 t __ZNK5godot10StringName5matchERKNS_6StringE
00000000000e8680 t __ZNK5godot10StringName5rfindERKNS_6StringEx
00000000000e8efc t __ZNK5godot10StringName5rightEx
00000000000e8c58 t __ZNK5godot10StringName5splitERKNS_6StringEbx
00000000000e8600 t __ZNK5godot10StringName6countnERKNS_6StringExx
00000000000e91e8 t __ZNK5godot10StringName6dedentEv
00000000000e8928 t __ZNK5godot10StringName6formatERKNS_7VariantERKNS_6StringE
00000000000e91a8 t __ZNK5godot10StringName6indentERKNS_6StringE
00000000000e8a94 t __ZNK5godot10StringName6insertExRKNS_6StringE
00000000000e82fc t __ZNK5godot10StringName6lengthEv
00000000000e9024 t __ZNK5godot10StringName6lstripERKNS_6StringE
00000000000e8778 t __ZNK5godot10StringName6matchnERKNS_6StringE
00000000000e8a00 t __ZNK5godot10StringName6repeatEx
00000000000e86dc t __ZNK5godot10StringName6rfindnERKNS_6StringEx
00000000000e8cec t __ZNK5godot10StringName6rsplitERKNS_6StringEbx
00000000000e9064 t __ZNK5godot10StringName6rstripERKNS_6StringE
00000000000e832c t __ZNK5godot10StringName6substrExx
00000000000e9990 t __ZNK5godot10StringName6to_intEv
00000000000e88b8 t __ZNK5godot10StringName7bigramsEv
00000000000e8970 t __ZNK5godot10StringName7replaceERKNS_6StringES3_
00000000000e8a5c t __ZNK5godot10StringName7reverseEv
00000000000e9650 t __ZNK5godot10StringName8c_escapeEv
00000000000e93a8 t __ZNK5godot10StringName8containsERKNS_6StringE
00000000000e9508 t __ZNK5godot10StringName8get_fileEv
00000000000e9370 t __ZNK5godot10StringName8is_emptyEv
00000000000e9220 t __ZNK5godot10StringName8md5_textEv
00000000000e89b8 t __ZNK5godot10StringName8replacenERKNS_6StringES3_
00000000000e99c0 t __ZNK5godot10StringName8to_floatEv
00000000000e8e68 t __ZNK5godot10StringName8to_lowerEv
00000000000e8e30 t __ZNK5godot10StringName8to_upperEv
00000000000e93e8 t __ZNK5godot10StringName9containsnERKNS_6StringE
00000000000e87f8 t __ZNK5godot10StringName9ends_withERKNS_6StringE
00000000000e83ac t __ZNK5godot10StringName9get_sliceERKNS_6StringEx
00000000000e9b74 t __ZNK5godot10StringName9pad_zerosEx
00000000000e9114 t __ZNK5godot10StringName9path_joinERKNS_6StringE
00000000000e9258 t __ZNK5godot10StringName9sha1_textEv
00000000000e9fec t __ZNK5godot10StringNameeqERKNS_6StringE
00000000000e9dd0 t __ZNK5godot10StringNameeqERKNS_7VariantE
00000000000ea4ec t __ZNK5godot10StringNameeqERKS0_
00000000000ea62c t __ZNK5godot10StringNamegeERKS0_
00000000000ea5ec t __ZNK5godot10StringNamegtERKS0_
00000000000ea5ac t __ZNK5godot10StringNameleERKS0_
00000000000ea56c t __ZNK5godot10StringNameltERKS0_
00000000000ea02c t __ZNK5godot10StringNameneERKNS_6StringE
00000000000e9e10 t __ZNK5godot10StringNameneERKNS_7VariantE
00000000000ea52c t __ZNK5godot10StringNameneERKS0_
00000000000e9e90 t __ZNK5godot10StringNamentEv
00000000000ea06c t __ZNK5godot10StringNameplERKNS_6StringE
00000000000ea66c t __ZNK5godot10StringNameplERKS0_
00000000000ea72c t __ZNK5godot10StringNamermEPNS_6ObjectE
00000000000ea828 t __ZNK5godot10StringNamermERKNS_10DictionaryE
00000000000ea46c t __ZNK5godot10StringNamermERKNS_10ProjectionE
00000000000ea36c t __ZNK5godot10StringNamermERKNS_10QuaternionE
00000000000ea26c t __ZNK5godot10StringNamermERKNS_11Transform2DE
00000000000ea42c t __ZNK5godot10StringNamermERKNS_11Transform3DE
00000000000ea8a8 t __ZNK5godot10StringNamermERKNS_15PackedByteArrayE
00000000000eaaa8 t __ZNK5godot10StringNamermERKNS_16PackedColorArrayE
00000000000ea8e8 t __ZNK5godot10StringNamermERKNS_16PackedInt32ArrayE
00000000000ea928 t __ZNK5godot10StringNamermERKNS_16PackedInt64ArrayE
00000000000ea9e8 t __ZNK5godot10StringNamermERKNS_17PackedStringArrayE
00000000000ea968 t __ZNK5godot10StringNamermERKNS_18PackedFloat32ArrayE
00000000000ea9a8 t __ZNK5godot10StringNamermERKNS_18PackedFloat64ArrayE
00000000000eaa28 t __ZNK5godot10StringNamermERKNS_18PackedVector2ArrayE
00000000000eaa68 t __ZNK5godot10StringNamermERKNS_18PackedVector3ArrayE
00000000000eaae8 t __ZNK5godot10StringNamermERKNS_18PackedVector4ArrayE
00000000000ea3ac t __ZNK5godot10StringNamermERKNS_4AABBE
00000000000ea868 t __ZNK5godot10StringNamermERKNS_5ArrayE
00000000000ea3ec t __ZNK5godot10StringNamermERKNS_5BasisE
00000000000ea4ac t __ZNK5godot10StringNamermERKNS_5ColorE
00000000000ea32c t __ZNK5godot10StringNamermERKNS_5PlaneE
00000000000ea16c t __ZNK5godot10StringNamermERKNS_5Rect2E
00000000000ea1ac t __ZNK5godot10StringNamermERKNS_6Rect2iE
00000000000ea7e8 t __ZNK5godot10StringNamermERKNS_6SignalE
00000000000ea0ac t __ZNK5godot10StringNamermERKNS_6StringE
00000000000e9e50 t __ZNK5godot10StringNamermERKNS_7VariantE
00000000000ea0ec t __ZNK5godot10StringNamermERKNS_7Vector2E
00000000000ea1ec t __ZNK5godot10StringNamermERKNS_7Vector3E
00000000000ea2ac t __ZNK5godot10StringNamermERKNS_7Vector4E
00000000000ea7a8 t __ZNK5godot10StringNamermERKNS_8CallableE
00000000000ea6ec t __ZNK5godot10StringNamermERKNS_8NodePathE
00000000000ea12c t __ZNK5godot10StringNamermERKNS_8Vector2iE
00000000000ea22c t __ZNK5godot10StringNamermERKNS_8Vector3iE
00000000000ea2ec t __ZNK5godot10StringNamermERKNS_8Vector4iE
00000000000ea6ac t __ZNK5godot10StringNamermERKS0_
00000000000e9ecc t __ZNK5godot10StringNamermEb
00000000000e9f90 t __ZNK5godot10StringNamermEd
00000000000e9f34 t __ZNK5godot10StringNamermEx
00000000000d3e80 t __ZNK5godot11CharStringTIDiE3getEx
00000000000d3698 t __ZNK5godot11CharStringTIDiE3ptrEv
00000000000d36b8 t __ZNK5godot11CharStringTIDiE4sizeEv
00000000000d4a88 t __ZNK5godot11CharStringTIDiE6lengthEv
00000000000d4bb0 t __ZNK5godot11CharStringTIDiE8get_dataEv
00000000000d4f5c t __ZNK5godot11CharStringTIDiEcvPKDiEv
00000000000d4210 t __ZNK5godot11CharStringTIDiEixEx
00000000000d4908 t __ZNK5godot11CharStringTIDiEltERKS1_
00000000000d24f8 t __ZNK5godot11CharStringTIDsE3getEx
00000000000d1d10 t __ZNK5godot11CharStringTIDsE3ptrEv
00000000000d1d30 t __ZNK5godot11CharStringTIDsE4sizeEv
